00000000000f8960 R _ZTS21CAnimBlendAssociation
00000000000f9b48 R _ZTS18CAnimBlendSequence
0000000000110f88 R _ZTS13HandModelInfo
0000000000110f98 R _ZN12XMLConfigure11NO_CUTSCENEE
0000000000110fa0 R _ZN12XMLConfigure12NO_CHARACTERE
0000000000110fa4 R _ZN12XMLConfigure17INVALID_CHARACTERE
0000000000110fa8 R _ZN12XMLConfigure13ALL_CHARACTERE
0000000000110fac R _ZN12XMLConfigure12NO_HAND_SIDEE
0000000000110fb0 R _ZN12XMLConfigure13NO_HAND_MODELE
0000000000110fb8 R _ZTSN3xml11ElementNullE
0000000000110fcc R _ZTSN3xml13ElementSimpleE
0000000000110fe2 R _ZTSN3xml7ElementE
0000000000110ff1 R _ZTSN3xml10ElementTagE
0000000000111004 V _ZTSN3xml14ElementCommentE
000000000011101b R _ZTSN3xml6ParserE
0000000000112f10 R _ZTS6CWaves
000000000011ac70 R _ZTS9CBuilding
000000000011ac7b R _ZTS6CSolid
000000000011ac83 R _ZTS10CTreadable
000000000011bfc4 R _ZTS6CDummy
000000000011c08c R _ZTS7CEntity
000000000011c095 V _ZTS10CPlaceable
000000000011c0b4 V _ZTS4CHID
000000000011c0ba R _ZTS12CHIDJoystick
000000000011c10f R _ZTS19CHIDJoystickXbox360
000000000011c6f0 R _ZTS12CHIDKeyboard
000000000011c6ff R _ZTS14CHIDKeyboardPC
000000000011cb18 R _ZTS9CPhysical
000000000011cf28 R _ZTS13CCutsceneHead
000000000011cf38 R _ZTS15CCutsceneObject
000000000011cf4a R _ZTS12CDummyObject
000000000011d062 R _ZTS7CObject
000000000011d07f R _ZTS11CProjectile
000000000011d08d R _ZTS15CStingerSegment
000000000011d09f R _ZTS12CCivilianPed
000000000011d0ae R _ZTS7CCopPed
000000000011d0b7 R _ZTS9CDummyPed
000000000011d0c2 R _ZTS13CEmergencyPed
000000000011d1d8 R _ZTS4CPed
000000000011d4cc R _ZN20CPedShelterAttractor12ms_iMaxSlotsE
000000000011d4d0 R _ZN20CPedAttractorManager21ms_fInfluenceCosThetaE
000000000011d4d4 R _ZN16CPedAtmAttractor12ms_iMaxSlotsE
000000000011d4d8 R _ZN16CPedAtmAttractor11ms_fSpacingE
000000000011d4dc R _ZN16CPedAtmAttractor20ms_fAchieveQueueTimeE
000000000011d4e0 R _ZN16CPedAtmAttractor27ms_fAchieveQueueShuffleTimeE
000000000011d4e4 R _ZN16CPedAtmAttractor15ms_fArriveRangeE
000000000011d4e8 R _ZN16CPedAtmAttractor16ms_fHeadingRangeE
000000000011d4ec R _ZN16CPedAtmAttractor12ms_fDeltaPosE
000000000011d4f0 R _ZN16CPedAtmAttractor16ms_fDeltaHeadingE
000000000011d4f4 R _ZN17CPedSeatAttractor12ms_iMaxSlotsE
000000000011d4f8 R _ZN17CPedSeatAttractor11ms_fSpacingE
000000000011d4fc R _ZN17CPedSeatAttractor20ms_fAchieveQueueTimeE
000000000011d500 R _ZN17CPedSeatAttractor27ms_fAchieveQueueShuffleTimeE
000000000011d504 R _ZN17CPedSeatAttractor15ms_fArriveRangeE
000000000011d508 R _ZN17CPedSeatAttractor16ms_fHeadingRangeE
000000000011d50c R _ZN17CPedSeatAttractor12ms_fDeltaPosE
000000000011d510 R _ZN17CPedSeatAttractor16ms_fDeltaHeadingE
000000000011d514 R _ZN17CPedStopAttractor12ms_iMaxSlotsE
000000000011d518 R _ZN17CPedStopAttractor11ms_fSpacingE
000000000011d51c R _ZN17CPedStopAttractor20ms_fAchieveQueueTimeE
000000000011d520 R _ZN17CPedStopAttractor27ms_fAchieveQueueShuffleTimeE
000000000011d524 R _ZN17CPedStopAttractor15ms_fArriveRangeE
000000000011d528 R _ZN17CPedStopAttractor16ms_fHeadingRangeE
000000000011d52c R _ZN17CPedStopAttractor12ms_fDeltaPosE
000000000011d530 R _ZN17CPedStopAttractor16ms_fDeltaHeadingE
000000000011d534 R _ZN18CPedPizzaAttractor12ms_iMaxSlotsE
000000000011d538 R _ZN18CPedPizzaAttractor11ms_fSpacingE
000000000011d53c R _ZN18CPedPizzaAttractor20ms_fAchieveQueueTimeE
000000000011d540 R _ZN18CPedPizzaAttractor27ms_fAchieveQueueShuffleTimeE
000000000011d544 R _ZN18CPedPizzaAttractor15ms_fArriveRangeE
000000000011d548 R _ZN18CPedPizzaAttractor16ms_fHeadingRangeE
000000000011d54c R _ZN18CPedPizzaAttractor12ms_fDeltaPosE
000000000011d550 R _ZN18CPedPizzaAttractor16ms_fDeltaHeadingE
000000000011d554 R _ZN18CPedPizzaAttractor18ms_fPizzaOrderTimeE
000000000011d558 R _ZN20CPedShelterAttractor11ms_fSpacingE
000000000011d55c R _ZN20CPedShelterAttractor20ms_fAchieveQueueTimeE
000000000011d560 R _ZN20CPedShelterAttractor27ms_fAchieveQueueShuffleTimeE
000000000011d564 R _ZN20CPedShelterAttractor15ms_fArriveRangeE
000000000011d568 R _ZN20CPedShelterAttractor16ms_fHeadingRangeE
000000000011d56c R _ZN20CPedShelterAttractor12ms_fDeltaPosE
000000000011d570 R _ZN20CPedShelterAttractor16ms_fDeltaHeadingE
000000000011d574 R _ZN24CPedIceCreamVanAttractor12ms_iMaxSlotsE
000000000011d578 R _ZN24CPedIceCreamVanAttractor11ms_fSpacingE
000000000011d57c R _ZN24CPedIceCreamVanAttractor20ms_fAchieveQueueTimeE
000000000011d580 R _ZN24CPedIceCreamVanAttractor27ms_fAchieveQueueShuffleTimeE
000000000011d584 R _ZN24CPedIceCreamVanAttractor15ms_fArriveRangeE
000000000011d588 R _ZN24CPedIceCreamVanAttractor16ms_fHeadingRangeE
000000000011d58c R _ZN24CPedIceCreamVanAttractor12ms_fDeltaPosE
000000000011d590 R _ZN24CPedIceCreamVanAttractor16ms_fDeltaHeadingE
000000000011d594 R _ZN20CPedAttractorManager18ms_fSearchDistanceE
000000000011d598 R _ZN20CPedAttractorManager21ms_fInfluenceDistanceE
000000000011d59c R _ZN20CPedAttractorManager23ms_fAttractorPopulationE
000000000011d5a0 R _ZN20CPedAttractorManager15ms_iCheckPeriodE
000000000011d5a4 R _ZTS13CPedAttractor
000000000011d5b4 R _ZTS16CPedAtmAttractor
000000000011d5c7 R _ZTS17CPedSeatAttractor
000000000011d5db R _ZTS17CPedStopAttractor
000000000011d5ef R _ZTS18CPedPizzaAttractor
000000000011d604 R _ZTS20CPedShelterAttractor
000000000011d61b R _ZTS24CPedIceCreamVanAttractor
000000000011dc14 R _ZTS10CPlayerPed
000000000011dc65 R _ZTS14CBaseModelInfo
000000000011dc76 R _ZTS15CClumpModelInfo
000000000011dda0 V _ZTS14CTimeModelInfo
000000000011ddda R _ZTS13CPedModelInfo
000000000011df90 R _ZTS16CSimpleModelInfo
000000000011e030 R _ZTS17CVehicleModelInfo
000000000011e044 R _ZTS16CWeaponModelInfo
000000000011e057 R _ZTS19CXtraCompsModelInfo
000000000011e804 R _ZTS17TouchscreenNipple
000000000011e818 R _ZTS17TouchscreenButton
000000000011eb3a R _ZTS11CAutomobile
000000000011eb78 R _ZTS5CBike
000000000011eb7f R _ZTS5CBoat
000000000011ed38 R _ZTS5CHeli
000000000011ed3f R _ZTS6CPlane
000000000011ed47 R _ZTS6CTrain
000000000011ed4f R _ZTS8CVehicle
0000000000120214 V _ZTS15ES2VertexBuffer
0000000000120226 V _ZTS14RQVertexBuffer
0000000000120237 V _ZTS14ES2IndexBuffer
0000000000120248 V _ZTS13RQIndexBuffer
0000000000120258 V _ZTS14ES2VertexState
0000000000120269 V _ZTS13RQVertexState
0000000000120290 R _ZTS9ES2Shader
000000000012029b V _ZTS8RQShader
00000000001202d8 V _ZTS10ES2Texture
00000000001202f4 R _ZTS9RQTexture
00000000001203c0 R _ZTS22TextureDatabaseRuntime
00000000001203d9 R _ZTS15TextureDatabase
00000000001209c8 R png_sRGB_table
0000000000120bc8 R png_sRGB_base
0000000000120fc8 R png_sRGB_delta
00000000001217b0 V _ZTSNSt6__ndk120__shared_ptr_emplaceIN2SC3hal4HttpENS_9allocatorIS3_EEEE
0000000000121812 V _ZTSN2SC22ScHttpResponseDelegateE
0000000000121830 V _ZTSN2SC3hal4Http20HttpResponseDelegateE
0000000000123878 R deflate_copyright
00000000001241a0 R inflate_copyright
00000000001242cc R _dist_code
00000000001244cc R _length_code
000000000018c580 T _ZN20CAnimBlendAssocGroupC1Ev
000000000018c580 T _ZN20CAnimBlendAssocGroupC2Ev
000000000018c594 T _ZN20CAnimBlendAssocGroupD1Ev
000000000018c594 T _ZN20CAnimBlendAssocGroupD2Ev
000000000018c5f8 T _ZN20CAnimBlendAssocGroup19DestroyAssociationsEv
000000000018c65c T _Z20strcmpIgnoringDigitsPKcS0_
000000000018c6f4 T _Z16GetModelFromNamePKc
000000000018c970 T _ZN20CAnimBlendAssocGroup18CreateAssociationsEPKc
000000000018cb64 T _ZN20CAnimBlendAssocGroup18CreateAssociationsEPKcP7RpClump
000000000018cd04 T _ZN20CAnimBlendAssocGroup18CreateAssociationsEPKcP7RpClumpPPci
000000000018ceac T _ZN20CAnimBlendAssocGroup12GetAnimationEPKc
000000000018cf50 T _ZN20CAnimBlendAssocGroup12GetAnimationEj
000000000018cf68 T _ZN20CAnimBlendAssocGroup13CopyAnimationEPKc
000000000018d054 T _ZN20CAnimBlendAssocGroup13CopyAnimationEj
000000000018d0c8 T _ZN20CAnimBlendAssocGroup14GetAnimationIdEPKc
000000000018d17c T _ZN20CAnimBlendAssocGroup21SetRequiredAnimationsEPPci
000000000018d360 T _ZN21CAnimBlendAssociationC1Ev
000000000018d360 T _ZN21CAnimBlendAssociationC2Ev
000000000018d39c T _ZN21CAnimBlendAssociationC1EP7RpClumpP19CAnimBlendHierarchy
000000000018d39c T _ZN21CAnimBlendAssociationC2EP7RpClumpP19CAnimBlendHierarchy
000000000018d3d8 T _ZN21CAnimBlendAssociation4InitEP7RpClumpP19CAnimBlendHierarchy
000000000018d548 T _ZN21CAnimBlendAssociationC1ERS_
000000000018d548 T _ZN21CAnimBlendAssociationC2ERS_
000000000018d668 T _ZN21CAnimBlendAssociation4InitERS_
000000000018d75c T _ZN21CAnimBlendAssociationD1Ev
000000000018d75c T _ZN21CAnimBlendAssociationD2Ev
000000000018d7c8 T _ZN21CAnimBlendAssociation22FreeAnimBlendNodeArrayEv
000000000018d7d8 T _ZN21CAnimBlendAssociationD0Ev
000000000018d7fc T _ZN21CAnimBlendAssociation26AllocateAnimBlendNodeArrayEi
000000000018d86c T _ZN21CAnimBlendAssociation14SetCurrentTimeEf
000000000018d918 T _ZN21CAnimBlendAssociation13SyncAnimationEPS_
000000000018d9d8 T _ZN21CAnimBlendAssociation7GetNodeEi
000000000018d9ec T _ZN21CAnimBlendAssociation5StartEf
000000000018da9c T _ZN21CAnimBlendAssociation10SetBlendToEff
000000000018dab0 T _ZN21CAnimBlendAssociation8SetBlendEff
000000000018dab8 T _ZN21CAnimBlendAssociation17SetDeleteCallbackEPFvPS_PvES1_
000000000018dac8 T _ZN21CAnimBlendAssociation17SetFinishCallbackEPFvPS_PvES1_
000000000018dad8 T _ZN19CAnimBlendClumpDataC1Ev
000000000018dad8 T _ZN19CAnimBlendClumpDataC2Ev
000000000018dae8 T _ZN19CAnimBlendClumpDataD1Ev
000000000018dae8 T _ZN19CAnimBlendClumpDataD2Ev
000000000018db28 T _ZN19CAnimBlendClumpData16SetNumberOfBonesEi
000000000018db74 T _ZN19CAnimBlendClumpData12ForAllFramesEPFvP18AnimBlendFrameDataPvES2_
000000000018dbe0 T _ZN19CAnimBlendClumpData17LoadFramesIntoSPREv
000000000018dbe4 T _ZN19CAnimBlendClumpData17ForAllFramesInSPREPFvP18AnimBlendFrameDataPvES2_j
000000000018dbe8 T _ZN19CAnimBlendHierarchyC1Ev
000000000018dbe8 T _ZN19CAnimBlendHierarchyC2Ev
000000000018dbf8 T _ZN19CAnimBlendHierarchyD1Ev
000000000018dbf8 T _ZN19CAnimBlendHierarchyD2Ev
000000000018dc64 T _ZN19CAnimBlendHierarchy19RemoveAnimSequencesEv
000000000018dccc T _ZN19CAnimBlendHierarchy8ShutdownEv
000000000018dd38 T _ZN19CAnimBlendHierarchy12FindSequenceEPc
000000000018dd94 T _ZN19CAnimBlendHierarchy7SetNameEPKc
000000000018dd9c T _ZN19CAnimBlendHierarchy13CalcTotalTimeEv
000000000018de9c T _ZN19CAnimBlendHierarchy23CalcTotalTimeCompressedEv
000000000018dfac T _ZN19CAnimBlendHierarchy21RemoveQuaternionFlipsEv
000000000018e004 T _ZN19CAnimBlendHierarchy10UncompressEv
000000000018e074 T _ZN19CAnimBlendHierarchy17CompressKeyframesEv
000000000018e078 T _ZN19CAnimBlendHierarchy22RemoveUncompressedDataEv
000000000018e084 T _ZN14CAnimBlendNode4InitEv
000000000018e098 T _ZN14CAnimBlendNode10UpdateTimeEv
000000000018e180 T _ZN14CAnimBlendNode18NextKeyFrameNoCalcEv
000000000018e248 T _ZN14CAnimBlendNode6UpdateER7CVectorR11CQuaternionf
000000000018e3f8 T _ZN14CAnimBlendNode12NextKeyFrameEv
000000000018e580 T _ZN14CAnimBlendNode10CalcDeltasEv
000000000018e638 T _ZN14CAnimBlendNode21GetCurrentTranslationER7CVectorf
000000000018e704 T _ZN14CAnimBlendNode17GetEndTranslationER7CVectorf
000000000018e76c T _ZN14CAnimBlendNode12FindKeyFrameEf
000000000018e9ac T _ZN14CAnimBlendNode16UpdateCompressedER7CVectorR11CQuaternionf
000000000018ec2c T _ZN14CAnimBlendNode22NextKeyFrameCompressedEv
000000000018ed1c T _ZN14CAnimBlendNode20CalcDeltasCompressedEv
000000000018ee00 T _ZN14CAnimBlendNode23SetupKeyFrameCompressedEv
000000000018ee8c T _ZN14CAnimBlendNode31GetCurrentTranslationCompressedER7CVectorf
000000000018ef64 T _ZN14CAnimBlendNode27GetEndTranslationCompressedER7CVectorf
000000000018efdc T _ZN18CAnimBlendSequenceC1Ev
000000000018efdc T _ZN18CAnimBlendSequenceC2Ev
000000000018f004 T _ZN18CAnimBlendSequenceD1Ev
000000000018f004 T _ZN18CAnimBlendSequenceD2Ev
000000000018f064 T _ZN18CAnimBlendSequenceD0Ev
000000000018f088 T _ZN18CAnimBlendSequence7SetNameEPKc
000000000018f094 T _ZN18CAnimBlendSequence10SetBoneTagEi
000000000018f09c T _ZN18CAnimBlendSequence12SetNumFramesEibb
000000000018f128 T _ZN18CAnimBlendSequence21RemoveQuaternionFlipsEv
000000000018f1d0 T _ZN18CAnimBlendSequence10UncompressEv
000000000018f32c T _ZN18CAnimBlendSequence22RemoveUncompressedDataEv
000000000018f370 T _ZN18CAnimBlendSequence17CompressKeyframesEv
000000000018f4b8 T _Z32RpAnimBlendClumpUpdateAnimationsP7RpClumpfb
000000000018f8d0 T _ZN21CAnimBlendAssociation11UpdateBlendEf
000000000018f970 T _ZN21CAnimBlendAssociation14UpdateTimeStepEff
00000000001910cc T _ZN21CAnimBlendAssociation10UpdateTimeEff
0000000000191170 T _Z35RpAnimBlendClumpGetFirstAssociationP7RpClump
0000000000191720 T _ZN12CAnimManager10InitialiseEv
00000000001917a0 T _ZN12CAnimManager8ShutdownEv
0000000000191974 T _ZN12CAnimManager19UncompressAnimationEP19CAnimBlendHierarchy
0000000000191ab8 T _ZN12CAnimManager27RemoveFromUncompressedCacheEP19CAnimBlendHierarchy
0000000000191af8 T _ZN12CAnimManager17GetAnimationBlockEPKc
0000000000191ba0 T _ZN12CAnimManager22GetAnimationBlockIndexEPKc
0000000000191c54 T _ZN12CAnimManager12GetAnimationEPKcP10CAnimBlock
0000000000191d00 T _ZN12CAnimManager16GetAnimGroupNameE12AssocGroupId
0000000000191d18 T _ZN12CAnimManager21CreateAnimAssociationE12AssocGroupId11AnimationId
0000000000191d30 T _ZN12CAnimManager18GetAnimAssociationE12AssocGroupId11AnimationId
0000000000191d48 T _ZN12CAnimManager18GetAnimAssociationE12AssocGroupIdPKc
0000000000191d60 T _ZN12CAnimManager12AddAnimationEP7RpClump12AssocGroupId11AnimationId
0000000000191e14 T _ZN12CAnimManager19AddAnimationAndSyncEP7RpClumpP21CAnimBlendAssociation12AssocGroupId11AnimationId
0000000000191ebc T _ZN12CAnimManager14BlendAnimationEP7RpClump12AssocGroupId11AnimationIdf
00000000001920d4 T _ZN12CAnimManager13LoadAnimFilesEv
000000000019218c T _ZN12CAnimManager12LoadAnimFileEPKc
00000000001921c8 T _ZN12CAnimManager21CreateAnimAssocGroupsEv
0000000000192400 T _ZN12CAnimManager17RegisterAnimBlockEPKc
00000000001924e0 T _ZN12CAnimManager12LoadAnimFileEP8RwStreambPA32_Kc
0000000000192b18 T _ZN12CAnimManager18RemoveLastAnimFileEv
0000000000192bc0 T _ZN12CAnimManager15RemoveAnimBlockEi
0000000000192c7c T _ZN12CAnimManager15AddAnimBlockRefEi
0000000000192c9c T _ZN12CAnimManager18RemoveAnimBlockRefEi
0000000000192cd0 T _ZN12CAnimManager31RemoveAnimBlockRefWithoutDeleteEi
0000000000192cf0 T _ZN12CAnimManager21GetNumRefsToAnimBlockEi
0000000000192d08 T _Z23ConvertBoneTag2BoneNamei
0000000000192d28 T _Z22ConvertPedNode2BoneTagi
0000000000192d4c T _ZN12CutsceneHand12HandInstance10InitialiseEv
0000000000192d88 T _ZN12CutsceneHand20InitialiseCharactersEv
0000000000192e04 T _ZN12CutsceneHand7InitXMLEv
0000000000192ec8 T _ZN12CutsceneHand4InitEv
0000000000192fb0 T _ZN12CutsceneHand16SetHandAnimationEiNS_10HandednessE
0000000000192fe8 T _ZN12CutsceneHand23InitialiseHandAnimationEiNS_10HandednessE
0000000000193070 T _ZN12CutsceneHand6CreateEiNS_10HandednessE
0000000000193094 T _ZN12CutsceneHand15SetSkinnedModelEiNS_10HandednessENS_6GenderENS_4RaceENS_7StatureENS_4PropE
0000000000193384 T _ZN12CutsceneHand7RequestEiPKc
00000000001933f4 T _ZN12CutsceneHand17GetIdForCharacterEiNS_10HandednessE
00000000001933fc T _ZN12CutsceneHand7CleanUpEv
0000000000193490 T _ZN12CutsceneHand7DestroyEiNS_10HandednessE
0000000000193534 T _ZN12CutsceneHand6UnloadEi
0000000000193614 T _ZN12CutsceneHand19PrintCharacterNamesEii
0000000000193618 T _ZN12CutsceneHand21GetModelIndexFromNameERKNSt6__ndk112basic_stringIcNS0_11char_traitsIcEENS0_9allocatorIcEEEE
0000000000193884 T _ZN12CutsceneHand20FindHandAtomicByNameEP8RpAtomicPv
00000000001938d8 T _ZN12CutsceneHand18IsSpecialCharacterEi
00000000001938e8 T _ZN12CutsceneHand17IsCutsceneRunningEPKc
0000000000193950 T _ZN12CutsceneHand9HasLoadedEi
0000000000193a14 T _ZN12CutsceneHand13GetBoneMatrixEP7RpClumpi
0000000000193a60 T _ZN12CutsceneHand14CopyBoneMatrixEP7RpClumpiP11RwMatrixTag
0000000000193acc T _ZN12CutsceneHand11BoneAtrophyEP7RpClumpiP11RwMatrixTag
0000000000193b84 T _ZN12CutsceneHand35ReplaceHandsOnCharacterWithThisAnimEPc
0000000000193b8c T _ZN12CutsceneHand17SetMaterialColourEP10RpMaterialPv
0000000000193b98 T _ZN12CutsceneHand15SetAtomicColourEP8RpAtomicPv
0000000000193ba0 T _ZN12CutsceneHand7SetAnimEP7RpClumpPc
0000000000193ba4 T _ZN12CutsceneHand21ConfigureForCharacterEi
0000000000193e34 T _ZN12CutsceneHand9SetColourEiNS_10HandednessER9HandState
0000000000193e70 T _ZN12CutsceneHand16SetAnimationTimeEiNS_10HandednessER9HandState
0000000000193ef0 T _ZN12CutsceneHand8SetModelEiNS_10HandednessER9HandState
0000000000193f94 T _ZN12CutsceneHand8SetScaleEiNS_10HandednessER9HandState
0000000000193fc4 T _ZN12CutsceneHand11SetPositionEiNS_10HandednessER9HandState
0000000000193ff4 T _ZN12CutsceneHand14DeleteRwObjectEiNS_10HandednessE
0000000000194098 T _ZN12CutsceneHand10UpdateSkinEP7RpClumpiNS_10HandednessE
0000000000194138 T _ZN12CutsceneHand11PositionNewEP7RpClumpiNS_10HandednessE
0000000000194320 T _ZN12CutsceneHand15UpdateAnimationEP7RpClumpiNS_10HandednessE
00000000001943a4 T _ZN12CutsceneHand7ReplaceEP7CObjectNS_10HandednessE
0000000000194718 T _ZN12CutsceneHand9PreRenderEP7CObject
00000000001947a0 T _ZN12CutsceneHand6RenderEiNS_10HandednessE
0000000000194894 T _Z24FindCutsceneAudioTrackIdPKc
000000000019491c T _ZN12CCutsceneMgr15GetCutsceneNameEv
0000000000194928 T _ZN12CCutsceneMgr15CanSkipCutsceneEv
00000000001949e4 T _ZN12CCutsceneMgr10InitialiseEv
0000000000194aa4 T _ZN12CCutsceneMgr8ShutdownEv
0000000000194ae4 T _ZN12CCutsceneMgr60RemoveEverythingFromTheWorldForTheBiggestFuckoffCutsceneEverEv
0000000000194f74 T _ZN12CCutsceneMgr25LoadAnimationUncompressedEPKc
0000000000194fc4 T _ZN12CCutsceneMgr16LoadCutsceneDataEPKc
0000000000195418 T _ZN12CCutsceneMgr18DeleteCutsceneDataEv
00000000001957fc T _Z31CalculateBoundingSphereRadiusCBP8RpAtomicPv
00000000001958dc T _Z31UpdateCutsceneObjectBoundingBoxP7RpClumpi
000000000019596c T _ZN12CCutsceneMgr20CreateCutsceneObjectEi
0000000000195b40 T _ZN12CCutsceneMgr15AddCutsceneHeadEP7CObjecti
0000000000195b48 T _ZN12CCutsceneMgr15SetCutsceneAnimEPKcP7CObject
0000000000195c18 T _ZN12CCutsceneMgr21SetCutsceneAnimToLoopEPKc
0000000000195c44 T _ZN12CCutsceneMgr11SetHeadAnimEPKcP7CObject
0000000000195c48 T _ZN12CCutsceneMgr18AttachObjectToBoneEP7CObjectS1_i
0000000000195ca4 T _ZN12CCutsceneMgr19AttachObjectToFrameEP7CObjectP7CEntityPKc
0000000000195d14 T _ZN12CCutsceneMgr20AttachObjectToParentEP7CObjectP7CEntity
0000000000195d24 T _ZN12CCutsceneMgr20SetupCutsceneToStartEv
0000000000195ea8 T _ZN12CCutsceneMgr6UpdateEv
00000000001961e0 T _ZN12CCutsceneMgr14FinishCutsceneEv
0000000000196274 T _ZN12CCutsceneMgr29GetCutsceneTimeInMillesecondsEv
0000000000196294 T _ZN12CCutsceneMgr19HasCutsceneFinishedEv
00000000001962d4 T _ZN12CCutsceneMgr13IsPlayerTommyEv
0000000000196318 T _ZN12CCutsceneMgr15CacheplayerNameEv
0000000000196390 T _ZN12CCutsceneMgr19GetCachedPlayerNameEv
000000000019639c T _ZN12CCutsceneMgr20RestoreMainCharacterEv
000000000019643c T _ZN13HandModelInfo4InitEv
0000000000196448 T _ZN13HandModelInfo8SetClumpEP7RpClump
00000000001964e0 T _ZN13HandModelInfo14DeleteRwObjectEv
0000000000196540 T _ZN13HandModelInfo14CreateInstanceEP11RwMatrixTag
0000000000196594 T _ZN13HandModelInfo14CreateInstanceEv
0000000000196610 W _ZN14CBaseModelInfoD2Ev
0000000000196614 W _ZN13HandModelInfoD0Ev
0000000000196618 W _ZN13HandModelInfo11GetRwObjectEv
0000000000196620 W _ZN14CBaseModelInfo11SetAnimFileEPKc
0000000000196624 W _ZN14CBaseModelInfo20ConvertAnimFileIndexEv
0000000000196628 W _ZN14CBaseModelInfo16GetAnimFileIndexEv
0000000000196630 T _Z23RpAnimBlendFrameGetNameP7RwFrame
0000000000196634 T _Z23RpAnimBlendFrameSetNameP7RwFramePc
0000000000196658 T _Z23RpAnimBlendAllocateDataP7RpClump
00000000001966a8 T _Z23RpAnimBlendPluginAttachv
0000000000196760 T _Z25RpAnimBlendClumpFindFrameP7RpClumpPKc
00000000001968d4 T _Z24RpAnimBlendClumpFindBoneP7RpClumpj
0000000000196930 T _Z30RpAnimBlendClumpFillFrameArrayP7RpClumpPP18AnimBlendFrameData
0000000000196a04 T _Z20RpAnimBlendClumpInitP7RpClump
0000000000196bb8 T _Z29RpAnimBlendClumpIsInitializedP7RpClump
0000000000196be4 T _Z30RpAnimBlendClumpAddAssociationP7RpClumpP21CAnimBlendAssociationjff
0000000000196c58 T _Z30RpAnimBlendClumpSetBlendDeltasP7RpClumpjf
0000000000196c90 T _Z37RpAnimBlendClumpRemoveAllAssociationsP7RpClump
0000000000196ce0 T _Z34RpAnimBlendClumpRemoveAssociationsP7RpClumpj
0000000000196d50 T _Z30RpAnimBlendClumpGetAssociationP7RpClumpPKc
0000000000196da0 T _Z30RpAnimBlendClumpGetAssociationP7RpClumpj
0000000000196dd4 T _Z34RpAnimBlendClumpGetMainAssociationP7RpClumpPP21CAnimBlendAssociationPf
0000000000196e78 T _Z41RpAnimBlendClumpGetMainPartialAssociationP7RpClump
0000000000196ed0 T _Z36RpAnimBlendClumpGetMainAssociation_NP7RpClumpi
0000000000196f20 T _Z43RpAnimBlendClumpGetMainPartialAssociation_NP7RpClumpi
0000000000196f70 T _Z35RpAnimBlendClumpGetFirstAssociationP7RpClumpj
0000000000196fa4 T _Z29RpAnimBlendGetNextAssociationP21CAnimBlendAssociation
0000000000196fb8 T _Z29RpAnimBlendGetNextAssociationP21CAnimBlendAssociationj
0000000000196fe0 T _Z34RpAnimBlendClumpPauseAllAnimationsP7RpClump
0000000000197010 T _Z36RpAnimBlendClumpUnPauseAllAnimationsP7RpClump
0000000000197040 T _Z34RpAnimBlendClumpGetNumAssociationsP7RpClump
0000000000197064 T _Z41RpAnimBlendClumpGetNumPartialAssociationsP7RpClump
00000000001970a0 T _Z44RpAnimBlendClumpGetNumNonPartialAssociationsP7RpClump
0000000000197188 T _ZN9HandState4InitEv
00000000001971cc T _ZN12XMLConfigureC1ERN3xml7ElementEi
00000000001971cc T _ZN12XMLConfigureC2ERN3xml7ElementEi
00000000001972cc T _ZN12XMLConfigure4InitEv
00000000001973a4 T _ZN12XMLConfigure8EvaluateEv
0000000000197488 T _ZN12XMLConfigure7ProcessEv
00000000001975a4 T _ZN12XMLConfigure7GetHandEN12CutsceneHand10HandednessE
00000000001975b8 T _ZN12XMLConfigure15ProcessChildrenEv
0000000000197618 T _ZN12XMLConfigure8CutsceneEv
0000000000197714 T _ZN12XMLConfigure9CharacterEv
00000000001977e4 T _ZN12XMLConfigure4HandEv
00000000001979c4 T _ZN12XMLConfigure9AnimationEv
0000000000197a38 T _ZN12XMLConfigure13AttributeIsIdERKPN3xml9AttributeE
0000000000197a78 T _ZN12XMLConfigure15AttributeIsNameERKPN3xml9AttributeE
0000000000197ab8 T _ZN12XMLConfigure16AttributeIsModelERKPN3xml9AttributeE
0000000000197af8 T _ZN12XMLConfigure15AttributeIsRaceERKPN3xml9AttributeE
0000000000197b38 T _ZN12XMLConfigure17AttributeIsGenderERKPN3xml9AttributeE
0000000000197b78 T _ZN12XMLConfigure15AttributeIsSideERKPN3xml9AttributeE
0000000000197bb8 T _ZN12XMLConfigure17AttributeIsScaleXERKPN3xml9AttributeE
0000000000197bf8 T _ZN12XMLConfigure17AttributeIsScaleYERKPN3xml9AttributeE
0000000000197c38 T _ZN12XMLConfigure17AttributeIsScaleZERKPN3xml9AttributeE
0000000000197c78 T _ZN12XMLConfigure18AttributeIsRotateXERKPN3xml9AttributeE
0000000000197cb8 T _ZN12XMLConfigure18AttributeIsRotateYERKPN3xml9AttributeE
0000000000197cf8 T _ZN12XMLConfigure18AttributeIsRotateZERKPN3xml9AttributeE
0000000000197d38 T _ZN12XMLConfigure20AttributeIsPositionXERKPN3xml9AttributeE
0000000000197d78 T _ZN12XMLConfigure20AttributeIsPositionYERKPN3xml9AttributeE
0000000000197db8 T _ZN12XMLConfigure20AttributeIsPositionZERKPN3xml9AttributeE
0000000000197df8 T _ZN12XMLConfigure14AttributeIsRedERKPN3xml9AttributeE
0000000000197e38 T _ZN12XMLConfigure16AttributeIsGreenERKPN3xml9AttributeE
0000000000197e78 T _ZN12XMLConfigure15AttributeIsBlueERKPN3xml9AttributeE
0000000000197eb8 T _ZN12XMLConfigure24AttributeIsCutsceneStartERKPN3xml9AttributeE
0000000000197ef8 T _ZN12XMLConfigure22AttributeIsCutsceneEndERKPN3xml9AttributeE
0000000000197f38 T _ZN12XMLConfigure24AttributeIsAnimationTimeERKPN3xml9AttributeE
0000000000197f78 T _ZN12XMLConfigure24AttributeIsAnimationTypeERKPN3xml9AttributeE
0000000000197fb8 T _ZN12XMLConfigure25AttributeIsAnimationStartERKPN3xml9AttributeE
0000000000197ff8 T _ZN12XMLConfigure23AttributeIsAnimationEndERKPN3xml9AttributeE
0000000000198038 T _ZN12XMLConfigure17IsCutsceneRunningERKNSt6__ndk112basic_stringIcNS0_11char_traitsIcEENS0_9allocatorIcEEEE
00000000001980ac T _ZN12XMLConfigure22AnimationCutsceneStartEPKNSt6__ndk16vectorIPN3xml9AttributeENS0_9allocatorIS4_EEEE
00000000001981dc T _ZN12XMLConfigure20AnimationCutsceneEndEPKNSt6__ndk16vectorIPN3xml9AttributeENS0_9allocatorIS4_EEEE
000000000019830c T _ZN12XMLConfigure14AnimationStartEPKNSt6__ndk16vectorIPN3xml9AttributeENS0_9allocatorIS4_EEEE
000000000019842c T _ZN12XMLConfigure12AnimationEndEPKNSt6__ndk16vectorIPN3xml9AttributeENS0_9allocatorIS4_EEEE
000000000019854c T _ZN12XMLConfigure13AnimationTypeEPKNSt6__ndk16vectorIPN3xml9AttributeENS0_9allocatorIS4_EEEE
000000000019866c T _ZN12XMLConfigure13AnimationTimeEPKNSt6__ndk16vectorIPN3xml9AttributeENS0_9allocatorIS4_EEEE
0000000000198780 T _ZN12XMLConfigure8HandSideEPKNSt6__ndk16vectorIPN3xml9AttributeENS0_9allocatorIS4_EEEE
0000000000198884 T _ZN12XMLConfigure9HandModelEPKNSt6__ndk16vectorIPN3xml9AttributeENS0_9allocatorIS4_EEEE
0000000000198970 T _ZN12XMLConfigure10HandGenderEPKNSt6__ndk16vectorIPN3xml9AttributeENS0_9allocatorIS4_EEEE
0000000000198a90 T _ZN12XMLConfigure8HandRaceEPKNSt6__ndk16vectorIPN3xml9AttributeENS0_9allocatorIS4_EEEE
0000000000198b78 T _ZN12XMLConfigure10HandScaleXEPKNSt6__ndk16vectorIPN3xml9AttributeENS0_9allocatorIS4_EEEE
0000000000198c8c T _ZN12XMLConfigure10HandScaleYEPKNSt6__ndk16vectorIPN3xml9AttributeENS0_9allocatorIS4_EEEE
0000000000198da0 T _ZN12XMLConfigure10HandScaleZEPKNSt6__ndk16vectorIPN3xml9AttributeENS0_9allocatorIS4_EEEE
0000000000198eb4 T _ZN12XMLConfigure11HandRotateXEPKNSt6__ndk16vectorIPN3xml9AttributeENS0_9allocatorIS4_EEEE
0000000000198fc8 T _ZN12XMLConfigure11HandRotateYEPKNSt6__ndk16vectorIPN3xml9AttributeENS0_9allocatorIS4_EEEE
00000000001990dc T _ZN12XMLConfigure11HandRotateZEPKNSt6__ndk16vectorIPN3xml9AttributeENS0_9allocatorIS4_EEEE
00000000001991f0 T _ZN12XMLConfigure13HandPositionXEPKNSt6__ndk16vectorIPN3xml9AttributeENS0_9allocatorIS4_EEEE
0000000000199304 T _ZN12XMLConfigure13HandPositionYEPKNSt6__ndk16vectorIPN3xml9AttributeENS0_9allocatorIS4_EEEE
0000000000199418 T _ZN12XMLConfigure13HandPositionZEPKNSt6__ndk16vectorIPN3xml9AttributeENS0_9allocatorIS4_EEEE
000000000019952c T _ZN12XMLConfigure13HandColourRedEPKNSt6__ndk16vectorIPN3xml9AttributeENS0_9allocatorIS4_EEEE
0000000000199640 T _ZN12XMLConfigure15HandColourGreenEPKNSt6__ndk16vectorIPN3xml9AttributeENS0_9allocatorIS4_EEEE
0000000000199754 T _ZN12XMLConfigure14HandColourBlueEPKNSt6__ndk16vectorIPN3xml9AttributeENS0_9allocatorIS4_EEEE
0000000000199868 T _ZN3xml9AttributeC1ERKNSt6__ndk112basic_stringIcNS1_11char_traitsIcEENS1_9allocatorIcEEEES9_
0000000000199868 T _ZN3xml9AttributeC2ERKNSt6__ndk112basic_stringIcNS1_11char_traitsIcEENS1_9allocatorIcEEEES9_
00000000001998fc T _ZN3xml5ValueC1Ev
00000000001998fc T _ZN3xml5ValueC2Ev
0000000000199908 T _ZN3xml5Value3AddERKNSt6__ndk112basic_stringIcNS1_11char_traitsIcEENS1_9allocatorIcEEEE
0000000000199924 T _ZN3xml5Value3AddEc
0000000000199928 T _ZNK3xml5ValuecvRKNSt6__ndk112basic_stringIcNS1_11char_traitsIcEENS1_9allocatorIcEEEEEv
000000000019992c T _ZN3xml7ElementC2Ev
0000000000199988 T _ZN3xml7ElementC2ERKNSt6__ndk112basic_stringIcNS1_11char_traitsIcEENS1_9allocatorIcEEEE
0000000000199a08 T _ZN3xml7ElementD0Ev
0000000000199a0c T _ZNK3xml7Element6IsNullEv
0000000000199a14 T _ZN3xml10ElementTagC1ERKNSt6__ndk112basic_stringIcNS1_11char_traitsIcEENS1_9allocatorIcEEEE
0000000000199a14 T _ZN3xml10ElementTagC2ERKNSt6__ndk112basic_stringIcNS1_11char_traitsIcEENS1_9allocatorIcEEEE
0000000000199ab4 T _ZN3xml10ElementTagD1Ev
0000000000199ab4 T _ZN3xml10ElementTagD2Ev
0000000000199bd4 T _ZN3xml10ElementTagD0Ev
0000000000199bf8 T _ZN3xml10ElementTag3AddEPNS_7ElementE
0000000000199ce4 T _ZNK3xml10ElementTag9GetChildsEv
0000000000199cf4 T _ZNK3xml10ElementTag9FindChildEPKcRNSt6__ndk111__wrap_iterIPKPNS_7ElementEEE
0000000000199dc0 T _ZNK3xml10ElementTag8GetChildEPKci
0000000000199e88 T _ZNK3xml10ElementTag13GetAttributesEv
0000000000199e98 T _ZN3xml13ElementSimpleC1ERKNSt6__ndk112basic_stringIcNS1_11char_traitsIcEENS1_9allocatorIcEEEE
0000000000199e98 T _ZN3xml13ElementSimpleC2ERKNSt6__ndk112basic_stringIcNS1_11char_traitsIcEENS1_9allocatorIcEEEE
0000000000199f28 T _ZN3xml13ElementSimple3AddEPNS_7ElementE
0000000000199f30 T _ZNK3xml13ElementSimple9GetChildsEv
0000000000199f38 T _ZNK3xml13ElementSimple8GetChildEPKci
0000000000199f44 T _ZNK3xml13ElementSimple13GetAttributesEv
0000000000199f4c T _ZN3xml14ElementCommentC1ERKNSt6__ndk112basic_stringIcNS1_11char_traitsIcEENS1_9allocatorIcEEEE
0000000000199f4c T _ZN3xml14ElementCommentC2ERKNSt6__ndk112basic_stringIcNS1_11char_traitsIcEENS1_9allocatorIcEEEE
0000000000199ff8 T _ZN3xml11ElementNullC1Ev
0000000000199ff8 T _ZN3xml11ElementNullC2Ev
000000000019a058 T _ZNK3xml11ElementNull6IsNullEv
000000000019a060 W _ZN3xml11ElementNullD0Ev
000000000019a0b0 W _ZN3xml13ElementSimpleD0Ev
000000000019a100 T _ZN3xml7ElementD1Ev
000000000019a100 T _ZN3xml7ElementD2Ev
000000000019a154 W _ZN3xml14ElementCommentD0Ev
000000000019a1a4 W _ZNSt6__ndk112basic_stringIcNS_11char_traitsIcEENS_9allocatorIcEEE25__init_copy_ctor_externalEPKcm
000000000019a3c0 T _ZN3xml6ParserC1Ev
000000000019a3c0 T _ZN3xml6ParserC2Ev
000000000019a3f4 T _ZN3xml6ParserD1Ev
000000000019a3f4 T _ZN3xml6ParserD2Ev
000000000019a450 T _ZN3xml6ParserD0Ev
000000000019a474 T _ZN3xml6Parser11SyntaxErrorERNSt6__ndk112basic_stringIcNS1_11char_traitsIcEENS1_9allocatorIcEEEE
000000000019a478 T _ZN3xml6Parser8NextCharEv
000000000019a4e8 T _ZN3xml6Parser12PreviousCharEv
000000000019a500 T _ZN3xml6Parser11ParseStringEPKc
000000000019a5b0 T _ZN3xml6Parser17ParseStringNoCaseEPKc
000000000019a684 T _ZN3xml6Parser11ParseNumberERi
000000000019a79c T _ZN3xml6Parser14ParseHexNumberERi
000000000019a92c T _ZN3xml6Parser9ParseCharEc
000000000019a9e8 T _ZN3xml6Parser11ParseSpacesEv
000000000019ab34 T _ZN3xml6Parser17ParseDeclBeginingEPKc
000000000019af04 T _ZN3xml6Parser7ParseEqEv
000000000019afa4 T _ZN3xml6Parser12ParseXMLDeclEv
000000000019b42c T _ZN3xml6Parser16ParseVersionInfoERNSt6__ndk112basic_stringIcNS1_11char_traitsIcEENS1_9allocatorIcEEEE
000000000019b5ac T _ZN3xml6Parser17ParseEncodingDeclEv
000000000019b6d0 T _ZN3xml6Parser15ParseVersionNumERNSt6__ndk112basic_stringIcNS1_11char_traitsIcEENS1_9allocatorIcEEEE
000000000019b9ac T _ZN3xml6Parser12ParseEncNameEv
000000000019bb68 T _ZN3xml6Parser10ParseMiscsEv
000000000019bba8 T _ZN3xml6Parser12ParseCommentEv
000000000019bfec T _ZN3xml6Parser9ParseNameERNSt6__ndk112basic_stringIcNS1_11char_traitsIcEENS1_9allocatorIcEEEE
000000000019c27c T _ZN3xml6Parser14ParseReferenceERc
000000000019c644 T _ZN3xml6Parser16MapReferenceNameERKNSt6__ndk112basic_stringIcNS1_11char_traitsIcEENS1_9allocatorIcEEEERc
000000000019c7b8 T _ZN3xml6Parser13ParseAttValueERNSt6__ndk112basic_stringIcNS1_11char_traitsIcEENS1_9allocatorIcEEEE
000000000019cc08 T _ZN3xml6Parser14ParseAttributeEPNS_10ElementTagE
000000000019cf58 T _ZN3xml6Parser10ParseCDATAERNS_7ElementE
000000000019d2c0 T _ZN3xml6Parser16ParseTagBeginingEv
000000000019d478 T _ZN3xml6Parser9ParseETagERNS_7ElementE
000000000019d8bc T _ZN3xml6Parser11ParseMarkupERNS_7ElementE
000000000019dc7c T _ZN3xml6Parser12ParseElementEv
000000000019df50 T _ZN3xml6Parser16ParseContentETagERNS_10ElementTagE
000000000019e508 T _ZN3xml6Parser13ParseDocumentEv
000000000019e5b4 T _ZN3xml6Parser5ParseEPKci
000000000019e61c T _ZN13cAudioManager15ReportCollisionEP7CEntityS1_hhff
000000000019e7d0 T _ZN22cAudioCollisionManager28AddCollisionToRequestedQueueEv
000000000019e8c4 T _ZN13cAudioManager17ServiceCollisionsEv
000000000019edb0 T _ZN13cAudioManager26SetUpLoopingCollisionSoundERK15cAudioCollisionh
000000000019eec0 T _ZN13cAudioManager26SetUpOneShotCollisionSoundERK15cAudioCollision
000000000019f2c0 T _ZN13cAudioManager24GetCollisionOneShotRatioEjf
000000000019f5d8 T _ZN13cAudioManager44SetLoopingCollisionRequestedSfxFreqAndGetVolERK15cAudioCollision
000000000019f88c T _ZN13cAudioManager17GetCollisionRatioEffff
000000000019f8b0 T _ZN13cAudioManager24GetCollisionLoopingRatioEjjf
000000000019f8dc T _ZN13cAudioManager30PreInitialiseGameSpecificSetupEv
000000000019f8f4 T _ZN13cAudioManager31PostInitialiseGameSpecificSetupEv
000000000019faa4 T _ZN13cAudioManager21ResetAudioLogicTimersEj
000000000019fbe0 T _ZN13cAudioManager32PreTerminateGameSpecificShutdownEv
000000000019fcc4 T _ZN13cAudioManager33PostTerminateGameSpecificShutdownEv
000000000019fcc8 T _ZN13cAudioManager17ClearMissionAudioEh
000000000019fd40 T _ZN13cAudioManager13ProcessReverbEv
000000000019fd44 T _ZN13cAudioManager18GetDistanceSquaredERK7CVector
000000000019fd88 T _ZN13cAudioManager17CalculateDistanceERhf
000000000019fdb4 T _ZN13cAudioManager19FindVehicleOfPlayerEv
000000000019fe08 T _ZN13cAudioManager14ProcessSpecialEv
000000000019ff98 T _ZN13cAudioManager17ProcessPlayerMoodEv
00000000001a0048 T _ZN13cAudioManager13ProcessEntityEi
00000000001a01b8 T _ZN13cAudioManager15ProcessPhysicalEi
00000000001a02b0 T _ZN13cAudioManager17ProcessExplosionsEi
00000000001a052c T _ZN13cAudioManager12ProcessFiresEi
00000000001a0844 T _ZN13cAudioManager19ProcessScriptObjectEi
00000000001a08bc T _ZN13cAudioManager14ProcessWeatherEi
00000000001a0c88 T _ZN13cAudioManager15ProcessFrontEndEv
00000000001a10f8 T _ZN13cAudioManager18ProcessProjectilesEv
00000000001a1328 T _ZN13cAudioManager17ProcessEscalatorsEv
00000000001a14f4 T _ZN13cAudioManager18ProcessExtraSoundsEv
00000000001a177c T _ZN13cAudioManager14ProcessGaragesEv
00000000001a1be8 T _ZN13cAudioManager18ProcessFireHydrantEv
00000000001a1d24 T _ZN13cAudioManager18ProcessWaterCannonEi
00000000001a1eb0 T _ZN13cAudioManager14ProcessVehicleEP9CPhysical
00000000001a246c T _ZN13cAudioManager10ProcessPedEP9CPhysical
00000000001a2518 T _ZN13cAudioManager22ProcessVehicleOneShotsER14cVehicleParams
00000000001a3490 T _ZN13cAudioManager26ProcessVehicleSirenOrAlarmER14cVehicleParams
00000000001a372c T _ZN13cAudioManager19ProcessEngineDamageER14cVehicleParams
00000000001a38c4 T _ZN13cAudioManager14ProcessCarHeliER14cVehicleParams
00000000001a469c T _ZN13cAudioManager12ProcessPlaneER14cVehicleParams
00000000001a46bc T _ZN13cAudioManager22ProcessVehicleFlatTyreER14cVehicleParams
00000000001a4918 T _ZN13cAudioManager17ProcessBoatEngineER14cVehicleParams
00000000001a4d98 T _ZN13cAudioManager26ProcessBoatMovingOverWaterER14cVehicleParams
00000000001a4f20 T _ZN13cAudioManager19UpdateGasPedalAudioEP8CVehiclei
00000000001a4f84 T _ZN13cAudioManager23ProcessVehicleRoadNoiseER14cVehicleParams
00000000001a51a0 T _ZN13cAudioManager19ProcessWetRoadNoiseER14cVehicleParams
00000000001a5364 T _ZN13cAudioManager22ProcessVehicleSkiddingER14cVehicleParams
00000000001a574c T _ZN13cAudioManager18ProcessVehicleHornER14cVehicleParams
00000000001a5984 T _ZN13cAudioManager18ProcessCarBombTickER14cVehicleParams
00000000001a5ac0 T _ZN13cAudioManager20ProcessVehicleEngineER14cVehicleParams
00000000001a6134 T _ZN13cAudioManager19ProcessModelVehicleER14cVehicleParams
00000000001a6694 T _ZN13cAudioManager23ProcessModelHeliVehicleER14cVehicleParams
00000000001a68d4 T _ZN13cAudioManager18ProcessReverseGearER14cVehicleParams
00000000001a6aa4 T _ZN13cAudioManager18UsesReverseWarningEj
00000000001a6ae0 T _ZN13cAudioManager28ProcessVehicleReverseWarningER14cVehicleParams
00000000001a6c40 T _ZN13cAudioManager12HasAirBrakesEj
00000000001a6c7c T _ZN13cAudioManager16ProcessAirBrakesER14cVehicleParams
00000000001a6e0c T _ZN13cAudioManager19ProcessVehicleDoorsER14cVehicleParams
00000000001a6fe8 T _ZN13cAudioManager20ProcessRainOnVehicleER14cVehicleParams
00000000001a7188 T _ZN13cAudioManager27ProcessPlayersVehicleEngineER14cVehicleParamsP8CVehicle
00000000001a8018 T _ZN13cAudioManager18PlayerJustGotInCarEv
00000000001a8030 T _ZN13cAudioManager17PlayerJustLeftCarEv
00000000001a8034 T _ZN13cAudioManager18AddPlayerCarSampleEhjjhhh
00000000001a8118 T _ZN13cAudioManager12ProcessCesnaER14cVehicleParams
00000000001a82d0 T _ZN13cAudioManager29GetVehicleDriveWheelSkidValueEP8CVehicle11tWheelStatefP13cTransmissionf
00000000001a83e0 T _ZN13cAudioManager32GetVehicleNonDriveWheelSkidValueEP8CVehicle11tWheelStateP13cTransmissionf
00000000001a8430 T _ZN13cAudioManager18UsesSirenSwitchingERK14cVehicleParams
00000000001a846c T _ZN13cAudioManager9UsesSirenERK14cVehicleParams
00000000001a8490 T _ZN13cAudioManager16SetupPedCommentsER10cPedParamst
00000000001a8720 T _ZN13cAudioManager12ProcessJumboER14cVehicleParams
00000000001a8920 T _Z16DoJumboVolOffsetv
00000000001a8990 T _ZN13cAudioManager17ProcessJumboDecelEP6CPlane
00000000001a8a5c T _ZN13cAudioManager16ProcessJumboTaxiEv
00000000001a8ab4 T _ZN13cAudioManager19ProcessJumboLandingEP6CPlane
00000000001a8bb8 T _ZN13cAudioManager18ProcessJumboFlyingEv
00000000001a8bfc T _ZN13cAudioManager19ProcessJumboTakeOffEP6CPlane
00000000001a8cf0 T _ZN13cAudioManager17ProcessJumboAccelEP6CPlane
00000000001a8e58 T _ZN13cAudioManager18SetupJumboFlySoundEh
00000000001a8f38 T _ZN13cAudioManager19SetupJumboTaxiSoundEh
00000000001a9090 T _ZN13cAudioManager20SetupJumboWhineSoundEhj
00000000001a9164 T _ZN13cAudioManager21SetupJumboRumbleSoundEh
00000000001a9270 T _ZN13cAudioManager21SetupJumboEngineSoundEhj
00000000001a9364 T _ZN13cAudioManager16GetJumboTaxiFreqEv
00000000001a9394 T _ZN13cAudioManager18ProcessPedOneShotsER10cPedParams
00000000001aae10 T _ZN13cAudioManager19SetPedTalkingStatusEP4CPedh
00000000001aae1c T _ZN13cAudioManager14SetPlayersMoodEhj
00000000001aae50 T _ZN13cAudioManager19DebugPlayPedCommentEi
00000000001aaec8 T _ZN12cPedComments3AddEP11tPedComment
00000000001ab010 T _ZN13cAudioManager16GetPedCommentSfxEP4CPedt
00000000001abad4 T _ZN13cAudioManager16GetPlayerTalkSfxEP4CPedt
00000000001ac15c T _ZN13cAudioManager13GetCopTalkSfxEP4CPedt
00000000001ac554 T _ZN13cAudioManager14GetSwatTalkSfxEP4CPedt
00000000001ac680 T _ZN13cAudioManager13GetFBITalkSfxEP4CPedt
00000000001ac7c4 T _ZN13cAudioManager14GetArmyTalkSfxEP4CPedt
00000000001ac7c8 T _ZN13cAudioManager15GetMedicTalkSfxEP4CPedt
00000000001ac8e8 T _ZN13cAudioManager17GetFiremanTalkSfxEP4CPedt
00000000001ac8ec T _ZN13cAudioManager17GetDefaultTalkSfxEP4CPedt
00000000001acd50 T _ZN13cAudioManager15GetHFYSTTalkSfxEP4CPedt
00000000001ad0e0 T _ZN13cAudioManager15GetHFOSTTalkSfxEP4CPedt
00000000001ad44c T _ZN13cAudioManager15GetHMYSTTalkSfxEP4CPedt
00000000001ad6fc T _ZN13cAudioManager15GetHMOSTTalkSfxEP4CPedt
00000000001ada88 T _ZN13cAudioManager15GetHFYRITalkSfxEP4CPedt
00000000001add90 T _ZN13cAudioManager15GetHFORITalkSfxEP4CPedt
00000000001ae0d8 T _ZN13cAudioManager15GetHMYRITalkSfxEP4CPedt
00000000001ae430 T _ZN13cAudioManager15GetHMORITalkSfxEP4CPedt
00000000001ae7b4 T _ZN13cAudioManager15GetHFYBETalkSfxEP4CPedt
00000000001aea94 T _ZN13cAudioManager15GetHFOBETalkSfxEP4CPedt
00000000001aede4 T _ZN13cAudioManager15GetHMYBETalkSfxEP4CPedt
00000000001af150 T _ZN13cAudioManager15GetHMOBETalkSfxEP4CPedt
00000000001af3ac T _ZN13cAudioManager15GetHFYBUTalkSfxEP4CPedt
00000000001af6d4 T _ZN13cAudioManager15GetHFYMDTalkSfxEP4CPedt
00000000001af928 T _ZN13cAudioManager15GetHFYCGTalkSfxEP4CPedt
00000000001afb40 T _ZN13cAudioManager15GetHFYPRTalkSfxEP4CPedt
00000000001afe50 T _ZN13cAudioManager15GetHFOTRTalkSfxEP4CPedt
00000000001b00e4 T _ZN13cAudioManager15GetHMOTRTalkSfxEP4CPedt
00000000001b03b0 T _ZN13cAudioManager15GetHMYAPTalkSfxEP4CPedt
00000000001b07c8 T _ZN13cAudioManager15GetHMOCATalkSfxEP4CPedt
00000000001b0a94 T _ZN13cAudioManager15GetBMODKTalkSfxEP4CPedt
00000000001b0e68 T _ZN13cAudioManager15GetBMYCRTalkSfxEP4CPedt
00000000001b122c T _ZN13cAudioManager15GetBFYSTTalkSfxEP4CPedt
00000000001b156c T _ZN13cAudioManager15GetBFOSTTalkSfxEP4CPedt
00000000001b1870 T _ZN13cAudioManager15GetBMYSTTalkSfxEP4CPedt
00000000001b1b98 T _ZN13cAudioManager15GetBMOSTTalkSfxEP4CPedt
00000000001b1ef4 T _ZN13cAudioManager15GetBFYRITalkSfxEP4CPedt
00000000001b228c T _ZN13cAudioManager15GetBFORITalkSfxEP4CPedt
00000000001b25c4 T _ZN13cAudioManager15GetBMYRITalkSfxEP4CPedt
00000000001b2910 T _ZN13cAudioManager15GetBFYBETalkSfxEP4CPedt
00000000001b2cb0 T _ZN13cAudioManager15GetBMYBETalkSfxEP4CPedt
00000000001b2fb4 T _ZN13cAudioManager15GetBFOBETalkSfxEP4CPedt
00000000001b32dc T _ZN13cAudioManager15GetBMOBETalkSfxEP4CPedt
00000000001b3688 T _ZN13cAudioManager15GetBMYBUTalkSfxEP4CPedt
00000000001b39e4 T _ZN13cAudioManager15GetBFYPRTalkSfxEP4CPedt
00000000001b3d14 T _ZN13cAudioManager15GetBFOTRTalkSfxEP4CPedt
00000000001b4028 T _ZN13cAudioManager15GetBMOTRTalkSfxEP4CPedt
00000000001b4324 T _ZN13cAudioManager15GetBMYPITalkSfxEP4CPedt
00000000001b4628 T _ZN13cAudioManager15GetBMYBBTalkSfxEP4CPedt
00000000001b4b58 T _ZN13cAudioManager15GetWMYCRTalkSfxEP4CPedt
00000000001b4e74 T _ZN13cAudioManager15GetWFYSTTalkSfxEP4CPedt
00000000001b51bc T _ZN13cAudioManager15GetWFOSTTalkSfxEP4CPedt
00000000001b550c T _ZN13cAudioManager15GetWMYSTTalkSfxEP4CPedt
00000000001b58c8 T _ZN13cAudioManager15GetWMOSTTalkSfxEP4CPedt
00000000001b5c7c T _ZN13cAudioManager15GetWFYRITalkSfxEP4CPedt
00000000001b5fa8 T _ZN13cAudioManager15GetWFORITalkSfxEP4CPedt
00000000001b6320 T _ZN13cAudioManager15GetWMYRITalkSfxEP4CPedt
00000000001b6638 T _ZN13cAudioManager15GetWMORITalkSfxEP4CPedt
00000000001b69e0 T _ZN13cAudioManager15GetWFYBETalkSfxEP4CPedt
00000000001b6d40 T _ZN13cAudioManager15GetWMYBETalkSfxEP4CPedt
00000000001b7164 T _ZN13cAudioManager15GetWFOBETalkSfxEP4CPedt
00000000001b7518 T _ZN13cAudioManager15GetWMOBETalkSfxEP4CPedt
00000000001b78d8 T _ZN13cAudioManager15GetWMYCWTalkSfxEP4CPedt
00000000001b7c80 T _ZN13cAudioManager15GetWMYGOTalkSfxEP4CPedt
00000000001b8000 T _ZN13cAudioManager15GetWFOGOTalkSfxEP4CPedt
00000000001b836c T _ZN13cAudioManager15GetWMOGOTalkSfxEP4CPedt
00000000001b8694 T _ZN13cAudioManager15GetWFYLGTalkSfxEP4CPedt
00000000001b885c T _ZN13cAudioManager15GetWMYLGTalkSfxEP4CPedt
00000000001b8a2c T _ZN13cAudioManager15GetWFYBUTalkSfxEP4CPedt
00000000001b8c98 T _ZN13cAudioManager15GetWMYBUTalkSfxEP4CPedt
00000000001b909c T _ZN13cAudioManager15GetWMOBUTalkSfxEP4CPedt
00000000001b9480 T _ZN13cAudioManager15GetWFYPRTalkSfxEP4CPedt
00000000001b976c T _ZN13cAudioManager15GetWFOTRTalkSfxEP4CPedt
00000000001b9978 T _ZN13cAudioManager15GetWMOTRTalkSfxEP4CPedt
00000000001b9c5c T _ZN13cAudioManager15GetWMYPITalkSfxEP4CPedt
00000000001b9ff8 T _ZN13cAudioManager15GetWMOCATalkSfxEP4CPedt
00000000001ba310 T _ZN13cAudioManager15GetWFYJGTalkSfxEP4CPedt
00000000001ba468 T _ZN13cAudioManager15GetWMYJGTalkSfxEP4CPedt
00000000001ba64c T _ZN13cAudioManager15GetWFYSKTalkSfxEP4CPedt
00000000001ba8a0 T _ZN13cAudioManager15GetWMYSKTalkSfxEP4CPedt
00000000001bac08 T _ZN13cAudioManager15GetWFYSHTalkSfxEP4CPedt
00000000001baf10 T _ZN13cAudioManager15GetWFOSHTalkSfxEP4CPedt
00000000001bb1fc T _ZN13cAudioManager15GetJFOTOTalkSfxEP4CPedt
00000000001bb544 T _ZN13cAudioManager15GetJMOTOTalkSfxEP4CPedt
00000000001bb808 T _ZN13cAudioManager12GetCBTalkSfxEP4CPedt
00000000001bbbb8 T _ZN13cAudioManager12GetHNTalkSfxEP4CPedt
00000000001bbf88 T _ZN13cAudioManager12GetSGTalkSfxEP4CPedt
00000000001bc3d0 T _ZN13cAudioManager12GetCLTalkSfxEP4CPedt
00000000001bc7c0 T _ZN13cAudioManager12GetGDTalkSfxEP4CPedt
00000000001bca90 T _ZN13cAudioManager12GetBKTalkSfxEP4CPedt
00000000001bcdcc T _ZN13cAudioManager12GetPGTalkSfxEP4CPedt
00000000001bd1d8 T _ZN13cAudioManager19GetViceWhiteTalkSfxEP4CPedt
00000000001bd274 T _ZN13cAudioManager19GetViceBlackTalkSfxEP4CPedt
00000000001bd2e8 T _ZN13cAudioManager15GetWFYG1TalkSfxEP4CPedt
00000000001bd6ec T _ZN13cAudioManager15GetWFYG2TalkSfxEP4CPedt
00000000001bda2c T _ZN13cAudioManager26GetSpecialCharacterTalkSfxEP4CPedit
00000000001bda34 T _ZN13cAudioManager21GetGenericMaleTalkSfxEP4CPedt
00000000001bdba0 T _ZN13cAudioManager9GetPhraseERjS0_jj
00000000001bdbec T _ZN13cAudioManager23GetGenericFemaleTalkSfxEP4CPedt
00000000001bdd68 T _ZN12cPedComments7ProcessEv
00000000001be1e4 T _ZN13cAudioManager26ProcessOneShotScriptObjectEh
00000000001be980 T _ZN13cAudioManager26ProcessLoopingScriptObjectEh
00000000001bed38 T _Z19FindMissionAudioSfxPKc
00000000001bedc0 T _ZN13cAudioManager26GetMissionAudioLoadedLabelEh
00000000001bee24 T _ZN13cAudioManager35MissionScriptAudioUsesPoliceChannelEj
00000000001bee2c T _ZN13cAudioManager19PreloadMissionAudioEhPc
00000000001bef6c T _ZN13cAudioManager28GetMissionAudioLoadingStatusEh
00000000001bef98 T _ZN13cAudioManager23SetMissionAudioLocationEhfff
00000000001befd8 T _ZN13cAudioManager22PlayLoadedMissionAudioEh
00000000001bf040 T _ZN13cAudioManager22ShouldDuckMissionAudioEh
00000000001bf0b0 T _ZN13cAudioManager27IsMissionAudioSamplePlayingEh
00000000001bf10c T _ZN13cAudioManager28IsMissionAudioSampleFinishedEh
00000000001bf168 T _ZN13cAudioManager19ProcessMissionAudioEv
00000000001bf1dc T _ZN13cAudioManager23ProcessMissionAudioSlotEh
00000000001bf878 T _ZN13cAudioManagerC1Ev
00000000001bf878 T _ZN13cAudioManagerC2Ev
00000000001c0018 T _ZN13cAudioManager19ClearRequestedQueueEv
00000000001c0060 T _ZN13cAudioManager18ClearActiveSamplesEv
00000000001c0124 T _ZN13cAudioManager32GenerateIntegerRandomNumberTableEv
00000000001c01fc T _ZN13cAudioManagerD1Ev
00000000001c01fc T _ZN13cAudioManagerD2Ev
00000000001c0234 T _ZN13cAudioManager9TerminateEv
00000000001c030c T _ZN13cAudioManager10InitialiseEv
00000000001c0380 T _ZN13cAudioManager7ServiceEv
00000000001c04d8 T _ZN13cAudioManager19ServiceSoundEffectsEv
00000000001c089c T _ZN13cAudioManager12CreateEntityE10eAudioTypePv
00000000001c0938 T _ZN13cAudioManager13DestroyEntityEi
00000000001c09f0 T _ZN13cAudioManager15GetEntityStatusEi
00000000001c0a34 T _ZN13cAudioManager15SetEntityStatusEih
00000000001c0a70 T _ZN13cAudioManager11PlayOneShotEitf
00000000001c0c58 T _ZN13cAudioManager16GetEntityPointerEi
00000000001c0ca0 T _ZN13cAudioManager22SetEffectsMasterVolumeEh
00000000001c0cac T _ZN13cAudioManager20SetMusicMasterVolumeEh
00000000001c0cb8 T _ZN13cAudioManager17SetMP3BoostVolumeEh
00000000001c0cc4 T _ZN13cAudioManager17SetEffectsFadeVolEh
00000000001c0cd0 T _ZN13cAudioManager15SetMusicFadeVolEh
00000000001c0cdc T _ZN13cAudioManager13SetOutputModeEh
00000000001c0ce0 T _ZN13cAudioManager11ResetTimersEj
00000000001c0dec T _ZN13cAudioManager29DestroyAllGameCreatedEntitiesEv
00000000001c0f30 T _ZN13cAudioManager18IsAudioInitialisedEv
00000000001c0f38 T _ZN13cAudioManager24InterrogateAudioEntitiesEv
00000000001c0fb8 T _ZN13cAudioManager18AddReleasingSoundsEv
00000000001c11f8 T _ZN13cAudioManager19ProcessActiveQueuesEv
00000000001c1bfc T _ZN13cAudioManager13ComputeVolumeEhff
00000000001c1c68 T _ZN13cAudioManager15TranslateEntityEP7CVectorS1_
00000000001c1d6c T _ZN13cAudioManager19ComputeFrontRearMixEfP7CVector
00000000001c1ddc T _ZN13cAudioManager10ComputePanEfP7CVector
00000000001c1e5c T _ZN13cAudioManager31ComputeDopplerEffectedFrequencyEjfff
00000000001c1f24 T _ZN13cAudioManager18RandomDisplacementEj
00000000001c1f94 T _ZN13cAudioManager25AddSampleToRequestedQueueEv
00000000001c2170 T _ZN13cAudioManager30AddDetailsToRequestedOrderListEh
00000000001c2240 T _ZN13cAudioManager30AddReflectionsToRequestedQueueEv
00000000001c2544 T _ZN13cAudioManager17UpdateReflectionsEv
00000000001c2b4c T _ZN18cAudioScriptObjectC1Ev
00000000001c2b4c T _ZN18cAudioScriptObjectC2Ev
00000000001c2b68 T _ZN18cAudioScriptObject5ResetEv
00000000001c2b84 T _ZN18cAudioScriptObjectD1Ev
00000000001c2b84 T _ZN18cAudioScriptObjectD2Ev
00000000001c2ba0 T _ZN18cAudioScriptObjectnwEm
00000000001c2c2c T _ZN18cAudioScriptObjectnwEmi
00000000001c2c84 T _ZN18cAudioScriptObjectdlEPv
00000000001c2cc8 T _ZN18cAudioScriptObjectdlEPvi
00000000001c2d0c T _ZN18cAudioScriptObject25SaveAllAudioScriptObjectsEPhPj
00000000001c2e30 T _ZN18cAudioScriptObject25LoadAllAudioScriptObjectsEPhj
00000000001c2f68 T _Z23PlayOneShotScriptObjecthRK7CVector
00000000001c30a8 T _ZN8cDMAudio10InitialiseEv
00000000001c30b4 T _ZN8cDMAudio9TerminateEv
00000000001c30c0 T _ZN8cDMAudio7ServiceEv
00000000001c30cc T _ZN8cDMAudio12CreateEntityE10eAudioTypePv
00000000001c30d8 T _ZN8cDMAudio13DestroyEntityEi
00000000001c30e4 T _ZN8cDMAudio15GetEntityStatusEi
00000000001c30f0 T _ZN8cDMAudio15SetEntityStatusEih
00000000001c30fc T _ZN8cDMAudio11PlayOneShotEitf
00000000001c3108 T _ZN8cDMAudio29DestroyAllGameCreatedEntitiesEv
00000000001c3114 T _ZN8cDMAudio22SetEffectsMasterVolumeEh
00000000001c3130 T _ZN8cDMAudio20SetMusicMasterVolumeEh
00000000001c314c T _ZN8cDMAudio17SetMP3BoostVolumeEh
00000000001c3168 T _ZN8cDMAudio17SetEffectsFadeVolEh
00000000001c3184 T _ZN8cDMAudio15SetMusicFadeVolEh
00000000001c31a0 T _ZN8cDMAudio26GetNum3DProvidersAvailableEv
00000000001c31a8 T _ZN8cDMAudio17Get3DProviderNameEh
00000000001c31b4 T _ZN8cDMAudio25GetCurrent3DProviderIndexEv
00000000001c31bc T _ZN8cDMAudio21AutoDetect3DProvidersEv
00000000001c31c4 T _ZN8cDMAudio20SetCurrent3DProviderEh
00000000001c31cc T _ZN8cDMAudio16SetSpeakerConfigEi
00000000001c31d0 T _ZN8cDMAudio26IsMP3RadioChannelAvailableEv
00000000001c31dc T _ZN8cDMAudio20ReleaseDigitalHandleEv
00000000001c31e0 T _ZN8cDMAudio22ReacquireDigitalHandleEv
00000000001c31e4 T _ZN8cDMAudio32SetDynamicAcousticModelingStatusEh
00000000001c31e8 T _ZN8cDMAudio23CheckForAnAudioFileOnCDEv
00000000001c31f0 T _ZN8cDMAudio21GetCDAudioDriveLetterEv
00000000001c31f8 T _ZN8cDMAudio18IsAudioInitialisedEv
00000000001c3200 T _ZN8cDMAudio11ReportCrimeE10eCrimeTypeRK7CVector
00000000001c320c T _ZN8cDMAudio16ResetPoliceRadioEv
00000000001c3218 T _ZN8cDMAudio25CreateLoopingScriptObjectEP18cAudioScriptObject
00000000001c3264 T _ZN8cDMAudio26DestroyLoopingScriptObjectEi
00000000001c3270 T _ZN8cDMAudio25CreateOneShotScriptObjectEP18cAudioScriptObject
00000000001c32e8 T _ZN8cDMAudio19PlaySuspectLastSeenEfff
00000000001c32f4 T _ZN8cDMAudio15ReportCollisionEP7CEntityS1_hhff
00000000001c3300 T _ZN8cDMAudio17PlayFrontEndSoundEtj
00000000001c3320 T _ZN8cDMAudio21PlayRadioAnnouncementEj
00000000001c332c T _ZN8cDMAudio17PlayFrontEndTrackEjh
00000000001c3338 T _ZN8cDMAudio17StopFrontEndTrackEv
00000000001c3344 T _ZN8cDMAudio11ResetTimersEj
00000000001c3350 T _ZN8cDMAudio15ChangeMusicModeEh
00000000001c335c T _ZN8cDMAudio20PreloadCutSceneMusicEj
00000000001c3368 T _ZN8cDMAudio26PlayPreloadedCutSceneMusicEv
00000000001c3374 T _ZN8cDMAudio17StopCutSceneMusicEv
00000000001c3380 T _ZN8cDMAudio19PreloadMissionAudioEhPc
00000000001c338c T _ZN8cDMAudio28GetMissionAudioLoadingStatusEh
00000000001c3398 T _ZN8cDMAudio23SetMissionAudioLocationEhfff
00000000001c33a4 T _ZN8cDMAudio22PlayLoadedMissionAudioEh
00000000001c33b0 T _ZN8cDMAudio28IsMissionAudioSampleFinishedEh
00000000001c33bc T _ZN8cDMAudio27IsMissionAudioSamplePlayingEh
00000000001c33c8 T _ZN8cDMAudio17ClearMissionAudioEh
00000000001c33d4 T _ZN8cDMAudio26GetMissionAudioLoadedLabelEh
00000000001c33e0 T _ZN8cDMAudio13SetOutputModeEh
00000000001c33ec T _ZN8cDMAudio13GetRadioInCarEv
00000000001c33f8 T _ZN8cDMAudio13SetRadioInCarEj
00000000001c3404 T _ZN8cDMAudio15SetRadioChannelEji
00000000001c3410 T _ZN8cDMAudio25SetStartingTrackPositionsEh
00000000001c341c T _ZN8cDMAudio18GetListenTimeArrayEv
00000000001c3428 T _ZN8cDMAudio24GetFavouriteRadioStationEv
00000000001c3434 T _ZN8cDMAudio16GetRadioPositionEj
00000000001c3440 T _ZN8cDMAudio19SetPedTalkingStatusEP4CPedh
00000000001c344c T _ZN8cDMAudio14SetPlayersMoodEhj
00000000001c3458 T _ZN8cDMAudio19ShutUpPlayerTalkingEh
00000000001c346c T _Z23EAX3ListenerInterpolateP22_EAXLISTENERPROPERTIESS0_fS0_b
00000000001c3aa0 T _Z11CheckEAX3LPP22_EAXLISTENERPROPERTIES
00000000001c3d64 T _Z5ClampP10_EAXVECTOR
00000000001c3da4 T _ZN13cMusicManagerC1Ev
00000000001c3da4 T _ZN13cMusicManagerC2Ev
00000000001c3e08 T _ZN13cMusicManagerD1Ev
00000000001c3e08 T _ZN13cMusicManagerD2Ev
00000000001c3e0c T _ZN13cMusicManager21ResetMusicAfterReloadEv
00000000001c4050 T _ZN13cMusicManager25SetStartingTrackPositionsEh
00000000001c4178 T _ZN13cMusicManager10InitialiseEv
00000000001c421c T _ZN13cMusicManager9TerminateEv
00000000001c426c T _ZN13cMusicManager23SetRadioChannelByScriptEji
00000000001c42c4 T _ZN13cMusicManager13GetRadioInCarEv
00000000001c442c T _ZN13cMusicManager11PlayerInCarEv
00000000001c4494 T _ZN13cMusicManager15UsesPoliceRadioEP8CVehicle
00000000001c4510 T _ZN13cMusicManager13UsesTaxiRadioEP8CVehicle
00000000001c4530 T _ZN13cMusicManager13SetRadioInCarEj
00000000001c4654 T _ZN13cMusicManager15ChangeMusicModeEh
00000000001c47cc T _ZN13cMusicManager16RecordRadioStatsEv
00000000001c480c T _ZN13cMusicManager11ResetTimersEj
00000000001c4820 T _ZN13cMusicManager7ServiceEv
00000000001c4a78 T _ZN13cMusicManager19ServiceFrontEndModeEv
00000000001c4e28 T _ZN13cMusicManager15ServiceGameModeEv
00000000001c54ec T _ZN13cMusicManager16GetTrackStartPosEj
00000000001c5558 T _ZN13cMusicManager18SetStartListenTimeEj
00000000001c5578 T _ZN13cMusicManager19ServiceAnnouncementEv
00000000001c5700 T _ZN13cMusicManager12GetCarTuningEv
00000000001c5828 T _ZN13cMusicManager16GetNextCarTuningEv
00000000001c5990 T _ZN13cMusicManager25SetUpCorrectAmbienceTrackEv
00000000001c5b8c T _ZN13cMusicManager12ServiceTrackEP8CVehicleP4CPed
00000000001c62d0 T _ZN13cMusicManager15ServiceAmbienceEv
00000000001c62d4 T _Z14GetHeightScalev
00000000001c6320 T _ZN13cMusicManager18ComputeAmbienceVolEhRh
00000000001c65dc T _ZN13cMusicManager18ChangeRadioChannelEv
00000000001c65e4 T _ZN13cMusicManager20PreloadCutSceneMusicEj
00000000001c66b4 T _ZN13cMusicManager26PlayPreloadedCutSceneMusicEv
00000000001c66ec T _ZN13cMusicManager17StopCutSceneMusicEv
00000000001c6748 T _ZN13cMusicManager17PlayFrontEndTrackEjh
00000000001c679c T _ZN13cMusicManager17StopFrontEndTrackEv
00000000001c67c0 T _ZN13cMusicManager7DisableEv
00000000001c67c4 T _ZN13cMusicManager6EnableEv
00000000001c67c8 T _ZN13cMusicManager16PlayAnnouncementEj
00000000001c67ec T _ZN13cMusicManager18SetTrackInfoLengthEii
00000000001c6804 T _ZN13cMusicManager18GetListenTimeArrayEv
00000000001c6810 T _ZN13cMusicManager16GetRadioPositionEj
00000000001c6884 T _ZN13cMusicManager24GetFavouriteRadioStationEv
00000000001c6938 T _ZN13cMusicManager26CheckForMusicInterruptionsEv
00000000001c6950 T _ZN13cMusicManager21SetMalibuClubTrackPosEh
00000000001c6a08 T _ZN13cMusicManager20SetStripClubTrackPosEh
00000000001c6ab4 T _ZN13cMusicManager23DisplayRadioStationNameEv
00000000001c6f44 T _ZN6CWavesC1Ev
00000000001c6f44 T _ZN6CWavesC2Ev
00000000001c6f60 T _ZN6CWavesD1Ev
00000000001c6f60 T _ZN6CWavesD2Ev
00000000001c6fe4 T _ZN6CWavesD0Ev
00000000001c7008 T _ZN6CWaves12LoadWaveFileEPKcPi
00000000001c7108 T _ZN6CWaves9ParseFileEPKcP12WAVEFILEINFO
00000000001c73e8 T _ZN6CWaves12OpenWaveFileEPKcPi
00000000001c7480 T _ZN6CWaves12ReadWaveDataEiPvmPm
00000000001c7538 T _ZN6CWaves8IsWaveIDEi
00000000001c755c T _ZN6CWaves17SetWaveDataOffsetEim
00000000001c75a8 T _ZN6CWaves17GetWaveDataOffsetEiPm
00000000001c761c T _ZN6CWaves14DeleteWaveFileEi
00000000001c7690 T _ZN6CWaves11GetWaveTypeEiP12WAVEFILETYPE
00000000001c76c8 T _ZN6CWaves21GetWaveFormatExHeaderEiP13tWAVEFORMATEX
00000000001c7708 T _ZN6CWaves29GetWaveFormatExtensibleHeaderEiP20WAVEFORMATEXTENSIBLE
00000000001c7768 T _ZN6CWaves11GetWaveDataEiPPv
00000000001c77a0 T _ZN6CWaves11GetWaveSizeEiPm
00000000001c77d8 T _ZN6CWaves16GetWaveFrequencyEiPm
00000000001c7810 T _ZN6CWaves21GetWaveALBufferFormatEiPm
00000000001c7a7c T _ZN6CWaves14GetErrorStringE10WAVERESULT
00000000001c7aa8 T _Z16PreloadSoundBankP7tSampleh
00000000001c7b98 T _ZN14cSampleManagerC1Ev
00000000001c7b98 T _ZN14cSampleManagerC2Ev
00000000001c7b9c T _ZN14cSampleManagerD1Ev
00000000001c7b9c T _ZN14cSampleManagerD2Ev
00000000001c7bf8 T _ZN14cSampleManager10InitialiseEv
00000000001c8070 T _ZN14cSampleManager21InitialiseSampleBanksEv
00000000001c8194 T _ZN14cSampleManager9TerminateEv
00000000001c81c8 T _ZN14cSampleManager14LoadSampleBankEh
00000000001c82b4 T _ZN14cSampleManager18UpdateSoundBuffersEv
00000000001c838c T _ZN14cSampleManager22SetEffectsMasterVolumeEh
00000000001c839c T _ZN14cSampleManager20SetMusicMasterVolumeEh
00000000001c83a4 T _ZN14cSampleManager17SetMP3BoostVolumeEh
00000000001c83b4 T _ZN14cSampleManager20SetEffectsFadeVolumeEh
00000000001c83c4 T _ZN14cSampleManager18SetMusicFadeVolumeEh
00000000001c83d4 T _ZN14cSampleManager16UnloadSampleBankEh
00000000001c83d8 T _ZN14cSampleManager18IsSampleBankLoadedEh
00000000001c83e0 T _ZN14cSampleManager18IsPedCommentLoadedEj
00000000001c843c T _ZN14cSampleManager14LoadPedCommentEj
00000000001c8588 T _ZN14cSampleManager22GetBankContainingSoundEj
00000000001c85ac T _ZN14cSampleManager22GetSampleBaseFrequencyEj
00000000001c85bc T _ZN14cSampleManager24GetSampleLoopStartOffsetEj
00000000001c85cc T _ZN14cSampleManager22GetSampleLoopEndOffsetEj
00000000001c85dc T _ZN14cSampleManager15GetSampleLengthEj
00000000001c85f0 T _ZN14cSampleManager20SetChannelReverbFlagEjh
00000000001c85f4 T _ZN14cSampleManager17InitialiseChannelEjjh
00000000001c88c8 T _ZN14cSampleManager24SetChannelEmittingVolumeEjj
00000000001c8958 T _ZN14cSampleManager20SetChannel3DPositionEjfff
00000000001c8994 T _ZN14cSampleManager21SetChannel3DDistancesEjff
00000000001c8a2c T _ZN14cSampleManager16SetChannelVolumeEjj
00000000001c8abc T _ZN14cSampleManager13SetChannelPanEjj
00000000001c8ac0 T _ZN14cSampleManager19SetChannelFrequencyEjj
00000000001c8b24 T _ZN14cSampleManager20SetChannelLoopPointsEjji
00000000001c8b28 T _ZN14cSampleManager19SetChannelLoopCountEjj
00000000001c8b4c T _ZN14cSampleManager18GetChannelUsedFlagEj
00000000001c8c2c T _ZN14cSampleManager12StartChannelEj
00000000001c8c60 T _ZN14cSampleManager11StopChannelEj
00000000001c8cc0 T _ZN14cSampleManager19PreloadStreamedFileEjh
00000000001c8dd4 W _ZN9MP3StreamC2EPKci
00000000001c8ee4 T _ZN14cSampleManager11PauseStreamEhh
00000000001c8f54 T _ZN14cSampleManager23SetStreamedFileLoopFlagEhh
00000000001c8f74 T _ZN14cSampleManager26StartPreloadedStreamedFileEhi
00000000001c8fc8 W _ZN9MP3Stream10InitializeEv
00000000001c913c W _ZN9MP3Stream5StartEi
00000000001c92f4 T _ZN14cSampleManager17StartStreamedFileEjjh
00000000001c949c T _ZN14cSampleManager16StopStreamedFileEh
00000000001c94f0 T _ZN14cSampleManager23GetStreamedFilePositionEh
00000000001c9538 T _ZN14cSampleManager23SetStreamedVolumeAndPanEhhhh
00000000001c9604 T _ZN14cSampleManager21GetStreamedFileLengthEj
00000000001c9614 T _ZN14cSampleManager15IsStreamPlayingEh
00000000001c96a8 T _ZN14cSampleManager7ServiceEv
00000000001c97ec W _ZN9MP3Stream6UpdateEv
00000000001c991c T _ZN14cSampleManager26IsMP3RadioChannelAvailableEv
00000000001c9934 W _ZN9MP3Stream6DeleteEv
00000000001c9a28 W _ZN9MP3Stream10FillBufferEj
00000000001c9ca0 T _ZN13cAudioManager26InitialisePoliceRadioZonesEv
00000000001c9e64 T _ZN13cAudioManager21InitialisePoliceRadioEv
00000000001c9ef4 T _ZN13cAudioManager16ResetPoliceRadioEv
00000000001c9fb4 T _ZN13cAudioManager27SetMissionScriptPoliceAudioEj
00000000001c9fe4 T _ZN13cAudioManager40GetMissionScriptPoliceAudioPlayingStatusEv
00000000001c9ff4 T _ZN13cAudioManager20DoPoliceRadioCrackleEv
00000000001ca0c4 T _ZN13cAudioManager18ServicePoliceRadioEv
00000000001ca1a4 T _ZN13cAudioManager16SetupCrimeReportEv
00000000001ca7d8 T _ZN13cAudioManager26SetupSuspectLastSeenReportEv
00000000001cacd0 T _ZN13cAudioManager25ServicePoliceRadioChannelEh
00000000001cb2b0 T _ZN13cAudioManager9AgeCrimesEv
00000000001cb428 T _ZN13cAudioManager11ReportCrimeE10eCrimeTypeRK7CVector
00000000001cb630 T _ZN13cAudioManager19PlaySuspectLastSeenEfff
00000000001cbb3c T _ZN9CBuildingC1Ev
00000000001cbb3c T _ZN9CBuildingC2Ev
00000000001cbb80 T _ZN9CBuildingD1Ev
00000000001cbb80 T _ZN9CBuildingD2Ev
00000000001cbb84 T _ZN9CBuildingD0Ev
00000000001cbbdc T _ZN9CBuildingdlEPv
00000000001cbc18 T _ZN9CBuildingnwEm
00000000001cbc9c T _ZN9CBuilding19ReplaceWithNewModelEi
00000000001cbd20 T _Z22IsBuildingPointerValidP9CBuilding
00000000001cbda0 W _ZN7CEntity14ProcessControlEv
00000000001cbda4 W _ZN7CEntity16ProcessCollisionEv
00000000001cbda8 W _ZN7CEntity12ProcessShiftEv
00000000001cbdac W _ZN7CEntity8TeleportE7CVector
00000000001cbdb0 W _ZN7CEntity30FlagToDestroyWhenNextProcessedEv
00000000001cbdb4 W _ZN9CBuilding15GetIsATreadableEv
00000000001cbdbc T _ZN6CSolidC1Ev
00000000001cbdbc T _ZN6CSolidC2Ev
00000000001cbe00 T _ZN6CSolidD1Ev
00000000001cbe00 T _ZN6CSolidD2Ev
00000000001cbe04 T _ZN6CSolidD0Ev
00000000001cbe28 T _ZN10CTreadableC1Ev
00000000001cbe28 T _ZN10CTreadableC2Ev
00000000001cbe58 T _ZN10CTreadableD1Ev
00000000001cbe58 T _ZN10CTreadableD2Ev
00000000001cbe5c T _ZN10CTreadableD0Ev
00000000001cbeb4 T _ZN10CTreadabledlEPv
00000000001cbef0 T _ZN10CTreadablenwEm
00000000001cbf74 W _ZN10CTreadable15GetIsATreadableEv
00000000001cbf7c T _ZN4CBox3SetERK7CVectorS2_
00000000001cbfa0 T _ZN7CColBox3SetERK7CVectorS2_hh
00000000001cbfcc T _ZN7CColBoxaSERKS_
00000000001cbff8 T _ZN8CColLineC1ERK7CVectorS2_
00000000001cbff8 T _ZN8CColLineC2ERK7CVectorS2_
00000000001cc030 T _ZN8CColLine3SetERK7CVectorS2_
00000000001cc054 T _ZN10CCollision4InitEv
00000000001cc0c8 T _ZN10CCollision8ShutdownEv
00000000001cc0f8 T _ZN10CCollision6UpdateEv
00000000001cc0fc T _Z24GetCollisionInSectorListR8CPtrList
00000000001cc134 T _Z20GetCollisionInSectorR7CSector
00000000001cc264 T _ZN10CCollision24LoadCollisionWhenINeedItEb
00000000001cc268 T _ZN10CCollision25SortOutCollisionAfterLoadEv
00000000001cc2c8 T _ZN10CCollision23CalculateTrianglePlanesEP9CColModel
00000000001cc404 T _ZN10CCollision20RemoveTrianglePlanesEP9CColModel
00000000001cc468 T _ZN10CCollision16TestSphereSphereERK10CColSphereS2_
00000000001cc4a8 T _ZN10CCollision19ProcessSphereSphereERK10CColSphereS2_R9CColPointRf
00000000001cc5dc T _ZN10CCollision13TestSphereBoxERK7CSphereRK4CBox
00000000001cc684 T _ZN10CCollision16ProcessSphereBoxERK10CColSphereRK7CColBoxR9CColPointRf
00000000001ccb4c T _ZN10CCollision18TestSphereTriangleERK10CColSpherePK16CompressedVectorRK12CColTriangleRK17CColTrianglePlane
00000000001cce88 T _ZN10CCollision21ProcessSphereTriangleERK10CColSpherePK16CompressedVectorRK12CColTriangleRK17CColTrianglePlaneR9CColPointRf
00000000001cd2f0 T _ZN10CCollision14TestLineSphereERK8CColLineRK10CColSphere
00000000001cd3cc T _ZN10CCollision10DistToLineEPK7CVectorS2_S2_
00000000001cd480 T _ZN10CCollision17ProcessLineSphereERK8CColLineRK10CColSphereR9CColPointRf
00000000001cd5e0 T _ZN10CCollision11TestLineBoxERK8CColLineRK4CBox
00000000001cd8b4 T _ZN10CCollision19TestVerticalLineBoxERK8CColLineRK4CBox
00000000001cd928 T _ZN10CCollision14ProcessLineBoxERK8CColLineRK7CColBoxR9CColPointRf
00000000001cdc1c T _ZN10CCollision16TestLineTriangleERK8CColLinePK16CompressedVectorRK12CColTriangleRK17CColTrianglePlane
00000000001cde40 T _ZN10CCollision19ProcessLineTriangleERK8CColLinePK16CompressedVectorRK12CColTriangleRK17CColTrianglePlaneR9CColPointRfP15CStoredCollPoly
00000000001ce110 T _ZN10CCollision29TestPillWithSpheresInColModelERK8CColLinefRK7CMatrixR9CColModel
00000000001ce338 T _ZN10CCollision15TestLineOfSightERK8CColLineRK7CMatrixR9CColModelbb
00000000001ce6c4 T _ZN10CCollision18ProcessLineOfSightERK8CColLineRK7CMatrixR9CColModelR9CColPointRfbb
00000000001cea4c T _ZN10CCollision27ProcessVerticalLineTriangleERK8CColLinePK16CompressedVectorRK12CColTriangleRK17CColTrianglePlaneR9CColPointRfP15CStoredCollPoly
00000000001ced1c T _ZN10CCollision19ProcessVerticalLineERK8CColLineRK7CMatrixR9CColModelR9CColPointRfbbP15CStoredCollPoly
00000000001cf0b8 T _ZN10CCollision34IsStoredPolyStillValidVerticalLineERK7CVectorfR9CColPointP15CStoredCollPoly
00000000001cf428 T _ZN10CCollision16ProcessColModelsERK7CMatrixR9CColModelS2_S4_P9CColPointS6_Pf
00000000001d0120 T _ZN9CColModelC1Ev
00000000001d0120 T _ZN9CColModelC2Ev
00000000001d0148 T _ZN9CColModelD1Ev
00000000001d0148 T _ZN9CColModelD2Ev
00000000001d01fc T _ZN9CColModel22RemoveCollisionVolumesEv
00000000001d02ac T _ZN9CColModelnwEm
00000000001d0338 T _ZN9CColModeldlEPv
00000000001d0384 T _ZN9CColModelaSERKS_
00000000001d0838 T _ZNK9CColModel16GetTrianglePointER7CVectori
00000000001d0878 T _ZN9CColModel23CalculateTrianglePlanesEv
00000000001d0908 T _ZN9CColModel20RemoveTrianglePlanesEv
00000000001d0944 T _ZN9CColModel10SetLinkPtrEP5CLinkIPS_E
00000000001d0968 T _ZN9CColModel10GetLinkPtrEv
00000000001d098c T _ZN9CColPointaSERKS_
00000000001d09c0 T _ZN7CSphere3SetEfRK7CVector
00000000001d09d8 T _ZN10CColSphere3SetEfRK7CVectorhh
00000000001d09f8 T _ZNK10CColSphere12IntersectRayERK7CVectorS2_RS0_S3_
00000000001d0b10 T _ZN9CColStore10InitialiseEv
00000000001d0c64 T _ZN9CColStore10AddColSlotEPKc
00000000001d0d4c T _ZN9CColStore8ShutdownEv
00000000001d0df8 T _ZN9CColStore13RemoveColSlotEi
00000000001d0f14 T _ZN9CColStore9RemoveColEi
00000000001d0fb0 T _ZN9CColStore10GetColNameEi
00000000001d0ff0 T _ZN9CColStore11FindColSlotEPKc
00000000001d10a8 T _ZN9CColStore7LoadColEiPKc
00000000001d110c T _ZN9CColStore7LoadColEiPhi
00000000001d1198 T _ZN9CColStore14GetBoundingBoxEi
00000000001d11d8 T _ZN9CColStore17IncludeModelIndexEii
00000000001d1230 T _ZN9CColStore24AddCollisionNeededAtPosnERK9CVector2D
00000000001d1254 T _ZN9CColStore13LoadCollisionERK9CVector2D
00000000001d153c T _ZN9CColStore25EnsureCollisionIsInMemoryERK9CVector2D
00000000001d16b4 T _ZN9CColStore16RequestCollisionERK9CVector2D
00000000001d17ac T _ZN9CColStore18HasCollisionLoadedERK9CVector2D
00000000001d1870 T _ZN9CColStore18RemoveAllCollisionEv
00000000001d190c T _ZN9CColStore20LoadAllBoundingBoxesEv
00000000001d19f0 T _ZN9CColStore16LoadAllCollisionEv
00000000001d1a6c T _ZN17CColTrianglePlane3SetEPK16CompressedVectorR12CColTriangle
00000000001d2028 T _ZN14CTempColModels10InitialiseEv
00000000001d29c8 T _ZN10CAutoPilot11ModifySpeedEf
00000000001d2b9c T _ZN10CAutoPilot17RemoveOnePathNodeEv
00000000001d2bd8 T _ZN7CBridge4InitEv
00000000001d2bdc T _ZN7CBridge6UpdateEv
00000000001d2be0 T _ZN7CBridge22ShouldLightsBeFlashingEv
00000000001d2be8 T _ZN7CBridge18FindBridgeEntitiesEv
00000000001d2bec T _ZN7CBridge27ThisIsABridgeObjectMovingUpEj
00000000001d2bf4 T _ZN6CCarAI23FindSwitchDistanceCloseEP8CVehicle
00000000001d2c00 T _ZN6CCarAI21FindSwitchDistanceFarEP8CVehicle
00000000001d2c34 T _ZN6CCarAI29BackToCruisingIfNoWantedLevelEP8CVehicle
00000000001d2cc0 T _ZN6CCarAI11UpdateCarAIEP8CVehicle
00000000001d4004 T _ZN6CCarAI32FindPoliceCarSpeedForWantedLevelEP8CVehicle
00000000001d4154 T _ZN6CCarAI23TellOccupantsToLeaveCarEP8CVehicle
00000000001d4248 T _ZN6CCarAI19MellowOutChaseSpeedEP8CVehicle
00000000001d4434 T _ZN6CCarAI23MellowOutChaseSpeedBoatEP8CVehicle
00000000001d4484 T _ZN6CCarAI35FindPoliceBoatMissionForWantedLevelEv
00000000001d44c4 T _ZN6CCarAI34FindPoliceCarMissionForWantedLevelEv
00000000001d45cc T _ZN6CCarAI18CarHasReasonToStopEP8CVehicle
00000000001d45e0 T _ZN6CCarAI17GetCarToGoToCoorsEP8CVehicleP7CVector
00000000001d46ec T _ZN6CCarAI19GetCarToParkAtCoorsEP8CVehicleP7CVector
00000000001d4744 T _ZN6CCarAI21AddPoliceCarOccupantsEP8CVehicle
00000000001d48b4 T _ZN6CCarAI21AddAmbulanceOccupantsEP8CVehicle
00000000001d48dc T _ZN6CCarAI21AddFiretruckOccupantsEP8CVehicle
00000000001d4904 T _ZN6CCarAI22TellOccupantsToFleeCarEP8CVehicle
00000000001d4a04 T _ZN6CCarAI20TellCarToRamOtherCarEP8CVehicleS1_
00000000001d4a60 T _ZN6CCarAI22TellCarToBlockOtherCarEP8CVehicleS1_
00000000001d4abc T _ZN6CCarAI22MakeWayForCarWithSirenEP8CVehicle
00000000001d4cd0 T _ZN8CCarCtrl4InitEv
00000000001d4dd4 T _ZN8CCarCtrl6ReInitEv
00000000001d4e6c T _ZN8CCarCtrl18GenerateRandomCarsEv
00000000001d4f30 T _ZN8CCarCtrl20GenerateOneRandomCarEv
00000000001d68c0 T _ZN8CCarCtrl28GenerateEmergencyServicesCarEv
00000000001d6bf0 T _ZN8CCarCtrl20ChoosePoliceCarModelEv
00000000001d6e20 T _ZN8CCarCtrl11ChooseModelEP9CZoneInfoPi
00000000001d71c0 T _ZN8CCarCtrl16ChooseBoatRatingEP9CZoneInfo
00000000001d7228 T _ZN8CCarCtrl15ChooseBoatModelEi
00000000001d7308 T _ZN8CCarCtrl16BoatWithTallMastEj
00000000001d7330 T _ZN8CCarCtrl15ChooseCarRatingEP9CZoneInfo
00000000001d7424 T _ZN8CCarCtrl18ChooseGangCarModelEi
00000000001d7484 T _ZN8CCarCtrl14ChooseCarModelEi
00000000001d7564 T _ZN8CCarCtrl20ChooseCarModelToLoadEi
00000000001d75e0 T _ZN8CCarCtrl17AddToVehicleArrayEii
00000000001d7614 T _ZN8CCarCtrl23AddToLoadedVehicleArrayEiii
00000000001d7678 T _ZN8CCarCtrl28RemoveFromLoadedVehicleArrayEii
00000000001d7744 T _ZN8CCarCtrl17RemoveDistantCarsEv
00000000001d7844 T _ZN8CCarCtrl21PossiblyRemoveVehicleEP8CVehicle
00000000001d7ca8 T _ZN8CCarCtrl27RemoveCarsIfThePoolGetsFullEv
00000000001d7fd8 T _ZN8CCarCtrl24IsThisVehicleInterestingEP8CVehicle
00000000001d7ff4 T _ZN8CCarCtrl15CountCarsOfTypeEi
00000000001d8064 T _ZN8CCarCtrl16UpdateCarOnRailsEP8CVehicle
00000000001d838c T _ZN8CCarCtrl37SlowCarOnRailsDownForTrafficAndLightsEP8CVehicle
00000000001d846c T _ZN8CCarCtrl29PickNextNodeAccordingStrategyEP8CVehicle
00000000001d8578 T _ZN8CCarCtrl14DragCarToPointEP8CVehicleP7CVector
00000000001d8890 T _ZN8CCarCtrl35FindMaximumSpeedForThisCarInTrafficEP8CVehicle
00000000001d8c48 T _ZN8CCarCtrl28SlowCarDownForCarsSectorListER8CPtrListP8CVehicleffffPff
00000000001d8d48 T _ZN8CCarCtrl28SlowCarDownForPedsSectorListER8CPtrListP8CVehicleffffPff
00000000001d93f0 T _ZN8CCarCtrl16ScanForPedDangerEP8CVehicle
00000000001d95e8 T _ZN8CCarCtrl22SlowCarDownForOtherCarEP7CEntityP8CVehiclePff
00000000001d989c T _ZN8CCarCtrl32TestCollisionBetween2MovingRectsEP8CVehicleS1_ffP7CVectorS3_h
00000000001d9b38 T _ZN8CCarCtrl26SwitchVehicleToRealPhysicsEP8CVehicle
00000000001d9b58 T _ZN8CCarCtrl30FindAngleToWeaveThroughTrafficEP8CVehicleP9CPhysicalff
00000000001da2cc T _ZN8CCarCtrl26WeaveThroughCarsSectorListER8CPtrListP8CVehicleP9CPhysicalffffPfS6_
00000000001da424 T _ZN8CCarCtrl26WeaveThroughPedsSectorListER8CPtrListP8CVehicleP9CPhysicalffffPfS6_
00000000001da560 T _ZN8CCarCtrl29WeaveThroughObjectsSectorListER8CPtrListP8CVehicleffffPfS4_
00000000001da684 W _ZN8CCarCtrl16WeaveForOtherCarEP7CEntityP8CVehiclePfS4_
00000000001da9cc W _ZN8CCarCtrl11WeaveForPedEP7CEntityP8CVehiclePfS4_
00000000001dac24 W _ZN8CCarCtrl14WeaveForObjectEP7CEntityP8CVehiclePfS4_
00000000001db048 T _ZN8CCarCtrl22PickNextNodeToChaseCarEP8CVehicleffS1_
00000000001db738 T _ZN8CCarCtrl24PickNextNodeToFollowPathEP8CVehicle
00000000001dbbc4 T _ZN8CCarCtrl20PickNextNodeRandomlyEP8CVehicle
00000000001dc4e0 T _ZN8CCarCtrl17FindPathDirectionEiii
00000000001dc5c8 T _ZN8CCarCtrl23ThisRoadObjectCouldMoveEj
00000000001dc5d0 T _ZN8CCarCtrl19FindSpeedMultiplierEffff
00000000001dc680 T _ZN8CCarCtrl21SteerAICarWithPhysicsEP8CVehicle
00000000001dc9e8 T _ZN8CCarCtrl33SteerAICarWithPhysics_OnlyMissionEP8CVehiclePfS2_S2_Pb
00000000001dcf70 T _ZN8CCarCtrl37SteerAICarWithPhysicsHeadingForTargetEP8CVehicleP9CPhysicalffPfS4_S4_Pb
00000000001dd2c0 T _ZN8CCarCtrl40SteerAICarWithPhysicsTryingToBlockTargetEP8CVehicleffffPfS2_S2_Pb
00000000001dd388 T _ZN8CCarCtrl45SteerAICarWithPhysicsTryingToBlockTarget_StopEP8CVehicleffffPfS2_S2_Pb
00000000001dd564 T _ZN8CCarCtrl31SteerAICarWithPhysicsFollowPathEP8CVehiclePfS2_S2_Pb
00000000001dde48 T _ZN8CCarCtrl29SteerAIHeliTowardsTargetCoorsEP11CAutomobile
00000000001de2e4 T _ZN8CCarCtrl30SteerAIPlaneTowardsTargetCoorsEP11CAutomobile
00000000001de640 T _ZN8CCarCtrl38SteerAIBoatWithPhysicsHeadingForTargetEP8CVehicleffPfS2_S2_
00000000001de7e8 T _ZN8CCarCtrl37SteerAIBoatWithPhysicsAttackingPlayerEP8CVehiclePfS2_S2_Pb
00000000001dea54 T _ZN8CCarCtrl38SteerAICarBlockingPlayerForwardAndBackEP8CVehiclePfS2_S2_Pb
00000000001dec74 T _ZN8CCarCtrl17FindMaxSteerAngleEP8CVehicle
00000000001dec94 T _ZN8CCarCtrl25RegisterVehicleOfInterestEP8CVehicle
00000000001ded08 T _ZN8CCarCtrl32RemoveFromInterestingVehicleListEP8CVehicle
00000000001ded38 T _ZN8CCarCtrl27ClearInterestingVehicleListEv
00000000001ded48 T _ZN8CCarCtrl20IsThisVehicleOnRadarEP8CVehiclePi
00000000001ded7c T _ZN8CCarCtrl21JoinCarWithRoadSystemEP8CVehicle
00000000001deee8 T _ZN8CCarCtrl27FindLinksToGoWithTheseNodesEP8CVehicle
00000000001df288 T _ZN8CCarCtrl30JoinCarWithRoadSystemGotoCoorsEP8CVehicle7CVectorb
00000000001df3a4 T _ZN8CCarCtrl31GenerateOneEmergencyServicesCarEj7CVector
00000000001df824 T _ZN8CCarCtrl14UpdateCarCountEP8CVehicleh
00000000001df94c T _ZN8CCarCtrl22MapCouldMoveInThisAreaEff
00000000001df998 T _ZN7CCurves10TestCurvesEv
00000000001df99c T _ZN7CCurves20CalcSpeedScaleFactorERK7CVectorS2_ffff
00000000001dfa10 T _ZN7CCurves14CalcCurvePointERK7CVectorS2_S2_S2_fiPS0_S3_
00000000001dfbf8 T _ZN7CDarkel4InitEv
00000000001dfc08 T _ZN7CDarkel6UpdateEv
00000000001dfdb4 T _ZN7CDarkel33DealWithWeaponChangeAtEndOfFrenzyEv
00000000001dffa0 T _ZN7CDarkel12DrawMessagesEv
00000000001e0628 T _ZN7CDarkel8CalcFadeEjjj
00000000001e0744 T _ZN7CDarkel10ReadStatusEv
00000000001e0754 T _ZN7CDarkel13FrenzyOnGoingEv
00000000001e076c T _ZN7CDarkel18ResetOnPlayerDeathEv
00000000001e07b8 T _ZN7CDarkel20RegisterKillByPlayerEP4CPed11eWeaponTypeb
00000000001e0978 T _ZN7CDarkel23RegisterKillNotByPlayerEP4CPed11eWeaponType
00000000001e0990 T _ZN7CDarkel26RegisterCarBlownUpByPlayerEP8CVehicle
00000000001e0a98 T _ZN7CDarkel11StartFrenzyE11eWeaponTypeitiPsiiibb
00000000001e0dd8 T _ZN7CDarkel25ResetModelsKilledByPlayerEv
00000000001e0e24 T _ZN7CDarkel25QueryModelsKilledByPlayerEi
00000000001e0e34 T _ZN10CGameLogic17InitAtStartOfGameEv
00000000001e0e6c T _Z17UnlockCheatsCheckv
00000000001e0e70 T _ZN10CGameLogic6UpdateEv
00000000001e19ac T _ZN10CGameLogic14UpdateShortCutEv
00000000001e2004 T _ZN10CGameLogic8PassTimeEj
00000000001e20d8 T _ZN10CGameLogic36RestorePlayerStuffDuringResurrectionEP10CPlayerPed7CVectorf
00000000001e2390 T _ZN10CGameLogic33AfterDeathArrestSetUpShortCutTaxiEv
00000000001e2498 T _ZN10CGameLogic25SortOutStreamingAndMemoryERK7CVector
00000000001e25c8 T _ZN10CGameLogic36RemoveShortCutDropOffPointForMissionEv
00000000001e25d8 T _ZN10CGameLogic13ClearShortCutEv
00000000001e269c T _ZN10CGameLogic13SetUpShortCutE7CVectorfS0_f
00000000001e27e8 T _ZN10CGameLogic38AbandonShortCutIfTaxiHasBeenMessedWithEv
00000000001e2904 T _ZN10CGameLogic32AbandonShortCutIfPlayerMilesAwayEv
00000000001e2a08 T _ZN10CGameLogic26AddShortCutPointAfterDeathE7CVectorf
00000000001e2a50 T _ZN10CGameLogic33AddShortCutDropOffPointForMissionE7CVectorf
00000000001e2a80 T _ZN10CGameLogic4SaveEPhPj
00000000001e2b18 T _ZN10CGameLogic4LoadEPhj
00000000001e2c04 T _ZN8CGarages4InitEv
00000000001e2d9c T _ZN8CGarages8ShutdownEv
00000000001e2de0 T _ZN8CGarages6UpdateEv
00000000001e2f3c T _ZN7CGarage6UpdateEv
00000000001e4ef8 T _ZN7CGarage12TidyUpGarageEv
00000000001e5034 T _ZN7CGarage17TidyUpGarageCloseEv
00000000001e51f8 T _ZN8CGarages6AddOneEffffffffhj
00000000001e5508 T _ZN7CGarage19RefreshDoorPointersEb
00000000001e5650 T _ZN8CGarages19FindDoorHeightForMIEj
00000000001e5680 T _ZN7CGarage18UpdateCrusherAngleEv
00000000001e56d4 T _ZN7CGarage17UpdateDoorsHeightEv
00000000001e5908 T _ZN8CGarages16ChangeGarageTypeEshj
00000000001e5930 T _ZN7CGarage24IsEntityEntirelyInside3DEP7CEntityf
00000000001e5adc T _ZN7CGarage23IsEntityEntirelyOutsideEP7CEntityf
00000000001e5c44 T _ZN7CGarage31IsStaticPlayerCarEntirelyInsideEv
00000000001e5d78 T _ZN8CGarages14IsCarSprayableEP11CAutomobile
00000000001e5db8 T _ZN8CGarages14TriggerMessageEPcsts
00000000001e5e90 T _ZN7CGarage32CalcDistToGarageRectangleSquaredEff
00000000001e5eec T _ZN7CGarage28ThrowCarsNearDoorOutOfGarageEP8CVehicle
00000000001e6124 T _ZN7CGarage17CenterCarInGarageEP8CVehicle
00000000001e6208 T _ZN7CGarage21IsPlayerOutsideGarageEv
00000000001e6244 T _ZN8CGarages19GivePlayerDetonatorEv
00000000001e62b4 T _ZN7CGarage18IsEntityTouching3DEP7CEntity
00000000001e6444 T _ZN7CGarage20DoesCraigNeedThisCarEi
00000000001e6570 T _ZN7CGarage30MarkThisCarAsCollectedForCraigEi
00000000001e6800 T _ZN7CGarage35CalcSmallestDistToGarageDoorSquaredEff
00000000001e68d0 T _ZN7CGarage24HasCraigCollectedThisCarEi
00000000001e69f8 T _ZN7CGarage13IsGarageEmptyEv
00000000001e6ad0 T _ZN7CGarage20IsAnyCarBlockingDoorEv
00000000001e6c40 T _ZN7CGarage36CountCarsWithCenterPointWithinGarageEP7CEntity
00000000001e6d24 T _ZN7CGarage29FindMaxNumStoredCarsForGarageEv
00000000001e6d38 T _ZN7CGarage31RemoveCarsBlockingDoorNotInsideEv
00000000001e6e7c T _ZN7CGarage32StoreAndRemoveCarsForThisHideOutEP10CStoredCari
00000000001e70bc T _ZN8CGarages31FindSafeHouseIndexForGarageTypeEi
00000000001e70e0 T _ZN8CGarages24CountCarsInHideoutGarageEh
00000000001e7184 T _ZN7CGarage25RestoreCarsForThisHideOutEP10CStoredCar
00000000001e7250 T _ZN7CGarage19IsPointInsideGarageE7CVectorf
00000000001e72f4 T _ZN7CGarage28IsPlayerEntirelyInsideGarageEv
00000000001e7330 T _ZN7CGarage32EntityHasASphereWayOutsideGarageEP7CEntityf
00000000001e744c T _ZN7CGarage27IsAnyOtherCarTouchingGarageEP8CVehicle
00000000001e75d8 T _ZN7CGarage27IsAnyOtherPedTouchingGarageEP4CPed
00000000001e7754 T _ZN7CGarage19IsPointInsideGarageE7CVector
00000000001e77e4 T _ZN8CGarages13PrintMessagesEv
00000000001e7a7c T _ZN7CGarage22BuildRotatedDoorMatrixEP7CEntityf
00000000001e7b24 T _ZN7CGarage18UpdateCrusherShakeEff
00000000001e7c00 T _ZN8CGarages17IsModelIndexADoorEj
00000000001e7dd8 T _ZN7CGarage17FindDoorsEntitiesEv
00000000001e8020 T _ZN8CGarages28SetTargetCarForMissionGarageEsP11CAutomobile
00000000001e8084 T _ZN8CGarages23HasCarBeenDroppedOffYetEs
00000000001e80ac T _ZN8CGarages16DeActivateGarageEs
00000000001e80d0 T _ZN8CGarages14ActivateGarageEs
00000000001e8118 T _ZN8CGarages18QueryCarsCollectedEs
00000000001e8120 T _ZN8CGarages37HasImportExportGarageCollectedThisCarEsi
00000000001e81d8 T _ZN8CGarages12IsGarageOpenEs
00000000001e8204 T _ZN8CGarages14IsGarageClosedEs
00000000001e822c T _ZN8CGarages23HasThisCarBeenCollectedEsi
00000000001e8254 T _ZN7CGarage24Does60SecondsNeedThisCarEi
00000000001e82d8 T _ZN7CGarage29Does60SecondsNeedThisCarAtAllEi
00000000001e8318 T _ZN7CGarage14OpenThisGarageEv
00000000001e8344 T _ZN7CGarage15CloseThisGarageEv
00000000001e8360 T _ZN7CGarage34MarkThisCarAsCollectedFor60SecondsEi
00000000001e83e0 T _ZN7CGarage27FindDoorsEntitiesSectorListER8CPtrListb
00000000001e85a4 T _ZN8CGarages18HasResprayHappenedEs
00000000001e85c8 T _ZN8CGarages21SetGarageDoorToRotateEs
00000000001e8628 T _ZN8CGarages27SetLeaveCameraForThisGarageEs
00000000001e864c T _ZN8CGarages25IsThisCarWithinGarageAreaEsP7CEntity
00000000001e866c T _ZN8CGarages17HasCarBeenCrushedEi
00000000001e8684 T _ZN10CStoredCar8StoreCarEP8CVehicle
00000000001e8764 T _ZN10CStoredCar10RestoreCarEv
00000000001e8990 T _ZN8CGarages26IsPointInAGarageCameraZoneE7CVector
00000000001e8a60 T _ZN8CGarages21CameraShouldBeOutsideEv
00000000001e8a70 T _ZN8CGarages20PlayerArrestedOrDiedEv
00000000001e8b1c T _ZN7CGarage20PlayerArrestedOrDiedEv
00000000001e8b8c T _ZN8CGarages29CloseHideOutGaragesBeforeSaveEv
00000000001e8c4c T _ZN8CGarages20StopCarFromBlowingUpEP11CAutomobile
00000000001e8ca8 T _ZN8CGarages26IsPointWithinHideOutGarageER7CVector
00000000001e8d68 T _ZN8CGarages22IsPointWithinAnyGarageER7CVector
00000000001e8e14 T _ZN8CGarages31SetAllDoorsBackToOriginalHeightEv
00000000001e8fdc T _ZN8CGarages4SaveEPhPj
00000000001e9234 T _ZN8CGarages4LoadEPhj
00000000001e953c T _ZN4CRowC1Ev
00000000001e953c T _ZN4CRowC2Ev
00000000001e95e8 T _ZN4CRow9SetLetterEiPs
00000000001e960c T _ZN5CGridC1Ev
00000000001e960c T _ZN5CGridC2Ev
00000000001e9de0 T _ZN5CGrid22ProcessControllerInputEv
00000000001ea04c T _ZN5CGrid22ProcessAnyLeftJustDownEv
00000000001ea05c T _ZN5CGrid23ProcessAnyRightJustDownEv
00000000001ea06c T _ZN5CGrid20ProcessAnyUpJustDownEv
00000000001ea07c T _ZN5CGrid22ProcessAnyDownJustDownEv
00000000001ea08c T _ZN5CGrid24ProcessDPadCrossJustDownEv
00000000001ea23c T _ZN5CGrid21AllDoneMakePlayerNameEv
00000000001ea2c8 T _ZN5CGrid7ProcessEv
00000000001ea2fc T _ZN5CGrid11DisplayGridEv
00000000001ea59c T _ZN11CPlayerName11DisplayNameEi
00000000001ea6e0 T _ZN11CPlayerNameC1Ev
00000000001ea6e0 T _ZN11CPlayerNameC2Ev
00000000001ea754 T _ZN19COnscreenTimerEntry22ProcessForDisplayClockEv
00000000001ea888 T _ZN21COnscreenCounterEntry24ProcessForDisplayCounterEv
00000000001ea8a4 T _ZN19COnscreenTimerEntry7ProcessEv
00000000001ea978 T _ZN14COnscreenTimer4InitEv
00000000001ea9b0 T _ZN14COnscreenTimer17ProcessForDisplayEv
00000000001eab0c T _ZN14COnscreenTimer7ProcessEv
00000000001eac00 T _ZN14COnscreenTimer8AddClockEjPcb
00000000001eac34 T _ZN14COnscreenTimer10AddCounterEjtPct
00000000001eacb0 T _ZN14COnscreenTimer10ClearClockEj
00000000001eacd0 T _ZN14COnscreenTimer12ClearCounterEj
00000000001ead28 T _ZN9CPathFind4InitEv
00000000001ead70 T _ZN9CPathFind17RegisterMapObjectEP10CTreadable
00000000001ead9c T _ZN9CPathFind13CalcNodeCoorsEfffiP7CVector
00000000001eae50 T _ZN18CPathInfoForObject32SwapConnectionsToBeRightWayRoundEv
00000000001eaef4 T _ZN9CPathFind15PreparePathDataEv
00000000001eb224 T _ZN9CPathFind16LoadPathFindDataEv
00000000001eb244 T _ZN9CPathFind22PreparePathDataForTypeEhP9CTempNodeP18CPathInfoForObjectfS3_i
00000000001eca18 T _ZN9CPathFind20CountFloodFillGroupsEh
00000000001ecc74 T _ZN9CPathFind16SavePathFindDataEv
00000000001ecd94 T _ZN9CPathFind12ComputeRouteEhRK7CVectorS2_R6CRouteIP9CPathNodeE
00000000001ece68 T _ZN9CPathFind12DoPathSearchEh7CVectoriS0_PP9CPathNodePssP8CVehiclePffi
00000000001ed494 T _ZN9CPathFind22FindNodeClosestToCoorsE7CVectorhfbbbb
00000000001ed5bc T _ZN9CPathFind13AddNodeToListEP9CPathNodei
00000000001ed7b8 T _ZN9CPathFind18RemoveNodeFromListEP9CPathNode
00000000001ed98c T _ZN9CPathFind18RemoveBadStartNodeE7CVectorPP9CPathNodePs
00000000001eda08 T _ZN9CPathFind21FindNextNodeWanderingEh7CVectorPP9CPathNodeS3_hPh
00000000001ede14 T _ZN9CPathFind24GenerateCarCreationCoorsEffffffbP7CVectorPiS2_Pfb
00000000001ee114 T _ZN9CPathFind24GeneratePedCreationCoorsEffffffP7CVectorPiS2_PfP7CMatrix
00000000001ee5a4 T _ZN9CPathFind18TestCoorsClosenessE7CVectorhS0_
00000000001ee6a4 T _ZN9CPathFind15CalcRoadDensityEff
00000000001ee7e0 T _ZN9CPathFind25FindNthNodeClosestToCoorsE7CVectorhfbbib
00000000001ee9c8 T _ZN9CPathFind25RecordNodesClosestToCoorsE7CVectorhiPP9CPathNodefbbb
00000000001eeb70 T _ZN9CPathFind19RecordNodesInCircleERK7CVectorfhiPP9CPathNodebbbb
00000000001eec68 T _ZN9CPathFind37FindNodeClosestToCoorsFavourDirectionE7CVectorhff
00000000001eeda8 T _ZN9CPathFind26FindNodePairClosestToCoorsE7CVectorhPiS1_Pfffbbb
00000000001ef040 T _ZN9CPathFind34FindNodeOrientationForCarPlacementEj
00000000001ef138 T _ZN9CPathFind51FindNodeOrientationForCarPlacementFacingDestinationEjffb
00000000001ef36c T _ZN9CPathFind23AllocatePathFindInfoMemEs
00000000001ef4e8 T _ZN9CPathFind16StoreNodeInfoCarEssaasssfaabbhbbh
00000000001ef740 T _ZN9CPathFind16StoreNodeInfoPedEssaasssfbh
00000000001ef9a0 T _ZN9CPathFind24StoreDetachedNodeInfoPedEiaiffffbbbh
00000000001efc9c T _ZN9CPathFind24StoreDetachedNodeInfoCarEiaiffffaabbhbbhb
00000000001effec T _ZN18CPathInfoForObject14CheckIntegrityEv
00000000001efff0 T _ZN9CPathFind18ArrangeOneNodeListEP18CPathInfoForObjects
00000000001f0234 T _ZN9CPathFind12ArrangeNodesEs
00000000001f0280 T _ZN9CPathFind14RegisterMarkerEP7CVector
00000000001f0284 T _ZN9CPathFind20SwitchRoadsOffInAreaEffffffb
00000000001f0378 T _ZN9CPathFind26SwitchOffNodeAndNeighboursEib
00000000001f0458 T _ZN9CPathFind23SwitchPedRoadsOffInAreaEffffffb
00000000001f0550 T _ZN9CPathFind23SwitchRoadsInAngledAreaEfffffffhh
00000000001f07c4 T _ZN9CPathFind28MarkRoadsBetweenLevelsInAreaEffffff
00000000001f089c T _ZN9CPathFind39MarkRoadsBetweenLevelsNodeAndNeighboursEi
00000000001f0954 T _ZN9CPathFind31PedMarkRoadsBetweenLevelsInAreaEffffff
00000000001f0a30 T _ZN9CPathFind22TestForPedTrafficLightEP9CPathNodeS1_
00000000001f0a7c T _ZN11CAutomobile27HasCarStoppedBecauseOfLightEv
00000000001f0ba4 T _ZN9CPathFind15TestCrossesRoadEP9CPathNodeS1_
00000000001f0bf8 T _ZN9CPathFind22FindNodeCoorsForScriptEi
00000000001f0cfc T _ZN9CPathFind8ShutdownEv
00000000001f0d00 T _ZN9CPathFind32TakeWidthIntoAccountForWanderingEP9CPathNodet
00000000001f0d54 T _ZN9CPathFind28TakeWidthIntoAccountForCoorsEP9CPathNodeS1_tPfS2_
00000000001f0dbc T _ZN9CPathFind4SaveEPhPj
00000000001f0e88 T _ZN9CPathFind4LoadEPhj
00000000001f0f38 T _ZN12CCarPathLink16OneWayLaneOffsetEv
00000000001f0fd0 T _ZN8CPedPath12CalcPedRouteEh7CVectorS0_PS0_Pss
00000000001f1a10 T _ZN8CPedPath21AddBlockadeSectorListER8CPtrListPA40_12CPedPathNodeP7CVector
00000000001f1a88 T _ZN8CPedPath11AddBlockadeEP7CEntityPA40_12CPedPathNodeP7CVector
00000000001f1d3c T _ZN8CPedPath19AddBuildingBlockadeEP7CEntityPA40_12CPedPathNodeP7CVector
00000000001f2014 T _ZN8CPedPath29AddBuildingBlockadeSectorListER8CPtrListPA40_12CPedPathNodeP7CVector
00000000001f208c T _Z13PhonePickUpCBP21CAnimBlendAssociationPv
00000000001f21fc T _Z14PhonePutDownCBP21CAnimBlendAssociationPv
00000000001f2274 T _ZN10CPhoneInfoC1Ev
00000000001f2274 T _ZN10CPhoneInfoC2Ev
00000000001f22d8 T _ZN10CPhoneInfoD1Ev
00000000001f22d8 T _ZN10CPhoneInfoD2Ev
00000000001f230c T _ZN6CPhoneC1Ev
00000000001f230c T _ZN6CPhoneC2Ev
00000000001f2318 T _ZN6CPhoneD1Ev
00000000001f2318 T _ZN6CPhoneD2Ev
00000000001f231c T _ZN10CPhoneInfo10InitialiseEv
00000000001f23ec T _ZN10CPhoneInfo8ShutdownEv
00000000001f23f4 T _ZN10CPhoneInfo20FindNearestFreePhoneEP7CVector
00000000001f2474 T _ZN10CPhoneInfo6UpdateEv
00000000001f29b4 T _ZN10CPhoneInfo19PhoneAtThisPositionE7CVector
00000000001f2a14 T _ZN10CPhoneInfo9GrabPhoneEff
00000000001f2b6c T _ZN10CPhoneInfo26SetPhoneMessage_RepeatedlyEiPsS0_S0_S0_S0_S0_
00000000001f2bb0 T _ZN10CPhoneInfo24SetPhoneMessage_JustOnceEiPsS0_S0_S0_S0_S0_
00000000001f2bf4 T _ZN10CPhoneInfo23HasMessageBeenDisplayedEi
00000000001f2c24 T _ZN10CPhoneInfo23IsMessageBeingDisplayedEi
00000000001f2c44 T _ZN10CPhoneInfo4SaveEPhPj
00000000001f2ccc T _ZN10CPhoneInfo4LoadEPhj
00000000001f2da0 T _ZN8CPickups4InitEv
00000000001f2e04 T _ZN8CPickups6UpdateEv
00000000001f2fd0 T _ZN7CPickup6UpdateEP10CPlayerPedP8CVehiclei
00000000001f4194 T _ZN8CPickups26AddToCollectedPickupsArrayEi
00000000001f41e0 T _ZN8CPickups14GenerateNewOneE7CVectorjhjjbPc
00000000001f44e4 T _ZN7CPickup15GetRidOfObjectsEv
00000000001f4548 T _ZN7CPickup19GiveUsAPickUpObjectEPP7CObjectS2_ii
00000000001f4a38 T _ZN8CPickups23GetNewUniquePickupIndexEi
00000000001f4a6c T _ZN8CPickups25GenerateNewOne_WeaponTypeE7CVector11eWeaponTypehjbPc
00000000001f4ae0 T _ZN8CPickups14ModelForWeaponE11eWeaponType
00000000001f4af8 T _ZN8CPickups21TryToMerge_WeaponTypeE7CVector11eWeaponTypehjb
00000000001f4bc4 T _ZN8CPickups14WeaponForModelEi
00000000001f4c38 T _ZN8CPickups16IsPickUpPickedUpEi
00000000001f4d90 T _ZN8CPickups12RemovePickUpEi
00000000001f4e44 T _ZN8CPickups20GetActualPickupIndexEi
00000000001f4e74 T _ZN8CPickups25DetonateMinesHitByGunShotEP7CVectorS1_
00000000001f4ed8 T _ZN7CPickup14ProcessGunShotEP7CVectorS1_
00000000001f4f9c T _Z34ModifyStringLabelForControlSettingPc
00000000001f5008 T _ZN7CPickup21ExtractAmmoFromPickupEP10CPlayerPed
00000000001f511c T _ZN8CPickups29GivePlayerGoodiesWithPickUpMIEti
00000000001f5350 T _ZN8CPickups15DoPickUpEffectsEP7CEntity
00000000001f5ed4 T _ZN8CPickups23FindPickUpForThisObjectEP7CObject
00000000001f5f24 T _ZN8CPickups20DoCollectableEffectsEP7CEntity
00000000001f6118 T _ZN8CPickups14DoMoneyEffectsEP7CEntity
00000000001f6314 T _ZN8CPickups13DoMineEffectsEP7CEntity
00000000001f64fc T _ZN8CPickups16RenderPickUpTextEv
00000000001f6798 T _ZN8CPickups24RemoveUnnecessaryPickupsERK7CVectorf
00000000001f6888 T _ZN14CPacManPickups4InitEv
00000000001f688c T _ZN14CPacManPickups6UpdateEv
00000000001f6890 T _ZN14CPacManPickups17GeneratePMPickUpsE7CVectorfsh
00000000001f6894 T _ZN14CPacManPickups24GeneratePMPickUpsForRaceEi
00000000001f6898 T _ZN14CPacManPickups19GenerateOnePMPickUpE7CVector
00000000001f689c T _ZN14CPacManPickups6RenderEv
00000000001f68a0 T _ZN14CPacManPickups14ClearPMPickUpsEv
00000000001f68a4 T _ZN13CPacManPickup6UpdateEv
00000000001f68a8 T _ZN14CPacManPickups15StartPacManRaceEi
00000000001f68ac T _ZN14CPacManPickups17StartPacManRecordEv
00000000001f68b0 T _ZN14CPacManPickups26QueryPowerPillsEatenInRaceEv
00000000001f68b8 T _ZN14CPacManPickups26ResetPowerPillsEatenInRaceEv
00000000001f68bc T _ZN14CPacManPickups18CleanUpPacManStuffEv
00000000001f68c0 T _ZN14CPacManPickups19StartPacManScrambleE7CVectorfs
00000000001f68c4 T _ZN14CPacManPickups30QueryPowerPillsCarriedByPlayerEv
00000000001f68cc T _ZN14CPacManPickups30ResetPowerPillsCarriedByPlayerEv
00000000001f68d0 T _ZN4CPed18CreateDeadPedMoneyEv
00000000001f6954 T _ZN8CPickups15CreateSomeMoneyE7CVectori
00000000001f6b04 T _ZN4CPed26CreateDeadPedWeaponPickupsEv
00000000001f6d3c T _ZN4CPed24CreateDeadPedPickupCoorsEPfS0_S0_
00000000001f70e0 T _ZN8CPickups22TestForPickupsInBubbleE7CVectorf
00000000001f716c T _ZN8CPickups8PassTimeEj
00000000001f71b4 T _ZN8CPickups47RemoveAllPickupsOfACertainWeaponGroupWithNoAmmoE11eWeaponType
00000000001f72e4 T _ZN8CPickups4SaveEPhPj
00000000001f745c T _ZN8CPickups4LoadEPhj
00000000001f7654 T _ZN12CPowerPoints4InitEv
00000000001f7658 T _ZN12CPowerPoints6UpdateEv
00000000001f765c T _ZN12CPowerPoints14GenerateNewOneEffffffh
00000000001f7660 T _ZN11CPowerPoint6UpdateEv
00000000001f7664 T _ZN12CPowerPoints4SaveEPPhPj
00000000001f7668 T _ZN12CPowerPoints4LoadEPhj
00000000001f766c T _ZN18CRecordDataForGame4InitEv
00000000001f767c T _ZN18CRecordDataForGame30SaveOrRetrieveDataForThisFrameEv
00000000001f7680 T _ZN18CRecordDataForGame20PackCurrentPadValuesEPhP16CControllerStateS2_
00000000001f7684 T _ZN18CRecordDataForGame22UnPackCurrentPadValuesEPhhP16CControllerState
00000000001f7688 T _ZN18CRecordDataForGame16CalcGameChecksumEv
00000000001f7690 T _ZN19CRecordDataForChase4InitEv
00000000001f76a0 T _ZN19CRecordDataForChase30SaveOrRetrieveDataForThisFrameEv
00000000001f76a4 T _ZN19CRecordDataForChase26SaveOrRetrieveCarPositionsEv
00000000001f76a8 T _ZN19CRecordDataForChase15StoreInfoForCarEP11CAutomobileP18CCarStateEachFrame
00000000001f76ac T _ZN19CRecordDataForChase20RestoreInfoForMatrixER7CMatrixP18CCarStateEachFrame
00000000001f76b0 T _ZN19CRecordDataForChase17RestoreInfoForCarEP11CAutomobileP18CCarStateEachFrameb
00000000001f76b4 T _ZN19CRecordDataForChase18ProcessControlCarsEv
00000000001f76b8 T _ZN19CRecordDataForChase24ShouldThisPadBeLeftAloneEh
00000000001f76c0 T _ZN19CRecordDataForChase10GiveUsACarEi7CVectorfPP11CAutomobilehh
00000000001f76c4 T _Z21RemoveUnusedCollisionv
00000000001f76c8 T _ZN19CRecordDataForChase15StartChaseSceneEf
00000000001f76cc T _ZN19CRecordDataForChase17CleanUpChaseSceneEv
00000000001f76d0 T _ZN19CRecordDataForChase22SetUpCarsForChaseSceneEv
00000000001f76d4 T _ZN19CRecordDataForChase24CleanUpCarsForChaseSceneEv
00000000001f76d8 T _ZN19CRecordDataForChase18RemoveCarFromChaseEi
00000000001f76dc T _ZN19CRecordDataForChase25TurnChaseCarIntoScriptCarEi
00000000001f76e4 T _ZN7CRemote29GivePlayerRemoteControlledCarEfffft
00000000001f78e0 T _ZN7CRemote33TakeRemoteControlledCarFromPlayerEb
00000000001f7998 W _ZN11CPlayerInfoD2Ev
00000000001f79a0 T _Z22PrintElementsInPtrListv
00000000001f79a4 T _Z18HasAnimGroupLoaded12AssocGroupId
00000000001f79d4 T _ZN7CReplay4InitEv
00000000001f7c2c T _ZN7CReplay19MarkEverythingAsNewEv
00000000001f7d10 T _ZN7CReplay14DisableReplaysEv
00000000001f7d20 T _ZN7CReplay13EnableReplaysEv
00000000001f7d34 T _ZN7CReplay6UpdateEv
00000000001f7d38 T _ZN7CReplay13GoToNextBlockEv
00000000001f7e78 T _ZN7CReplay15RecordThisFrameEv
00000000001f8524 T _ZN7CReplay15StoreBikeUpdateEP8CVehiclei
00000000001f8868 T _ZN7CReplay14StoreCarUpdateEP8CVehiclei
00000000001f8cbc T _ZN7CReplay14StorePedUpdateEP4CPedi
00000000001f8dac T _ZN7CReplay14RecordParticleE13tParticleTypeRK7CVectorS3_fRK6RwRGBA
00000000001f8fa8 T _ZN7CReplay17StorePedAnimationEP4CPedP21CStoredAnimationState
00000000001f92a4 T _ZN7CReplay25StoreDetailedPedAnimationEP4CPedP29CStoredDetailedAnimationState
00000000001f9674 T _ZN7CReplay16ProcessPedUpdateEP4CPedfP22CAddressInReplayBuffer
00000000001f995c T _ZN7CReplay20RetrievePedAnimationEP4CPedP21CStoredAnimationState
00000000001f9ba4 T _ZN7CReplay28RetrieveDetailedPedAnimationEP4CPedP29CStoredDetailedAnimationState
00000000001f9e88 T _ZN7CReplay17PlayBackThisFrameEv
00000000001f9fac T _ZN7CReplay30PlayBackThisFrameInterpolationEP22CAddressInReplayBufferfPj
00000000001faaf8 T _ZN7CReplay20ProcessLookAroundCamEv
00000000001faf30 T _ZN7CReplay16ProcessCarUpdateEP8CVehiclefP22CAddressInReplayBuffer
00000000001fb468 T _ZN7CReplay17ProcessBikeUpdateEP8CVehiclefP22CAddressInReplayBuffer
00000000001fb71c T _ZN7CReplay14FinishPlaybackEv
00000000001fb8f8 T _ZN7CReplay19ProcessReplayCameraEv
00000000001fbb54 T _ZN7CReplay13EmptyAllPoolsEv
00000000001fbc48 T _ZN7CReplay19RestoreStuffFromMemEv
00000000001fcc00 T _ZN7CReplay17EmptyReplayBufferEv
00000000001fcd28 T _ZN7CReplay7DisplayEv
00000000001fce90 T _ZN7CReplay15TriggerPlaybackEhfffb
00000000001fd27c T _ZN7CReplay15StoreStuffInMemEv
00000000001fdda8 T _ZN7CReplay24EmptyPedsAndVehiclePoolsEv
00000000001fdea0 T _ZN7CReplay29StreamAllNecessaryCarsAndPedsEv
00000000001fdf80 T _ZN7CReplay24FindFirstFocusCoordinateEP7CVector
00000000001fe07c T _ZN7CReplay34TriggerPlaybackLastCoupleOfSecondsEjhfffj
00000000001fe140 T _ZN7CReplay17FastForwardToTimeEj
00000000001fe1c0 T _ZN7CReplay17RemoveTempPoolMemEv
00000000001fe39c T _ZN7CReplay14SaveReplayToHDEv
00000000001fe530 T _Z16PlayReplayFromHDv
00000000001fe6d4 T _ZN7CReplay16FindSizeOfPacketEh
00000000001fe6fc T _ZN7CReplay31ShouldStandardCameraBeProcessedEv
00000000001fe830 T _ZN8CRestart10InitialiseEv
00000000001fe8ec T _ZN8CRestart23AddHospitalRestartPointERK7CVectorf
00000000001fe934 T _ZN8CRestart21AddPoliceRestartPointERK7CVectorf
00000000001fe97c T _ZN8CRestart31FindClosestHospitalRestartPointERK7CVectorPS0_Pf
00000000001febcc T _ZN8CRestart29FindClosestPoliceRestartPointERK7CVectorPS0_Pf
00000000001fee18 T _ZN8CRestart19OverrideNextRestartERK7CVectorf
00000000001fee50 T _ZN8CRestart21CancelOverrideRestartEv
00000000001fee60 T _ZN8CRestart20SaveAllRestartPointsEPhPj
00000000001ff0c0 T _ZN8CRestart20LoadAllRestartPointsEPhj
00000000001ff34c T _ZN11CRoadBlocks4InitEv
00000000001ff428 T _ZN11CRoadBlocks21ClearScriptRoadBlocksEv
00000000001ff474 T _ZN11CRoadBlocks18GenerateRoadBlocksEv
00000000001ff974 T _ZN11CRoadBlocks29CreateRoadBlockBetween2PointsE7CVectorS0_
0000000000200194 T _ZN11CRoadBlocks27GenerateRoadBlockCopsForCarEP8CVehiclei
0000000000200518 T _ZN11CRoadBlocks23RegisterScriptRoadBlockE7CVectorS0_
000000000020067c T _Z18AddExtraDeathDelayv
0000000000200684 T _ZN15CMissionCleanupC1Ev
0000000000200684 T _ZN15CMissionCleanupC2Ev
00000000002006a8 T _ZN15CMissionCleanup4InitEv
00000000002006cc T _ZN15CMissionCleanup8FindFreeEv
00000000002006f0 T _ZN15CMissionCleanup42CheckIfCollisionHasLoadedForMissionObjectsEv
0000000000200870 T _ZN15CMissionCleanup15AddEntityToListEih
00000000002008b0 T _ZN15CMissionCleanup20RemoveEntityFromListEih
0000000000200a1c T _ZN15CMissionCleanup7ProcessEv
0000000000200ee8 T _ZN11CTheScripts29RemoveScriptTextureDictionaryEv
0000000000200fa0 T _ZN19CUpsideDownCarCheck4InitEv
0000000000200fb0 T _ZN14CStuckCarCheck4InitEv
0000000000200ff4 T _ZN14CRunningScript19ProcessMissionRetryEi
0000000000201144 T _ZN11CTheScripts14StartNewScriptEi
00000000002011e4 T _ZN19CUpsideDownCarCheck15IsCarUpsideDownEi
000000000020129c T _ZN19CUpsideDownCarCheck15IsCarUpsideDownEP8CVehicle
000000000020131c T _ZN19CUpsideDownCarCheck12UpdateTimersEv
000000000020142c T _ZN19CUpsideDownCarCheck20AreAnyCarsUpsideDownEv
00000000002014dc T _ZN19CUpsideDownCarCheck13AddCarToCheckEi
0000000000201548 T _ZN19CUpsideDownCarCheck18RemoveCarFromCheckEi
00000000002015c4 T _ZN19CUpsideDownCarCheck29HasCarBeenUpsideDownForAWhileEi
0000000000201654 T _ZN14CStuckCarCheck7ProcessEv
0000000000201760 T _ZN14CStuckCarCheck13AddCarToCheckEifj
00000000002018c8 T _ZN14CStuckCarCheck18RemoveCarFromCheckEi
0000000000201920 T _ZN14CStuckCarCheck24HasCarBeenStuckForAWhileEi
0000000000201a78 T _ZN14CRunningScript21CanAllowMissionReplayEv
0000000000201b60 T _ZN14CRunningScript17CollectParametersEPjs
0000000000201c60 T _ZN14CRunningScript39CollectNextParameterWithoutIncreasingPCEj
0000000000201d14 T _ZN14CRunningScript15StoreParametersEPjs
0000000000201db4 T _ZN11CTheScripts14PrintListSizesEv
0000000000201db8 T _ZN14CRunningScript26GetPointerToScriptVariableEPjh
0000000000201e30 T _ZN14CRunningScript4InitEv
0000000000201e84 T _ZN11CTheScripts4InitEv
00000000002025dc T _ZN14CRunningScript15AddScriptToListEPPS_
00000000002025f8 T _ZN14CRunningScript20RemoveScriptFromListEPPS_
0000000000202618 T _ZN11CTheScripts7ProcessEv
0000000000202b08 T _ZN14CRunningScript7ProcessEv
0000000000202c20 T _ZN11CTheScripts15StartTestScriptEv
0000000000202cb8 T _ZN11CTheScripts18IsPlayerOnAMissionEv
0000000000202cec T _ZN14CRunningScript17ProcessOneCommandEv
0000000000202de8 T _ZN14CRunningScript20ProcessCommands0To99Ei
0000000000203e18 T _ZN14CRunningScript23ProcessCommands100To199Ei
00000000002058a0 T _ZN14CRunningScript23ProcessCommands200To299Ei
0000000000207158 W _ZN10CPlaceable14SetOrientationEfff
00000000002071a0 W _ZN7CSprite13GetIsOnScreenERK7CVectorf
000000000020740c T _ZN14CRunningScript23ProcessCommands300To399Ei
000000000020885c T _ZN14CRunningScript23ProcessCommands400To499Ei
000000000020a52c T _ZN14CRunningScript23ProcessCommands500To599Ei
000000000020bc54 W _ZN8CGeneral11faststricmpEPKcS1_
000000000020bd5c T _ZN14CRunningScript23ProcessCommands600To699Ei
000000000020c498 T _ZN14CRunningScript23ProcessCommands700To799Ei
000000000020dee4 T _ZN14CRunningScript23ProcessCommands800To899Ei
0000000000210544 T _ZN11CTheScripts26AddToInvisibilitySwapArrayEP7CEntityb
00000000002105bc T _ZN14CRunningScript23ProcessCommands900To999Ei
0000000000212730 T _ZN11CTheScripts22AddToBuildingSwapArrayEP9CBuildingii
00000000002127dc T _ZN11CTheScripts26GetActualScriptSphereIndexEi
000000000021280c T _ZN11CTheScripts15AddScriptSphereEj7CVectorf
0000000000212948 T _ZN11CTheScripts18RemoveScriptSphereEi
0000000000212988 T _ZN11CTheScripts29GetNewUniqueScriptSphereIndexEi
00000000002129bc T _ZN11CTheScripts17DrawScriptSpheresEv
0000000000212a48 T _ZN11CTheScripts17UndoBuildingSwapsEv
0000000000212aa8 T _ZN11CTheScripts30UndoEntityInvisibilitySettingsEv
0000000000212ae4 T _ZN14CRunningScript17UpdateCompareFlagEh
0000000000212b64 T _Z11StopVehicleP8CVehicleff
0000000000212be4 T _ZN14CRunningScript19LocatePlayerCommandEiPj
00000000002131a4 T _ZN11CTheScripts15IsPlayerStoppedEP11CPlayerInfo
0000000000213290 T _ZN11CTheScripts22HighlightImportantAreaEjfffff
0000000000213374 T _ZN11CTheScripts13DrawDebugCubeEffffff
000000000021354c T _ZN11CTheScripts15DrawDebugSquareEffff
00000000002137c4 T _ZN14CRunningScript23LocatePlayerCharCommandEiPj
0000000000213be0 T _ZN14CRunningScript22LocatePlayerCarCommandEiPj
0000000000213fb0 T _ZN14CRunningScript17LocateCharCommandEiPj
0000000000214470 T _ZN11CTheScripts12IsPedStoppedEP4CPed
00000000002144f8 T _ZN14CRunningScript21LocateCharCharCommandEiPj
0000000000214918 T _ZN14CRunningScript20LocateCharCarCommandEiPj
0000000000214d0c T _ZN14CRunningScript23LocateCharObjectCommandEiPj
0000000000215100 T _ZN14CRunningScript16LocateCarCommandEiPj
00000000002154fc T _ZN11CTheScripts16IsVehicleStoppedEP8CVehicle
0000000000215528 T _ZN14CRunningScript19LocateObjectCommandEiPj
00000000002158a4 T _ZN14CRunningScript25LocateSniperBulletCommandEiPj
0000000000215b90 T _ZN14CRunningScript24PlayerInAreaCheckCommandEiPj
0000000000216058 T _ZN14CRunningScript30PlayerInAngledAreaCheckCommandEiPj
0000000000216528 T _ZN11CTheScripts28HighlightImportantAngledAreaEjfffffffff
00000000002166f4 T _ZN11CTheScripts19DrawDebugAngledCubeEffffffffff
00000000002168d8 T _ZN11CTheScripts21DrawDebugAngledSquareEffffffff
0000000000216b60 T _ZN14CRunningScript22CharInAreaCheckCommandEiPj
0000000000217058 T _ZN14CRunningScript21CarInAreaCheckCommandEiPj
0000000000217454 T _ZN14CRunningScript24ObjectInAreaCheckCommandEiPj
00000000002177d8 T _ZN14CRunningScript18DoDeatharrestCheckEv
00000000002178e0 T _Z39IsFromAmmunationHardwareOrRaceSelectionPKc
0000000000217ba8 T _ZN14CRunningScript11GetPadStateEtt
00000000002181e0 T _ZN14CRunningScript22CheckDamagedWeaponTypeEii
000000000021822c T _ZN11CTheScripts17ScriptDebugLine3DEffffffjj
0000000000218268 T _ZN11CTheScripts19ScriptDebugCircle2DEffffi
000000000021849c T _ZN11CTheScripts25RenderTheScriptDebugLinesEv
000000000021852c T _ZN11CTheScripts14SaveAllScriptsEPhPj
0000000000218900 T _ZN11CTheScripts14LoadAllScriptsEPhj
0000000000218c60 T _ZN11CTheScripts26ClearSpaceForMissionEntityERK7CVectorP7CEntity
0000000000218f94 T _ZN11CTheScripts13RemoveThisPedEP4CPed
000000000021906c T _ZN11CTheScripts14CleanUpThisPedEP4CPed
00000000002191e0 T _ZN11CTheScripts18CleanUpThisVehicleEP8CVehicle
0000000000219260 T _ZN11CTheScripts17CleanUpThisObjectEP7CObject
00000000002192c4 T _ZN11CTheScripts25ReadObjectNamesFromScriptEv
000000000021947c T _ZN11CTheScripts19UpdateObjectIndicesEv
0000000000219748 T _ZN11CTheScripts36ReadMultiScriptFileOffsetsFromScriptEv
0000000000219a3c T _ZN14CRunningScript21ThisIsAValidRandomCopEjiiiii
0000000000219ab4 T _ZN14CRunningScript21ThisIsAValidRandomPedEjiii
0000000000219b14 T _ZN14CRunningScript25ProcessCommands1000To1099Ei
000000000021b008 T _ZN14CRunningScript25ProcessCommands1100To1199Ei
000000000021cfe0 T _ZN14CRunningScript25ProcessCommands1200To1299Ei
000000000021eeb8 T _ZN14CRunningScript25ProcessCommands1300To1399Ei
0000000000220d44 T _ZN14CRunningScript25ProcessCommands1400To1499Ei
0000000000222634 T _ZN10CSetPieces4InitEv
0000000000222650 T _ZN10CSetPieces6AddOneEh9CVector2DS0_S0_S0_S0_S0_
00000000002226d4 T _ZN10CSetPieces6UpdateEv
0000000000222788 T _ZN9CSetPiece6UpdateEv
0000000000222e84 T _ZN10CSetPieces4SaveEPhPj
0000000000222ee4 T _ZN10CSetPieces4LoadEPhPj
0000000000222f08 T _ZN9CSetPiece19TryToGenerateCopCarE9CVector2DS0_
00000000002230f8 T _ZN9CSetPiece19TryToGenerateCopPedE9CVector2D
00000000002232ac T _Z24DoesLineSegmentIntersectffffffff
0000000000223320 T _ZN14CTrafficLights18ScanForLightsOnMapEv
00000000002238ac T _ZN14CTrafficLights20FindTrafficLightTypeEP7CEntity
000000000022391c T _ZN14CTrafficLights21ShouldCarStopForLightEP8CVehicleb
0000000000223dfc T _ZN14CTrafficLights13LightForCars1Ev
0000000000223e70 T _ZN14CTrafficLights13LightForCars2Ev
0000000000223ef8 T _ZN14CTrafficLights20LightForCars1_VisualEv
0000000000223f88 T _ZN14CTrafficLights20LightForCars2_VisualEv
000000000022402c T _ZN14CTrafficLights12LightForPedsEv
000000000022405c T _ZN14CTrafficLights18DisplayActualLightEP7CEntity
0000000000225054 T _ZN14CTrafficLights22ShouldCarStopForBridgeEP8CVehicle
000000000022505c T _ZN9CAccidentC1Ev
000000000022505c T _ZN9CAccidentC2Ev
0000000000225064 T _ZN9CAccidentD1Ev
0000000000225064 T _ZN9CAccidentD2Ev
0000000000225068 T _ZN16CAccidentManagerC1Ev
0000000000225068 T _ZN16CAccidentManagerC2Ev
0000000000225194 T _ZN16CAccidentManagerD1Ev
0000000000225194 T _ZN16CAccidentManagerD2Ev
000000000022524c T _ZN16CAccidentManager14RemoveAccidentEP9CAccident
0000000000225254 T _ZN16CAccidentManager19GetNextFreeAccidentEv
00000000002253e0 T _ZN16CAccidentManager14ReportAccidentEP4CPed
000000000022564c T _ZN16CAccidentManager17WorkToDoForMedicsEv
0000000000225690 T _ZN16CAccidentManager6UpdateEv
000000000022571c T _ZN16CAccidentManager19FindNearestAccidentE7CVectorPf
000000000022587c T _ZN16CAccidentManager20CountActiveAccidentsEv
0000000000225990 T _ZN16CAccidentManager19UnattendedAccidentsEv
0000000000225a0c T _ZN11CAnimViewer10InitialiseEv
0000000000225e34 T _ZN11CAnimViewer8ShutdownEv
0000000000225e7c T _Z11NextModelIdii
0000000000225ec4 T _Z15FirstCarModelIdi
0000000000225eec T _Z14LastPedModelIdi
0000000000225f14 T _Z13PlayAnimationP7RpClump12AssocGroupId11AnimationId
0000000000225fac T _Z7LoadIFPv
0000000000225fc4 T _ZN11CAnimViewer6UpdateEv
0000000000226628 T _ZN11CAnimViewer6RenderEv
0000000000226668 T _Z17ConstrainRotationRf
00000000002266e8 W _ZN7CCameraC2Ev
0000000000226974 W _ZN7CCameraD2Ev
00000000002269a4 T _Z28FindSplinePathPositionVectorP7CVectorPfjRj
0000000000226cb4 T _Z27FindSplinePathPositionFloatPfS_jRj
0000000000226e3c T _Z12WellBufferMefPfS_ffb
0000000000226f38 T _ZN4CCam26Cam_On_A_String_UnobscuredERK7CVectorf
000000000022710c T _ZN4CCam24ClipIfPedInFrontOfPlayerEv
00000000002272b4 T _ZN7CCamera18GetGameCamPositionEv
00000000002272bc T _ZN4CCam17DoAverageOnVectorERK7CVector
0000000000227460 T _ZN4CCam27FixCamWhenObscuredByVehicleERK7CVector
00000000002275f0 T _Z3cmpPKvS0_
0000000000227608 T _ZN4CCam28GetBoatLook_L_R_HeightOffsetERf
0000000000227664 T _ZN4CCam20GetVectorsReadyForRWEv
0000000000227724 T _ZN4CCam22GetWeaponFirstPersonOnEv
0000000000227760 T _ZN4CCam4InitEv
0000000000227808 T _ZN4CCam15IsTargetInWaterERK7CVector
0000000000227904 T _ZN4CCam15LookOffsetAngleEf
0000000000227b30 T _ZN4CCam10LookBehindEv
000000000022819c T _ZN7CCamera16AvoidTheGeometryERK7CVectorS2_RS0_f
0000000000228894 T _ZN4CCam8LookLeftEv
0000000000228d08 T _ZN4CCam9LookRightEv
00000000002291c0 T _ZN4CCam19KeepTrackOfTheSpeedERK7CVectorS2_S2_RKfS4_S4_
0000000000229858 T _ZN4CCam7ProcessEv
000000000022a100 T _ZN4CCam22Using3rdPersonMouseCamEv
000000000022a12c T _ZN4CCam17Process_BehindCarERK7CVectorfff
000000000022a3a4 T _ZN4CCam28Process_Syphon_Crim_In_FrontERK7CVectorfff
000000000022a66c T _ZN4CCam23Process_Cam_On_A_StringERK7CVectorfff
000000000022aecc T _ZN4CCam26Process_FollowPedWithMouseERK7CVectorfff
000000000022b9dc T _ZN4CCam17Process_FollowPedERK7CVectorfff
000000000022d054 T _ZN4CCam14Process_SniperERK7CVectorfff
000000000022d8bc T _ZN4CCam14Process_RocketERK7CVectorfff
000000000022de74 T _ZN4CCam21Process_M16_1stPersonERK7CVectorfff
000000000022e8b4 T _ZN4CCam18Process_BehindBoatERK7CVectorfff
000000000022f13c T _ZN4CCam27Process_Player_Fallen_WaterERK7CVectorfff
000000000022f2f0 T _ZN4CCam29Process_SpecialFixedForSyphonERK7CVectorfff
000000000022f49c T _ZN4CCam14Process_SyphonERK7CVectorfff
000000000022fa50 T _ZN4CCam16Process_WheelCamERK7CVectorfff
000000000022ffd8 T _ZN4CCam13Process_FixedERK7CVectorfff
0000000000230298 T _ZN4CCam17Process_1stPersonERK7CVectorfff
0000000000230b7c T _ZN4CCam13Process_FlyByERK7CVectorfff
0000000000231090 T _ZN4CCam17Process_Fight_CamERK7CVectorfff
0000000000231844 T _ZN4CCam19ProcessPedsDeadBabyEv
0000000000231c7c T _ZN4CCam18Process_LightHouseERK7CVectorfff
0000000000231f8c T _ZN4CCam14Process_EditorERK7CVectorfff
00000000002325b4 T _ZN4CCam25Process_1rstPersonPedOnPCERK7CVectorfff
0000000000232da4 T _ZN4CCam19ProcessArrestCamOneEv
00000000002337ec T _ZN4CCam19ProcessArrestCamTwoEv
0000000000233b60 T _ZN4CCam17GetZoomedGunInputERf
0000000000233d50 T _ZN7CCamera13SetMotionBlurEiiiii
0000000000233d60 T _ZN7CCamera23GetArrPosForVehicleTypeEiRi
0000000000233d88 T _ZN4CCam18RotCamIfInFrontCarERK7CVectorf
0000000000234338 T _ZN4CCam16WorkOutCamHeightERK7CVectorff
0000000000234cd8 T _ZN4CCam13NeedsTrackingEP7CEntity
0000000000234d88 T _ZN7CCamera9GetFadingEv
0000000000234d90 T _ZN7CCamera18GetFadingDirectionEv
0000000000234db0 T _ZN4CCam22GetLookOverShoulderPosEP7CEntityP4CPedR7CVectorS5_
0000000000234f7c T _ZN4CCam21GetLookAlongGroundPosEP7CEntityP4CPedR7CVectorS5_
00000000002350bc T _ZN4CCam22GetLookFromLampPostPosEP7CEntityP4CPedR7CVectorS5_
00000000002353f0 T _ZN4CCam28ProcessSpecialHeightRoutinesEv
0000000000235abc T _ZN7CCamera10CamControlEv
0000000000238964 T _ZN7CCamera7RestoreEv
0000000000238a98 T _ZN7CCamera16SetWideScreenOffEv
0000000000238aa4 T _ZN7CCamera26SetCamPositionForFixedModeERK7CVectorS2_
0000000000238ad0 T _ZN7CCamera21ClearPlayerWeaponModeEv
0000000000238b1c T _ZN7CCamera48SetCameraDirectlyBehindForFollowPed_CamOnAStringEv
0000000000238b54 T _ZN7CCamera26ProcessObbeCinemaCameraPedEv
0000000000238c10 T _ZN7CCamera27ProcessObbeCinemaCameraHeliEv
0000000000238dec T _ZN7CCamera26ProcessObbeCinemaCameraCarEv
0000000000238f50 T _ZN7CCamera27DontProcessObbeCinemaCameraEv
0000000000238f60 T _ZN7CCamera15StartTransitionEs
0000000000239958 T _ZN7CCamera35StartTransitionWhenNotFinishedInterEs
0000000000239964 T _ZN7CCamera18RestoreWithJumpCutEv
0000000000239a90 T _Z13CamShakeNoPosP7CCameraf
0000000000239ae0 T _ZN7CCamera8CamShakeEffff
0000000000239b9c T _ZN7CCamera27DeleteCutSceneCamDataMemoryEv
0000000000239bf8 T _ZN7CCamera13GetScreenRectER5CRectb
0000000000239d80 T _ZN7CCamera24DrawBordersForWideScreenEv
0000000000239ecc T _ZN7CCamera18SetMotionBlurAlphaEi
0000000000239ed4 T _ZN7CCamera31Enable1rstPersonCamCntrlsScriptEv
0000000000239ee0 T _ZN7CCamera29Enable1rstPersonWeaponsCameraEv
0000000000239eec T _ZN7CCamera4FadeEfs
0000000000239f2c T _ZN7CCamera18FindCamFrontVectorEv
0000000000239f48 T _ZN7CCamera14FinishCutsceneEv
0000000000239fa0 T _ZN7CCamera23SetPercentAlongCutSceneEf
0000000000239ff8 T _ZN7CCamera10FindCamFOVEv
000000000023a00c T _ZN7CCamera28Find3rdPersonCamTargetVectorEf7CVectorRS0_S1_
000000000023a288 T _ZN7CCamera26Find3rdPersonQuickAimPitchEv
000000000023a338 T _ZN7CCamera21GetCutSceneFinishTimeEv
000000000023a380 T _ZN7CCamera24Get_Just_Switched_StatusEv
000000000023a388 T _ZN7CCamera19GetScreenFadeStatusEv
000000000023a3ac T _ZN7CCamera24GetLookingLRBFirstPersonEv
000000000023a3e8 T _ZN7CCamera16GetLookDirectionEv
000000000023a440 T _ZN7CCamera28GetLookingForwardFirstPersonEv
000000000023a47c T _ZN7CCamera22GetPositionAlongSplineEv
000000000023a484 T _ZN7CCamera4InitEv
000000000023a950 T _ZN7CCamera28InitialiseCameraForDebugModeEv
000000000023a954 T _ZN7CCamera17IsItTimeForNewcamEii
000000000023b2ec T _ZN7CCamera17SetNearClipScriptEf
000000000023b2fc T _ZN7CCamera15LoadPathSplinesEy
000000000023b690 T _ZN7CCamera7ProcessEv
000000000023caa0 T _ZN7CCamera18UpdateTargetEntityEv
000000000023cdd0 T _ZN7CCamera11ProcessFadeEv
000000000023cec0 T _ZN7CCamera16ProcessMusicFadeEv
000000000023cff0 T _ZN7CCamera19ProcessWideScreenOnEv
000000000023d0a0 T _ZN7CCamera25StoreValuesDuringInterPolER7CVectorS1_S1_Rf
000000000023d144 T _ZN7CCamera22CalculateDerivedValuesEv
000000000023d2c0 T _ZN7CCamera20UpdateSoundDistancesEv
000000000023d448 T _ZN7CCamera20TryToStartNewCamModeEi
000000000023ebd4 T _ZN7CCamera16RenderMotionBlurEv
000000000023ec58 T _ZN7CCamera20SetCamCutSceneOffSetERK7CVector
000000000023ec6c T _ZN7CCamera49SetCameraDirectlyInFrontForFollowPed_CamOnAStringEv
000000000023eca4 T _ZN7CCamera13SetFadeColourEhhh
000000000023ecec T _ZN7CCamera22SetNewPlayerWeaponModeEsss
000000000023ed3c T _ZN7CCamera24Using1stPersonWeaponModeEv
000000000023ed5c T _ZN7CCamera35SetParametersForScriptInterpolationEffj
000000000023ed84 T _ZN7CCamera11SetRwCameraEP8RwCamera
000000000023edb8 T _ZN7CCamera15SetWideScreenOnEv
000000000023edc4 T _ZN7CCamera27SetZoomValueFollowPedScriptEs
000000000023edf0 T _ZN7CCamera27SetZoomValueCamStringScriptEs
000000000023eeb0 T _ZN7CCamera27ShouldPedControlsBeRelativeEv
000000000023eecc T _ZN7CCamera11TakeControlEP7CEntityssi
000000000023efac T _ZN7CCamera19TakeControlNoEntityERK7CVectorsi
000000000023eff8 T _ZN7CCamera21TakeControlWithSplineEs
000000000023f018 T _ZN7CCamera17UpdateAimingCoorsERK7CVector
000000000023f0e4 T _Z15GetGTAImageNamev
000000000023f0f0 T _Z22GetLowVehicleImageNamev
000000000023f130 T _Z24GetFixedVehicleImageNamev
000000000023f170 T _Z12CdStreamIniti
000000000023f2cc T _Z16CdStreamAddImagePKc
000000000023f3a8 T _Z12CdStreamReadiPvjj
000000000023f460 T _Z20CdStreamRemoveImagesv
000000000023f4e8 T _Z14GetGTA3ImgSizev
000000000023f4f8 T _Z16CdStreamShutdownv
000000000023f508 T _Z17CdStreamGetStatusi
000000000023f540 T _Z19CdStreamGetLastPosnv
000000000023f550 T _Z12CdStreamSynci
000000000023f578 T _Z20CdStreamGetImageNamei
000000000023f5a4 T _Z20CdStreamGetNumImagesv
000000000023f5b0 T _ZN6CClock10InitialiseEj
000000000023f60c T _ZN6CClock12SetGameClockEhh
000000000023f6b0 T _ZN6CClock18NormaliseGameClockEv
000000000023f76c T _ZN6CClock24GetGameClockMinutesUntilEhh
000000000023f7ac T _ZN6CClock16GetIsTimeInRangeEhh
000000000023f7fc T _ZN6CClock6UpdateEv
000000000023f94c T _ZN6CClock10StoreClockEv
000000000023f9a8 T _ZN6CClock12RestoreClockEv
000000000023f9f4 W _ZN24CControllerConfigManagerC2Ev
000000000023fab8 T _ZN24CControllerConfigManager26MakeControllerActionsBlankEv
000000000023fb54 T _ZN24CControllerConfigManager33ClearSettingsAssociatedWithActionE18e_ControllerAction15eControllerType
000000000023fcbc T _ZN24CControllerConfigManager18GetJoyButtonJustUpEv
000000000023fd04 T _ZN24CControllerConfigManager20GetJoyButtonJustDownEv
000000000023fd4c T _ZN24CControllerConfigManager12SaveSettingsEy
000000000023fe0c T _ZN24CControllerConfigManager12LoadSettingsEy
000000000023ff60 T _ZN24CControllerConfigManager31InitDefaultControlConfigurationEv
000000000024036c T _ZN24CControllerConfigManager36SetControllerKeyAssociatedWithActionE18e_ControllerActioni15eControllerType
00000000002404c0 T _ZN24CControllerConfigManager29InitDefaultControlConfigMouseERK21CMouseControllerState
0000000000240794 T _ZN24CControllerConfigManager34SetMouseButtonAssociatedWithActionE18e_ControllerActioni
00000000002407e4 T _ZN24CControllerConfigManager30InitDefaultControlConfigJoyPadEj
0000000000240a30 T _ZN24CControllerConfigManager35InitialiseControllerActionNameArrayEv
0000000000240fdc T _ZN24CControllerConfigManager21StoreMouseButtonStateE13eMouseButtonsb
0000000000241098 T _ZN24CControllerConfigManager33UpdateJoyInConfigMenus_ButtonDownEii
0000000000241160 T _ZN24CControllerConfigManager34AffectControllerStateOn_ButtonDownEi15eControllerType
0000000000241420 T _ZN24CControllerConfigManager42AffectControllerStateOn_ButtonDown_DrivingEi15eControllerTypeR16CControllerState
0000000000241774 T _ZN24CControllerConfigManager60AffectControllerStateOn_ButtonDown_VehicleAndThirdPersonOnlyEi15eControllerTypeR16CControllerState
0000000000241790 T _ZN24CControllerConfigManager58AffectControllerStateOn_ButtonDown_FirstAndThirdPersonOnlyEi15eControllerTypeR16CControllerState
0000000000241974 T _ZN24CControllerConfigManager50AffectControllerStateOn_ButtonDown_FirstPersonOnlyEi15eControllerTypeR16CControllerState
00000000002419c0 T _ZN24CControllerConfigManager50AffectControllerStateOn_ButtonDown_ThirdPersonOnlyEi15eControllerTypeR16CControllerState
0000000000241aac T _ZN24CControllerConfigManager44AffectControllerStateOn_ButtonDown_AllStatesEi15eControllerTypeR16CControllerState
0000000000241c44 T _ZN24CControllerConfigManager36GetControllerKeyAssociatedWithActionE18e_ControllerAction15eControllerType
0000000000241c58 T _ZN24CControllerConfigManager45AffectControllerStateOn_ButtonDown_DebugStuffEi15eControllerType
0000000000241c5c T _ZN24CControllerConfigManager31UpdateJoyInConfigMenus_ButtonUpEii
0000000000241d34 T _ZN24CControllerConfigManager32AffectControllerStateOn_ButtonUpEi15eControllerType
0000000000241e1c T _ZN24CControllerConfigManager50AffectControllerStateOn_ButtonUp_All_Player_StatesEi15eControllerTypeR16CControllerState
0000000000241e34 T _ZN24CControllerConfigManager43AffectControllerStateOn_ButtonUp_DebugStuffEi15eControllerType
0000000000241e38 T _ZN24CControllerConfigManager21AffectPadFromKeyBoardEv
0000000000241f7c T _ZN24CControllerConfigManager20GetIsKeyboardKeyDownE10RsKeyCodes
000000000024267c T _ZN24CControllerConfigManager18AffectPadFromMouseEv
0000000000242754 T _ZN24CControllerConfigManager20GetIsMouseButtonDownE13eMouseButtons
0000000000242878 T _ZN24CControllerConfigManager18GetIsMouseButtonUpE13eMouseButtons
000000000024299c T _ZN24CControllerConfigManager27ClearSimButtonPressCheckersEv
00000000002429ac T _ZN24CControllerConfigManager22GetIsKeyboardKeyJustUpE10RsKeyCodes
00000000002430c8 T _ZN24CControllerConfigManager24GetIsKeyboardKeyJustDownE10RsKeyCodes
00000000002437e0 T _ZN24CControllerConfigManager22GetIsMouseButtonJustUpE13eMouseButtons
00000000002439b0 T _ZN24CControllerConfigManager28DeleteMatchingCommonControlsE18e_ControllerActioni15eControllerType
0000000000243b14 T _ZN24CControllerConfigManager13GetIsKeyBlankEi15eControllerType
0000000000243b58 T _ZN24CControllerConfigManager31DeleteMatching3rdPersonControlsE18e_ControllerActioni15eControllerType
0000000000243cec T _ZN24CControllerConfigManager35DeleteMatching1rst3rdPersonControlsE18e_ControllerActioni15eControllerType
0000000000243e2c T _ZN24CControllerConfigManager29DeleteMatchingVehicleControlsE18e_ControllerActioni15eControllerType
0000000000244000 T _ZN24CControllerConfigManager39DeleteMatchingVehicle_3rdPersonControlsE18e_ControllerActioni15eControllerType
0000000000244044 T _ZN24CControllerConfigManager32DeleteMatching1rstPersonControlsE18e_ControllerActioni15eControllerType
00000000002440dc T _ZN24CControllerConfigManager30DeleteMatchingActionInitiatorsE18e_ControllerActioni15eControllerType
00000000002444b0 T _ZN24CControllerConfigManager13GetActionTypeE18e_ControllerAction
00000000002444d0 T _ZN24CControllerConfigManager17ResetSettingOrderE18e_ControllerAction
00000000002445dc T _ZN24CControllerConfigManager39GetControllerSettingTextWithOrderNumberE18e_ControllerAction13eContSetOrder
00000000002446b8 T _ZN24CControllerConfigManager32GetControllerSettingTextKeyBoardE18e_ControllerAction15eControllerType
0000000000244bd0 T _ZN24CControllerConfigManager29GetControllerSettingTextMouseE18e_ControllerAction
0000000000244c08 T _ZN24CControllerConfigManager32GetControllerSettingTextJoystickE18e_ControllerAction
0000000000244c7c T _ZN24CControllerConfigManager30GetFirstKeyboardControllerTextE18e_ControllerAction
0000000000244dac T _ZN24CControllerConfigManager25GetNumOfSettingsForActionE18e_ControllerAction
0000000000244df0 T _ZN24CControllerConfigManager26GetWideStringOfCommandKeysEtPst
0000000000244f74 T _ZN24CControllerConfigManager20UpdateJoyButtonStateEi
0000000000245038 T _ZN24CControllerConfigManager23GetIsActionAButtonComboE18e_ControllerAction
0000000000245054 T _ZN24CControllerConfigManager18GetButtonComboTextE18e_ControllerAction
00000000002450b0 T _ZN24CControllerConfigManager34GetMouseButtonAssociatedWithActionE18e_ControllerAction
00000000002450cc T _ZN6CDebug19DebugInitTextBufferEv
00000000002450dc T _ZN6CDebug12DebugAddTextEPKc
00000000002450e0 T _ZN6CDebug22DebugDisplayTextBufferEv
00000000002450e4 T _ZN10CDirectoryC1Ei
00000000002450e4 T _ZN10CDirectoryC2Ei
0000000000245118 T _ZN10CDirectoryD1Ev
0000000000245118 T _ZN10CDirectoryD2Ev
0000000000245128 T _ZN10CDirectory7AddItemERKNS_13DirectoryInfoE
00000000002451e4 T _ZN10CDirectory8FindItemEPKcRjS2_
00000000002452ac T _ZN10CDirectory11ReadDirFileEPKc
0000000000245404 T _ZN10CDirectory12WriteDirFileEPKc
000000000024545c T _ZN6CDummyC1Ev
000000000024545c T _ZN6CDummyC2Ev
00000000002454a0 T _ZN6CDummyD1Ev
00000000002454a0 T _ZN6CDummyD2Ev
00000000002454d8 T _ZN6CDummyD0Ev
0000000000245538 T _ZN6CDummydlEPv
000000000024557c T _ZN6CDummynwEm
0000000000245608 T _ZN6CDummy3AddEv
0000000000245794 T _ZN6CDummy6RemoveEv
000000000024585c T _Z19IsDummyPointerValidP6CDummy
00000000002458ac T _Z30IsDummyPointerValid_NotInWorldP6CDummy
00000000002458f0 T _ZN7CEntityC1Ev
00000000002458f0 T _ZN7CEntityC2Ev
0000000000245990 T _ZN7CEntityD1Ev
0000000000245990 T _ZN7CEntityD2Ev
00000000002459d0 T _ZN7CEntityD0Ev
00000000002459f4 T _ZN7CEntity13SetModelIndexEj
0000000000245a40 T _ZN7CEntity19HasPreRenderEffectsEv
0000000000245c9c T _ZN7CEntity21SetModelIndexNoCreateEj
0000000000245cdc T _ZN7CEntity14CreateRwObjectEv
0000000000245d88 T _ZN7CEntity16AttachToRwObjectEP8RwObject
0000000000245de8 T _ZN7CEntity18DetachFromRwObjectEv
0000000000245e28 T _Z26AtomicRemoveAnimFromSkinCBP8RpAtomicPv
0000000000245e7c T _ZN7CEntity14DeleteRwObjectEv
0000000000245f40 T _ZN7CEntity12GetBoundRectEv
00000000002460f4 T _ZN7CEntity14GetBoundCentreEv
0000000000246110 T _ZN7CEntity14GetBoundCentreER7CVector
0000000000246154 T _ZN7CEntity13UpdateRwFrameEv
0000000000246168 T _ZN7CEntity13UpdateRpHAnimEv
00000000002461a4 T _ZN7CEntity9PreRenderEv
000000000024695c T _ZN7CEntity25ModifyMatrixForTreeInWindEv
0000000000246bc0 T _ZN7CEntity23PreRenderForGlassWindowEv
0000000000246c04 T _ZN7CEntity6RenderEv
0000000000246d00 T _ZN7CEntity13GetIsTouchingEPS_
0000000000246dc0 T _ZN7CEntity13GetIsTouchingERK7CVectorf
0000000000246e54 T _ZN7CEntity9IsVisibleEv
0000000000246e70 T _ZN7CEntity13GetIsOnScreenEv
0000000000246fb8 T _ZN7CEntity16IsVisibleComplexEv
0000000000246fd4 T _ZN7CEntity20GetIsOnScreenComplexEv
00000000002472d4 T _ZN7CEntity3AddEv
00000000002474b4 T _ZN7CEntity6RemoveEv
0000000000247718 T _ZN7CEntity40GetDistanceFromCentreOfMassToBaseOfModelEv
0000000000247738 T _ZN7CEntity16SetupBigBuildingEv
00000000002477c8 T _ZN7CEntity27ModifyMatrixForBannerInWindEv
000000000024797c T _ZN7CEntity16SetRwObjectAlphaEi
0000000000247a0c T _Z20IsEntityPointerValidP7CEntity
0000000000247a6c T _ZN14CEntryInfoNodenwEm
0000000000247af8 T _ZN14CEntryInfoNodedlEPv
0000000000247b3c T _ZN14CEntryInfoList5FlushEv
0000000000247bd8 T _ZN10CEventList10InitialiseEv
0000000000247c14 T _ZN10CEventList8ShutdownEv
0000000000247c18 T _ZN10CEventList6UpdateEv
0000000000247c98 T _ZN10CEventList13RegisterEventE10eEventType12eEventEntityP7CEntityP4CPedi
0000000000247e28 T _ZN10CEventList19ReportCrimeForEventE10eEventTypeyb
0000000000248170 T _ZN10CEventList13RegisterEventE10eEventType7CVectori
0000000000248274 T _ZN10CEventList8GetEventE10eEventTypePi
00000000002482cc T _ZN10CEventList10ClearEventEi
00000000002482f8 T _ZN10CEventList16FindClosestEventE10eEventType7CVectorPi
00000000002483a0 T _ZN11CFileLoader8LoadLineEy
0000000000248434 T _ZN11CFileLoader11ReLoadSceneEPKc
0000000000248574 T _ZN11CFileLoader15LoadObjectTypesEPKc
0000000000248b5c T _Z11GetFilenamePKc
0000000000248b88 T _Z24LoadingScreenLoadingFilePKc
0000000000248c7c T _ZN11CFileLoader9LoadLevelEPKc
0000000000249100 T _ZN11CFileLoader17LoadCollisionFileEPKch
0000000000249248 T _ZN11CFileLoader14LoadAtomicFileEPKc
00000000002492b8 T _ZN11CFileLoader13LoadClumpFileEPKc
000000000024941c T _ZN11CFileLoader9LoadSceneEPKc
00000000002498d0 T _ZN11CFileLoader17LoadTexDictionaryEPKc
000000000024994c T _ZN11CFileLoader17SaveTexDictionaryEP15RwTexDictionaryPKc
00000000002499a0 T _ZN11CFileLoader18AddTexDictionariesEP15RwTexDictionaryS1_
00000000002499e4 T _ZN11CFileLoader22FindRelatedModelInfoCBEP8RpAtomicPv
0000000000249b38 T _ZN11CFileLoader21LoadAtomicFile2ReturnEPKc
0000000000249b9c T _Z11RemoveBlackP10RpMaterialPv
0000000000249bfc T _Z11RemoveBlackP8RpAtomicPv
0000000000249c30 T _Z11ChangeWhiteP10RpMaterialPv
0000000000249c90 T _Z11ChangeWhiteP8RpAtomicPv
0000000000249cc4 W _ZN17MeshListContainerD2Ev
0000000000249cfc T _Z14GetBlackMeshesv
0000000000249d58 W _ZN8MeshListC2EPKc
0000000000249fbc T _Z17GetBackFaceMeshesv
000000000024a018 T _Z15GetShadedMeshesv
000000000024a074 T _Z14GetWhiteMeshesv
000000000024a0d0 T _ZN11CFileLoader21SetRelatedModelInfoCBEP8RpAtomicPv
000000000024a5b4 T _ZN11CFileLoader14LoadAtomicFileEP8RwStreamj
000000000024a648 T _Z11CheckNativeP8RpAtomicPv
000000000024a66c T _Z13IsClumpNativeP7RpClump
000000000024a6a8 T _ZN11CFileLoader13LoadClumpFileEP8RwStreamj
000000000024a9cc T _ZN11CFileLoader18StartLoadClumpFileEP8RwStreamj
000000000024aa0c T _ZN11CFileLoader19FinishLoadClumpFileEP8RwStreamj
000000000024aa58 T _ZN11CFileLoader10LoadObjectEPKc
000000000024ac64 T _ZN11CFileLoader14LoadTimeObjectEPKc
000000000024aeb0 T _ZN11CFileLoader16LoadWeaponObjectEPKc
000000000024af8c T _ZN11CFileLoader15LoadClumpObjectEPKc
000000000024b034 T _ZN11CFileLoader17LoadVehicleObjectEPKc
000000000024b4b4 T _ZN11CFileLoader13LoadPedObjectEPKc
000000000024b5ec T _ZN11CFileLoader14LoadPathHeaderEPKcRi
000000000024b648 T _ZN11CFileLoader15LoadPedPathNodeEPKcii
000000000024b834 T _ZN11CFileLoader15LoadCarPathNodeEPKciib
000000000024ba40 T _ZN11CFileLoader12Load2dEffectEPKc
000000000024bda0 T _ZN11CFileLoader9LoadHandsEPKc
000000000024be48 T _ZN11CFileLoader11ReloadPathsEPKc
000000000024c074 T _ZN11CFileLoader17ReloadObjectTypesEPKc
000000000024c264 T _ZN11CFileLoader12ReloadObjectEPKc
000000000024c3f4 T _Z17SetModelInfoFlagsP16CSimpleModelInfoj
000000000024c42c T _ZN11CFileLoader18LoadObjectInstanceEPKc
000000000024c8f0 T _ZN11CFileLoader8LoadZoneEPKc
000000000024c994 T _ZN11CFileLoader12LoadCullZoneEPKc
000000000024ca44 T _ZN11CFileLoader19LoadOcclusionVolumeEPKc
000000000024cae0 T _ZN11CFileLoader10LoadPickupEPKc
000000000024cb3c T _ZN11CFileLoader18LoadCollisionModelEPhR9CColModelPc
000000000024ce38 T _ZN11CFileLoader17LoadCollisionFileEPhjh
000000000024d00c T _ZN11CFileLoader26LoadCollisionFileFirstTimeEPhjh
000000000024d18c T _ZN11CFileLoader23LoadBBFromCollisionFileEPhjh
000000000024d330 T _ZN11CFileLoader15LoadBoundingBoxEPhR9CColModel
000000000024d36c W _ZN8MeshListD2Ev
000000000024d5d0 W _ZN8MeshList8AddEntryEPKc
000000000024d7f8 T _ZN8CFileMgr10InitialiseEv
000000000024d7fc T _ZN8CFileMgr9ChangeDirEPKc
000000000024d890 T _ZN8CFileMgr6SetDirEPKc
000000000024d918 T _ZN8CFileMgr17SetDirMyDocumentsEv
000000000024d924 T _ZN8CFileMgr8LoadFileEPKcPhiS1_
000000000024d9e8 T _ZN8CFileMgr8OpenFileEPKcS1_
000000000024da84 T _ZN8CFileMgr12OpenUserFileEPKcS1_
000000000024db0c T _ZN8CFileMgr18OpenFileForWritingEPKc
000000000024db88 T _ZN8CFileMgr20OpenFileForAppendingEPKc
000000000024db90 T _ZN8CFileMgr4ReadEyPci
000000000024dbb8 T _ZN8CFileMgr5WriteEyPci
000000000024dbe0 T _ZN8CFileMgr4SeekEyii
000000000024dc2c T _ZN8CFileMgr8ReadLineEyPci
000000000024dde8 T _ZN8CFileMgr9CloseFileEy
000000000024de04 T _ZN8CFileMgr12LoadTextFileEPKcPhi
000000000024de68 T _ZN8CFileMgr12InitCdSystemEv
000000000024de6c T _ZN8CFileMgr6InitCdEv
000000000024de70 T _ZN8CFileMgr17GetErrorReadWriteEy
000000000024de78 T _ZN8CFileMgr10GetCdErrorEv
000000000024de80 T _ZN8CFileMgr16GetCdErrorStringEi
000000000024de88 T _ZN8CFileMgr9GetCdFileEPKcRjS2_
000000000024de90 T _ZN8CFileMgr6ReadCdEjPcj
000000000024de98 T _ZN8CFileMgr6SyncCdEv
000000000024dea0 T _ZN5CFireC1Ev
000000000024dea0 T _ZN5CFireC2Ev
000000000024ded0 T _ZN5CFireD1Ev
000000000024ded0 T _ZN5CFireD2Ev
000000000024ded4 T _ZN12CFireManagerC1Ev
000000000024ded4 T _ZN12CFireManagerC2Ev
000000000024e100 T _ZN12CFireManagerD1Ev
000000000024e100 T _ZN12CFireManagerD2Ev
000000000024e258 T _ZN12CFireManager15GetNextFreeFireEv
000000000024e294 T _ZN12CFireManager6UpdateEv
000000000024e2d8 T _ZN5CFire11ProcessFireEv
000000000024e7cc T _ZN12CFireManager15FindNearestFireE7CVectorPf
000000000024e858 T _ZN12CFireManager33FindFurthestFire_NeverMindFireMenE7CVectorff
000000000024e8e4 T _ZN12CFireManager9StartFireE7CVectorfh
000000000024e9a8 T _ZN5CFire14ReportThisFireEv
000000000024e9d0 T _ZN12CFireManager9StartFireEP7CEntityS1_fh
000000000024ed88 T _ZN5CFire10ExtinguishEv
000000000024ee64 T _ZN12CFireManager15ExtinguishPointE7CVectorf
000000000024eef4 T _ZN12CFireManager24ExtinguishPointWithWaterE7CVectorf
000000000024f124 T _ZN12CFireManager15StartScriptFireERK7CVectorP7CEntityfh
000000000024f32c T _ZN12CFireManager24IsScriptFireExtinguishedEs
000000000024f348 T _ZN12CFireManager16RemoveScriptFireEs
000000000024f378 T _ZN12CFireManager20RemoveAllScriptFiresEv
000000000024f3cc T _ZN12CFireManager18SetScriptFireAudioEsb
000000000024f41c T _Z15ValidateVersionv
000000000024f548 T _ZN5CGame22InitialiseOnceBeforeRWEv
000000000024f568 T _ZN5CGame20InitialiseRenderWareEv
000000000024f670 T _ZN5CGame18ShutdownRenderWareEv
000000000024f774 T _ZN5CGame21InitialiseOnceAfterRWEv
000000000024f898 T _ZN5CGame13FinalShutdownEv
000000000024f8b0 T _ZN5CGame18InitAfterLostFocusEv
000000000024f904 T _ZN5CGame10InitialiseEPKc
000000000024fdf4 T _ZN5CGame8ShutdownEv
000000000024fee8 T _ZN5CGame25ReInitGameObjectVariablesEv
0000000000250070 T _ZN5CGame10ReloadIPLsEv
0000000000250074 T _ZN5CGame18ShutDownForRestartEv
00000000002500e4 T _ZN5CGame12TidyUpMemoryEbb
00000000002500e8 T _ZN5CGame24InitialiseWhenRestartingEv
0000000000250204 T _ZN5CGame7ProcessEv
0000000000250454 T _ZN5CGame35GenerateTempPedAtStartOfNetworkGameEv
0000000000250458 T _ZN5CGame19DrasticTidyUpMemoryEb
000000000025045c T _ZN5CGame19ProcessTidyUpMemoryEv
0000000000250460 T _ZN5CGame25CanSeeOutSideFromCurrAreaEv
0000000000250484 T _ZN5CGame23CanSeeWaterFromCurrAreaEv
00000000002504a0 T _ZN8CGeneral21GetAngleBetweenPointsEffff
0000000000250584 T _ZN8CGeneral27GetRadianAngleBetweenPointsEffff
0000000000250658 T _ZN8CGeneral10LimitAngleEf
00000000002506b4 T _ZN8CGeneral16LimitRadianAngleEf
0000000000250740 T _ZN8CGeneral11GetATanOfXYEff
0000000000250870 T _ZN8CGeneral24GetNodeHeadingFromVectorEff
00000000002509a8 T _ZN8CGeneral14SolveQuadraticEfffRfS0_
00000000002509f8 W _ZN7OSArrayI18QueuedHelpIconDataED2Ev
0000000000250a2c T _ZN4CHIDC2Ev
0000000000250a54 T _ZN4CHID12GetInputTypeEv
0000000000250a80 T _ZN4CHID13IsJustPressedE10HIDMapping
0000000000250ab8 T _ZN4CHID9IsPressedE10HIDMappingPf
0000000000250af4 T _ZN4CHID10IsReleasedE10HIDMapping
0000000000250b2c T _ZN4CHID10ImplementsE10HIDMapping
0000000000250b64 T _ZN4CHID19CheckForInputChangeEv
00000000002511d4 T _ZN4CHID14GetGamepadTypeEv
0000000000251204 T _ZN4CHID18IsReleasedPositiveE10HIDMapping
000000000025123c T _ZN4CHID18IsReleasedNegativeE10HIDMapping
0000000000251274 T _ZN4CHID17IsPressedPositiveE10HIDMapping
00000000002512ac T _ZN4CHID17IsPressedNegativeE10HIDMapping
00000000002512e4 T _ZN4CHID16GetMappingWeightE10HIDMapping
000000000025131c T _ZN4CHID15MappingIsAnalogE10HIDMapping
0000000000251354 T _ZN4CHID8ReplacesE10HIDMapping
000000000025138c T _ZN4CHID12DrawHelpIconE10HIDMappingfffib11SpecialFlag
00000000002513d0 T _ZN4CHID15FlushQueuedTextEv
00000000002513fc T _ZN4CHID20FlushQueuedHelpIconsEv
00000000002514b4 T _ZN4CHID16QueueHIDHelpIconEPsRK9CVector2Dff
000000000025189c T _ZN4CHID14IsDoubleTappedE10HIDMappingb
00000000002518dc W _ZN4CHIDD2Ev
00000000002518e0 W _ZN4CHIDD0Ev
00000000002518e4 W _ZN4CHID25InternalCacheAnalogValuesEj
00000000002518e8 W _ZN4CHID26InternalIsReleasedPositiveE10HIDMapping
00000000002518f0 W _ZN4CHID26InternalIsReleasedNegativeE10HIDMapping
00000000002518f8 W _ZN4CHID25InternalIsPressedPositiveE10HIDMapping
0000000000251900 W _ZN4CHID25InternalIsPressedNegativeE10HIDMapping
0000000000251908 W _ZN4CHID24InternalGetMappingWeightE10HIDMapping
0000000000251910 W _ZN4CHID23InternalMappingIsAnalogE10HIDMapping
0000000000251918 W _ZN4CHID20InternalDrawHelpIconE10HIDMappingfffib11SpecialFlag
000000000025191c W _ZN4CHID23InternalFlushQueuedTextEv
0000000000251940 T _ZN12CHIDJoystickC2EPKc
00000000002519d4 T _ZN12CHIDJoystick10AddMappingEi10HIDMapping23RequiredAnalogDirection
0000000000251aa8 T _ZN12CHIDJoystick18InternalImplementsE10HIDMapping
0000000000251b00 T _ZN12CHIDJoystick21InternalIsJustPressedE10HIDMapping
0000000000251bbc T _ZN12CHIDJoystick17InternalIsPressedE10HIDMappingPf
0000000000251ce8 T _ZN12CHIDJoystick18InternalIsReleasedE10HIDMapping
0000000000251da0 T _ZN12CHIDJoystick26InternalIsReleasedNegativeE10HIDMapping
0000000000251e3c T _ZN12CHIDJoystick26InternalIsReleasedPositiveE10HIDMapping
0000000000251ed8 T _ZN12CHIDJoystick25InternalIsPressedPositiveE10HIDMapping
0000000000251f30 T _ZN12CHIDJoystick25InternalIsPressedNegativeE10HIDMapping
0000000000251f88 T _ZN12CHIDJoystick25InternalCacheAnalogValuesEj
0000000000252128 T _ZN12CHIDJoystick23InternalMappingIsAnalogE10HIDMapping
0000000000252188 T _ZN12CHIDJoystick16InternalReplacesE10HIDMapping
00000000002521cc T _ZN12CHIDJoystick20InternalDrawHelpIconE10HIDMappingfffib11SpecialFlag
00000000002522cc T _ZN12CHIDJoystick22InternalIsDoubleTappedE10HIDMappingb
000000000025241c W _ZN12CHIDJoystickD2Ev
0000000000252464 W _ZN12CHIDJoystickD0Ev
0000000000252468 W _ZN12CHIDJoystick20InternalGetInputTypeEv
0000000000252470 T _ZN19CHIDJoystickXbox360C1EPKc
0000000000252470 T _ZN19CHIDJoystickXbox360C2EPKc
000000000025298c T _ZN19CHIDJoystickXbox36018FindUVsFromMappingE10HIDMappingb11SpecialFlag
0000000000252ad4 W _ZN19CHIDJoystickXbox360D0Ev
0000000000252b18 W _ZN19CHIDJoystickXbox36022InternalGetGamepadTypeEv
0000000000252b20 W _ZN7OSArrayI7KeyPairED2Ev
0000000000252b54 W _ZN7OSArrayI11MappingPairED2Ev
0000000000252b88 T _ZN12CHIDKeyboardC2EPKc
0000000000258e1c T _ZN12CHIDKeyboard10AddMappingE13OSKeyboardKey10HIDMappingb12MouseButtons
0000000000258efc T _ZN12CHIDKeyboard21InternalIsJustPressedE10HIDMapping
0000000000258f1c T _ZN12CHIDKeyboard15GetPressedValueE10HIDMappingPf
0000000000259058 T _ZN12CHIDKeyboard17InternalIsPressedE10HIDMappingPf
0000000000259078 T _ZN12CHIDKeyboard18InternalIsReleasedE10HIDMapping
000000000025915c T _ZN12CHIDKeyboard18InternalImplementsE10HIDMapping
00000000002591b4 T _ZN12CHIDKeyboard24InternalGetMappingWeightE10HIDMapping
0000000000259208 T _ZN12CHIDKeyboard16InternalReplacesE10HIDMapping
0000000000259260 T _ZN12CHIDKeyboard20InternalDrawHelpIconE10HIDMappingfffib11SpecialFlag
0000000000259468 T _ZN12CHIDKeyboard23InternalFlushQueuedTextEv
00000000002596c0 T _ZN12CHIDKeyboard16GetMappingStringE13OSKeyboardKey
000000000025971c T _ZN12CHIDKeyboard10GetTagNameE13OSKeyboardKey
000000000025976c T _ZN12CHIDKeyboard16GetMappingStringE10HIDMappingb
00000000002598f8 T _ZN12CHIDKeyboard22InternalIsDoubleTappedE10HIDMappingb
0000000000259a28 T _ZN12CHIDKeyboard25InternalCacheAnalogValuesEj
0000000000259af8 W _ZN12CHIDKeyboardD2Ev
0000000000259b5c W _ZN12CHIDKeyboardD0Ev
0000000000259b60 W _ZN12CHIDKeyboard20InternalGetInputTypeEv
0000000000259b68 W _ZN12CHIDKeyboard22InternalGetGamepadTypeEv
0000000000259bc4 T _ZN14CHIDKeyboardPCC1EPKc
0000000000259bc4 T _ZN14CHIDKeyboardPCC2EPKc
0000000000259c10 T _ZN14CHIDKeyboardPC17DoDefaultMappingsEv
000000000025a1b0 T _ZN14CHIDKeyboardPC18FindUVsFromMappingE10HIDMappingb11SpecialFlag
000000000025a278 W _ZN14CHIDKeyboardPCD0Ev
000000000025a2d8 T _ZN8CIniFile11LoadIniFileEv
000000000025a420 T _Z13TestStreamingv
000000000025a774 T _Z21DoRWStuffStartOfFramesssssss
000000000025a964 T _Z19DoRWStuffEndOfFramev
000000000025a998 T _Z8GameInitb
000000000025aa00 T _Z13LoadingScreenPKcS0_S0_
000000000025ada0 T _Z10IdleThreadPv
000000000025ada0 T _Z16CreateIdleThreadv
000000000025ada4 T _Z12RwGrabScreenP8RwCameraPc
000000000025adac T _Z29DoRWStuffStartOfFrame_Horizonsssssss
000000000025aeb0 T _Z17DoRWRenderHorizonv
000000000025aeb4 T _Z6DoFadev
000000000025b2f4 T _Z10LoadSplashPKc
000000000025b4ec T _Z12PluginAttachv
000000000025b540 T _Z17NewTileRendererCBP8RwCameraiiPv
000000000025b924 T _Z19DestroySplashScreenv
000000000025b96c T _Z21GetRandomSplashScreenv
000000000025ba00 T _Z20GetLevelSplashScreeni
000000000025ba0c T _Z21ResetLoadingScreenBarv
000000000025ba1c T _Z19LoadingIslandScreenPKc
000000000025ba20 T _Z16PrintRwUsageInfov
000000000025ba24 T _Z16PrintMemoryUsagev
000000000025ce68 T _Z22MemoryCardVersionCheckv
000000000025ce6c T _Z15ProcessSlowModev
000000000025cf98 T _Z14TheModelViewerv
000000000025d0c0 T _Z7TheGamev
000000000025d100 T _Z11RenderScenev
000000000025d170 T _Z15RenderDebugShitv
000000000025d174 T _Z13RenderEffectsv
000000000025d224 T _Z13Render2dStuffv
000000000025d3b4 T _Z11RenderMenusv
000000000025d3f0 T _Z22Render2dStuffAfterFadev
000000000025d418 T _Z4IdlePv
000000000025d6fc T _Z12FrontendIdlev
000000000025d81c T _Z14InitialiseGamev
000000000025d83c T _Z15AppEventHandler7RsEventPv
000000000025d9b8 T _Z14IsCheatEnabledi
000000000025d9c0 T _Z9IsIPhoneXv
000000000025d9c8 T _Z16IsUpDownInvertedv
000000000025d9d8 T _Z6strlwrPc
000000000025da0c T _Z6struprPc
000000000025da44 T _Z22GetMobileEffectSettingv
000000000025da54 T _Z17WasButtonReleasedv
000000000025dab0 T _Z13LoadMenuIconsv
000000000025dc68 T _Z15UnloadMenuIconsv
000000000025dcc4 T _Z16GetIconForOptionPKc
000000000025dff8 T _ZN12CMenuManagerC1Ev
000000000025dff8 T _ZN12CMenuManagerC2Ev
000000000025e0d0 T _ZN12CMenuManagerD1Ev
000000000025e0d0 T _ZN12CMenuManagerD2Ev
000000000025e108 T _ZN12CMenuManager14UnloadTexturesEv
000000000025e214 T _Z22FindStringWithGameTypei
000000000025e250 T _Z21FindStringWithGameMapi
000000000025e28c T _Z23SetLocalizedLegalScreenR9CSprite2d
000000000025e298 T _ZN12CMenuManager15LoadAllTexturesEv
000000000025e510 T _ZN12CMenuManager18CentreMousePointerEv
000000000025e514 T _ZN12CMenuManager14ChangeLanguageENS_8LANGUAGEE
000000000025e52c T _ZN12CMenuManager33InitialiseChangedLanguageSettingsEv
000000000025e6bc T _ZN12CMenuManager12DrawFrontEndEv
000000000025e8c0 T _ZN12CMenuManager18DrawFrontEndNormalEv
000000000025f2fc T _ZN12CMenuManager13DrawCharacterEiiif
000000000025f430 T _ZN12CMenuManager8StretchYEf
000000000025f45c T _Z18DrawMenuBackgroundh
000000000025f574 T _ZN12CMenuManager4DrawEv
0000000000263474 T _ZN12CMenuManager17HandleScrollInputEv
0000000000263a80 T _ZN12CMenuManager14DrawScrollMenuEv
00000000002642f0 T _ZN12CMenuManager8StretchXEf
000000000026431c W _ZN14MenuItemCoordsC2Eff
000000000026465c T _ZN12CMenuManager17DrawLoadingScreenEv
000000000026484c T _ZN12CMenuManager10PrintStatsEv
0000000000264fa8 T _ZN12CMenuManager11PrintBriefsEv
00000000002652bc T _ZN12CMenuManager9PrintHelpEv
0000000000265550 T _ZN12CMenuManager12PrintCreditsEv
00000000002658cc T _ZN12CMenuManager22DrawVerticalScrollMenuEv
0000000000265f74 T _ZN12CMenuManager6FadeInEi
0000000000265fb0 T _ZN12CMenuManager28DrawContollerScreenExtraTextEiii
0000000000266450 T _ZN12CMenuManager15ResetHelperTextEv
0000000000266460 T _ZN12CMenuManager13SetHelperTextEi
0000000000266470 T _ZN12CMenuManager13DisplaySliderEffffff
00000000002669dc T _ZN12CMenuManager10CheckHoverEiiii
0000000000266a14 T _ZN12CMenuManager17DisplayHelperTextEPc
0000000000266e20 T _ZN12CMenuManager15PrintControllerEv
00000000002673a8 T _ZN12CMenuManager21DrawPlayerSetupScreenEv
00000000002673ac T _ZN12CMenuManager25DrawControllerSetupScreenEv
00000000002673b0 T _ZN12CMenuManager19DrawGamesListScreenEv
00000000002673b4 T _ZN12CMenuManager25HandleVerticalScrollInputEv
00000000002678a8 T _ZN12CMenuManager17JumpToErrorScreenEPc
00000000002678e8 T _Z18DrawControllerIcon19TouchscreenButtonIdffPKcff
0000000000267b8c T _ZN12CMenuManager31FilterOutColorMarkersFromStringEPsR5CRGBA
0000000000267d68 T _ZN12CMenuManager26DrawMemoryCardStartUpMenusEv
0000000000267d6c T _ZN12CMenuManager7ProcessEv
000000000026850c T _ZN12CMenuManager13ApplySettingsEv
00000000002685b4 T _ZN12CMenuManager23RequestFrontEndShutDownEv
00000000002685f0 T _ZN12CMenuManager22RequestFrontEndStartUpEv
0000000000268604 T _ZN12CMenuManager18SwitchMenuOnAndOffEv
00000000002687a8 T _ZN12CMenuManager34SaveLoadFileError_SetUpErrorScreenEv
0000000000268834 T _ZN12CMenuManager29DoSettingsBeforeStartingAGameEv
00000000002689b4 T _ZN12CMenuManager26RockstarGateBeforeLoadGameEi
00000000002689c8 T _ZN12CMenuManager10OnLoadGameEi
0000000000268b34 T _ZN12CMenuManager20ProcessButtonPressesEv
000000000026a774 T _ZN12CMenuManager12SaveSettingsEv
000000000026abd8 T _ZN12CMenuManager21CheckCodesForControlsEi
000000000026ae30 T _ZN12CMenuManager4BackEv
000000000026ae5c T _Z15CheckForAppRatev
000000000026aebc T _ZN12CMenuManager25RockstarGateBeforeNewGameEv
000000000026aed0 T _ZN12CMenuManager33GetStartOptionsCntrlConfigScreensEv
000000000026aef0 T _ZN12CMenuManager23ProcessOnOffMenuOptionsEv
000000000026b3ac T _ZN12CMenuManager19CheckSliderMovementEf
000000000026b6f0 T _ZN12CMenuManager16ShutDownJustMenuEv
000000000026b714 T _ZN12CMenuManager19PickNewPlayerColourEv
000000000026b7e0 T _ZN12CMenuManager12LoadSettingsEv
000000000026be9c T _ZN12CMenuManager31GetNumOptionsCntrlConfigScreensEv
000000000026bebc T _ZN12CMenuManager19DrawControllerBoundEiiia
000000000026ce64 T _ZN12CMenuManager13WaitForUserCDEv
000000000026ced8 T _ZN12CMenuManager13MessageScreenEPKcb
000000000026d124 T _Z12InitRadarMapv
000000000026d280 T _Z14DeleteRadarMapv
000000000026d33c T _ZN12CMenuManager23SetFrontEndRenderStatesEv
000000000026d39c T _ZN12CMenuManager15GetRadarMapRectEv
000000000026d508 T _ZN12CMenuManager8PrintMapEv
000000000026da1c T _ZN12CMenuManager14HandleMapInputEv
000000000026db58 T _Z25OS_OnRockstarGateCompleteib
000000000026dbf8 T _ZN12CMenuManager9OnNewGameEv
000000000026dbfc T _ZN12CMenuManager20OnResumeLoadLastSaveEv
000000000026dc18 T _Z34OS_OnRockstarCloudDisabledCompletev
000000000026dc1c T _Z36OS_OnRockstarAccountDeletionCompletev
000000000026dc20 T _Z27OS_OnRockstarSignInCompletev
000000000026dc24 T _Z28OS_OnRockstarSignOutCompletev
000000000026dc28 T _Z26OS_OnRockstarTicketChangedRKNSt6__ndk112basic_stringIcNS_11char_traitsIcEENS_9allocatorIcEEEE
000000000026dc2c T _Z22OS_OnRockstarIdChangedRKNSt6__ndk112basic_stringIcNS_11char_traitsIcEENS_9allocatorIcEEEE
000000000026dc30 T _ZN12CMenuManager30RockstarGateBeforeLoadLastSaveEv
000000000026dcb4 T _Z16InitModelIndicesv
000000000026e31c T _Z16MatchModelStringPct
0000000000271234 T _Z16TestModelIndicesv
0000000000271238 T _Z8IntToStriPc
0000000000271308 T _Z6ObrInti
00000000002713e4 T _Z7ObrInt2ii
00000000002715cc T _Z7ObrInt3iii
00000000002718b8 T _Z7ObrInt4iiii
0000000000271c9c T _Z7ObrInt5iiiii
0000000000272180 T _Z7ObrInt6iiiiii
000000000027275c T _Z12WeaponCheat1v
0000000000272914 T _Z12WeaponCheat2v
0000000000272ab0 T _Z12WeaponCheat3v
0000000000272c54 T _Z11HealthCheath
0000000000272d38 T _Z12VehicleCheati
00000000002732a0 T _Z17ChangePlayerModelPKc
0000000000273324 T _Z9TankCheatv
000000000027349c T _Z10FunnyCheatv
0000000000273760 T _Z13StockCarCheatv
0000000000273768 T _Z11HearseCheatv
0000000000273770 T _Z13LovefistCheatv
0000000000273778 T _Z16TrashmasterCheatv
0000000000273780 T _Z15SabreTurboCheatv
0000000000273788 T _Z13GolfcartCheatv
0000000000273790 T _Z14StockCar2Cheatv
0000000000273798 T _Z14StockCar3Cheatv
00000000002737a0 T _Z14StockCar4Cheatv
00000000002737a8 T _Z17ChangePlayerCheatPKc
00000000002737dc T _Z11ClearCheatsv
00000000002737fc T _Z15BlowUpCarsCheatv
00000000002738a0 T _Z17ChangePlayerCheatv
00000000002739fc T _Z11MayhemCheatv
0000000000273af0 T _Z27EverybodyAttacksPlayerCheatv
0000000000273c68 T _Z18WeaponsForAllCheatv
0000000000273cdc T _Z13FastTimeCheatv
0000000000273d34 T _Z13SlowTimeCheatv
0000000000273d90 T _Z15NormalTimeCheatv
0000000000273dc8 T _Z14PauseTimeCheatv
0000000000273e00 T _Z15TimeTravelCheatv
0000000000273e08 T _Z10SuperCheatv
0000000000273ec4 T _Z20WantedLevelDownCheatv
0000000000273f3c T _Z11ArmourCheatv
0000000000273f90 T _Z18WantedLevelUpCheatv
0000000000274008 T _Z17SunnyWeatherCheatv
0000000000274040 T _Z22ExtraSunnyWeatherCheatv
0000000000274078 T _Z18CloudyWeatherCheatv
00000000002740b0 T _Z17RainyWeatherCheatv
00000000002740e8 T _Z17FoggyWeatherCheatv
0000000000274120 T _Z16FastWeatherCheatv
0000000000274168 T _Z21OnlyRenderWheelsCheatv
00000000002741dc T _Z25ChittyChittyBangBangCheatv
0000000000274250 T _Z15StrongGripCheatv
00000000002742c4 T _Z20DoShowChaseStatCheatv
0000000000274310 T _Z21DoChicksWithGunsCheatv
00000000002743bc T _Z12SuicideCheatv
000000000027442c T _Z19InfiniteSprintCheatv
000000000027445c T _Z17ShowPedNamesCheatv
0000000000274474 T _Z18TrafficLightsCheatv
00000000002744c0 T _Z12MadCarsCheatv
000000000027450c T _Z13PinkCarsCheatv
0000000000274564 T _Z14BlackCarsCheatv
00000000002745bc T _Z15BackToTheFuturev
000000000027461c T _Z16SpecialCarCheatsv
000000000027482c T _Z17PickUpChicksCheatv
0000000000274938 T _Z15FlyingFishCheatv
0000000000274998 T _Z16FannyMagnetCheatv
00000000002749f0 T _ZN4CPad10InitialiseEv
0000000000274bfc T _ZN4CPad5ClearEb
0000000000274d50 T _ZN16CControllerState5ClearEv
0000000000274d60 T _ZN16CControllerState13CheckForInputEv
0000000000274efc T _ZN4CPad6GetPadEi
0000000000274f14 T _ZN4CPad19GetPedWalkLeftRightEb
000000000027504c T _ZN4CPad16GetPedWalkUpDownEb
0000000000275184 T _ZN4CPad26GetCameraRotationLeftRightEP7CEntity
0000000000275264 T _ZN4CPad12JumpJustDownEv
00000000002752c0 T _ZN4CPad9GetSprintEv
000000000027533c T _ZN4CPad19ExitVehicleJustDownEv
00000000002753d0 T _ZN4CPad9GetWeaponEv
0000000000275440 T _ZN4CPad9GetTargetEv
00000000002754b4 T _ZN4CPad23CycleWeaponLeftJustDownEv
0000000000275510 T _ZN4CPad24CycleWeaponRightJustDownEv
000000000027556c T _ZN4CPad23CycleCameraModeJustDownEv
0000000000275624 T _ZN14CKeyboardState5ClearEv
0000000000275660 T _ZN4CPad20ClearKeyBoardHistoryEv
00000000002756fc T _ZN21CMouseControllerState5ClearEv
0000000000275708 T _ZN4CPad15InputHowLongAgoEv
0000000000275720 T _ZN4CPad17ClearMouseHistoryEv
0000000000275754 T _ZN21CMouseControllerStateC1Ev
0000000000275754 T _ZN21CMouseControllerStateC2Ev
0000000000275764 T _ZN24CMousePointerStateHelper13GetMouseSetUpEv
00000000002757b0 T _ZN4CPad11UpdateMouseEv
00000000002757b4 T _ZN4CPad28ReconcileTwoControllersInputERK16CControllerStateS2_
0000000000275c4c T _ZN4CPad18SetDrunkInputDelayEi
0000000000275c54 T _ZN4CPad10StartShakeEsh
0000000000275cb0 T _ZN4CPad19StartShake_DistanceEshfff
0000000000275d48 T _ZN4CPad16StartShake_TrainEff
0000000000275e34 T _Z13Cheat_strncmpPcS_
0000000000275f84 T _ZN4CPad18AddToPCCheatStringEc
0000000000276968 T _ZN4CPad10UpdatePadsEv
0000000000276b94 T _ZN4CPad6UpdateEs
0000000000276d74 T _ZN4CPad22ProcessPCSpecificStuffEv
0000000000276d78 T _ZN4CPad16GetAnaloguePadUpEv
0000000000276da0 T _ZN4CPad18GetAnaloguePadDownEv
0000000000276dc8 T _ZN4CPad18GetAnaloguePadLeftEv
0000000000276df0 T _ZN4CPad19GetAnaloguePadRightEv
0000000000276e18 T _ZN4CPad24GetAnaloguePadLeftJustUpEv
0000000000276e54 T _ZN4CPad25GetAnaloguePadRightJustUpEv
0000000000276e90 T _ZN4CPad18ResetAverageWeaponEv
0000000000276f08 T _ZN4CPad16GetAverageWeaponEv
0000000000276f18 T _ZN4CPad17PrintErrorMessageEv
000000000027712c T _Z10LittleTestv
0000000000277140 T _ZN4CPad11ResetCheatsEv
0000000000277234 T _ZN4CPad10EditStringEPci
0000000000277518 T _ZN4CPad20EditCodesForControlsEPii
0000000000277bc0 T _ZN4CPad20GetAnalogueLeftRightEv
0000000000277c34 T _ZN4CPad17GetAnalogueUpDownEv
0000000000277ca8 T _ZN4CPad15StopPadsShakingEv
0000000000277cac T _ZN4CPad11StopShakingEs
0000000000277cb0 T _ZN4CPad12PadReadyTestEv
0000000000277cc0 T _ZN4CPad8DoCheatsEv
0000000000277cc4 T _ZN4CPad8DoCheatsEs
0000000000277cc8 T _ZN4CPad7GetHornEv
0000000000277d5c T _ZN4CPad16FixPadsAfterSaveEv
0000000000277d90 T _ZN4CPad15GetStoreBuyItemEv
0000000000277dd8 T _ZN4CPad12GetStoreExitEv
0000000000277e20 T _ZN4CPad12GetStoreLeftEv
0000000000277e80 T _ZN4CPad13GetStoreRightEv
0000000000277ee0 T _ZN4CPad19GetLookBehindForPedEv
0000000000277f38 T _ZN4CPad12DuckJustDownEv
0000000000277f60 T _ZN4CPad20GetHeliTurnLeftRightEv
0000000000278034 T _ZN4CPad20GetHeliTiltLeftRightEv
0000000000278038 T _ZN4CPad20GetSteeringLeftRightEv
0000000000278184 T _ZN4CPad21GetPlaneTiltLeftRightEv
00000000002781fc T _ZN4CPad17GetHeliTiltUpDownEv
0000000000278334 T _ZN4CPad17GetSteeringUpDownEv
0000000000278434 T _ZN4CPad18GetPlaneTiltUpDownEv
00000000002784ac T _ZN4CPad15GetCarGunUpDownEv
0000000000278570 T _ZN4CPad18GetCarGunLeftRightEv
0000000000278634 T _ZN4CPad23ShiftTargetLeftJustDownEv
0000000000278690 T _ZN4CPad24ShiftTargetRightJustDownEv
0000000000278700 T _ZN4CPad28PhoneOrCollectPickupJustDownEv
000000000027879c T _ZN4CPad17GetFirstPersonCamEv
0000000000278820 T _Z17GetSniperDeadZonev
0000000000278848 T _ZN4CPad23SniperModeLookLeftRightEv
0000000000278a38 T _ZN4CPad20SniperModeLookUpDownEv
0000000000278c6c T _ZN4CPad14WeaponJustDownEv
0000000000278d00 T _ZN4CPad12SniperZoomInEv
0000000000278d80 T _ZN4CPad13SniperZoomOutEv
0000000000278dfc T _ZN4CPad19LookAroundLeftRightEv
0000000000278f5c T _ZN4CPad16LookAroundUpDownEv
00000000002790f8 T _ZN4CPad25CycleCameraModeUpJustDownEv
0000000000279174 T _ZN4CPad27CycleCameraModeDownJustDownEv
00000000002791d8 T _ZN4CPad23ForceCameraBehindPlayerEv
0000000000279220 T _ZN4CPad11GetLookLeftEv
0000000000279290 T _ZN4CPad12GetLookRightEv
0000000000279300 T _ZN4CPad19GetLookBehindForCarEv
000000000027938c T _ZN4CPad14GetCarGunFiredEv
00000000002793f4 T _ZN4CPad14CarGunJustDownEv
0000000000279470 T _ZN4CPad21ChangeStationJustDownEv
0000000000279530 T _ZN4CPad12HornJustDownEv
00000000002795e0 T _ZN4CPad14GetExitVehicleEv
0000000000279664 T _ZN4CPad12GetHandBrakeEv
0000000000279734 T _ZN4CPad22GetFlightPrimaryAttackEv
00000000002797d8 T _ZN4CPad24GetFlightSecondaryAttackEv
00000000002798c0 T _ZN4CPad13GetHeliAscendEv
00000000002799d0 T _ZN4CPad13GetAccelerateEv
0000000000279ac4 T _ZN4CPad14GetHeliDescendEv
0000000000279bd4 T _ZN4CPad8GetBrakeEv
0000000000279cc8 T _ZN4CPad16GetExitTargetingEv
0000000000279d10 T _ZN4CPad16GetCancelCarjackEv
0000000000279d9c T _ZN4CPad14TargetJustDownEv
0000000000279e20 T _ZN4CPad13RadarJustDownEv
0000000000279e38 T _ZN4CPad20SkipCutsceneJustDownEv
0000000000279e84 T _ZN4CPad19GetToggleSubmissionEv
0000000000279ec0 T _ZN4CPad12GetZoomMapInEv
0000000000279f38 T _ZN4CPad13GetZoomMapOutEv
0000000000279fb0 T _Z22DisallowCameraRotationP7CEntity
0000000000279fec T _ZN4CPad23GetCameraRotationUpDownEP7CEntity
000000000027a0c8 T _ZN4CPad24MarketingMoveForwardBackEv
000000000027a1ec T _ZN4CPad22MarketingMoveLeftRightEv
000000000027a310 T _ZN4CPad22MarketingLookLeftRightEv
000000000027a394 T _ZN4CPad19MarketingLookUpDownEv
000000000027a444 T _ZN4CPad18MenuInputLeftRightEv
000000000027a4e4 T _ZN4CPad24MenuInputLeftRightAnalogEv
000000000027a550 T _ZN4CPad21MenuInputUpDownAnalogEv
000000000027a5bc T _ZN4CPad21MenuInputLeftJustDownEv
000000000027a648 T _ZN4CPad22MenuInputRightJustDownEv
000000000027a6d4 T _ZN4CPad19MenuInputUpJustDownEv
000000000027a748 T _ZN4CPad21MenuInputDownJustDownEv
000000000027a7bc T _ZN4CPad11MenuInputUpEv
000000000027a810 T _ZN4CPad13MenuInputDownEv
000000000027a864 T _ZN4CPad23MenuInputAcceptJustDownEv
000000000027a8f0 T _ZN4CPad20MenuInputAcceptMouseEv
000000000027a8f8 T _ZN4CPad23MenuInputCancelJustDownEv
000000000027a974 T _ZN4CPad18ToggleMenuJustDownEv
000000000027a9dc T _ZN4CPad15ToggleCheatMenuEv
000000000027ac3c T _ZN9CPhysicalC1Ev
000000000027ac3c T _ZN9CPhysicalC2Ev
000000000027acf8 T _ZN9CPhysicalD1Ev
000000000027acf8 T _ZN9CPhysicalD2Ev
000000000027ad30 T _ZN9CPhysicalD0Ev
000000000027ad54 T _ZN9CPhysical12GetBoundRectEv
000000000027ada0 T _ZN9CPhysical3AddEv
000000000027af3c T _ZN9CPhysical6RemoveEv
000000000027b004 T _ZN9CPhysical12RemoveAndAddEv
000000000027b2c8 T _ZN9CPhysical15AddToMovingListEv
000000000027b318 T _ZN9CPhysical20RemoveFromMovingListEv
000000000027b380 T _ZN9CPhysical14ApplyMoveForceEfff
000000000027b3b4 T _ZN9CPhysical14ApplyTurnForceEffffff
000000000027b48c T _ZN9CPhysical14ApplyMoveSpeedEv
000000000027b4d0 T _ZN9CPhysical12ApplyGravityEv
000000000027b500 T _ZN9CPhysical13ApplyFrictionEv
000000000027b530 T _ZN9CPhysical18ApplyAirResistanceEv
000000000027b638 T _ZN9CPhysical22ApplyFrictionMoveForceEfff
000000000027b66c T _ZN9CPhysical22ApplyFrictionTurnForceEffffff
000000000027b744 T _ZN9CPhysical14ProcessControlEv
000000000027b920 T _ZN9CPhysical11SkipPhysicsEv
000000000027b988 T _ZN9CPhysical16ProcessCollisionEv
000000000027c4c4 T _ZN9CPhysical24CheckCollision_SimpleCarEv
000000000027c54c W _ZN9CPhysical8GetSpeedER7CVector
000000000027c5f4 T _ZN9CPhysical14ApplyTurnSpeedEv
000000000027c6e8 T _ZN9CPhysical14CheckCollisionEv
000000000027c770 T _ZN9CPhysical26ProcessCollisionSectorListEP8CPtrList
000000000027df08 T _ZN9CPhysical36ProcessCollisionSectorList_SimpleCarEP7CSector
000000000027e7e4 T _ZN9CPhysical12ProcessShiftEv
000000000027eae4 T _ZN9CPhysical22ProcessShiftSectorListEP8CPtrList
000000000027f458 T _ZN9CPhysical28AddCollisionRecord_TreadableEP7CEntity
000000000027f47c T _ZN9CPhysical18AddCollisionRecordEP7CEntity
000000000027f574 T _ZN9CPhysical18GetHasCollidedWithEP7CEntity
000000000027f5b4 T _ZN9CPhysical14ApplyCollisionER9CColPointRf
000000000027f8b8 W _ZN9CPhysical14ApplyTurnForceERK7CVectorS2_
000000000027f980 T _ZN9CPhysical14ApplyCollisionEPS_R9CColPointRfS3_
0000000000280fb4 W _ZN9CPhysical22ApplyFrictionTurnForceER7CVectorS1_
000000000028107c T _ZN9CPhysical17ApplyCollisionAltEP7CEntityR9CColPointRfR7CVectorS6_
00000000002815dc T _ZN9CPhysical20ApplySpringCollisionEfR7CVectorS1_ff
0000000000281728 T _ZN9CPhysical23ApplySpringCollisionAltEfR7CVectorS1_ffS1_
00000000002818b4 T _ZN9CPhysical20ApplySpringDampeningEfR7CVectorS1_S1_
0000000000281b04 T _ZN9CPhysical13ApplyFrictionEfR9CColPoint
0000000000281ec8 T _ZN9CPhysical13ApplyFrictionEPS_fR9CColPoint
00000000002828f4 T _ZN9CPhysical22ProcessEntityCollisionEP7CEntityP9CColPoint
0000000000282b5c T _ZN9CPhysical18RemoveRefsToEntityEP7CEntity
0000000000282bf0 T _ZN9CPhysical36PlacePhysicalRelativeToOtherPhysicalEPS_S0_7CVector
0000000000282cd8 T _ZN10CPlaceableC1Ev
0000000000282cd8 T _ZN10CPlaceableC2Ev
0000000000282d18 T _ZN10CPlaceable10SetHeadingEf
0000000000282d60 T _ZN10CPlaceable7PointAtEfff
0000000000282e8c T _ZN10CPlaceable7PointAtEffff
0000000000282f54 T _ZN10CPlaceable12IsWithinAreaEffff
0000000000282f9c T _ZN10CPlaceable12IsWithinAreaEffffff
0000000000283000 T _ZN11CPlayerInfo5ClearEv
00000000002830b8 T _ZN11CPlayerInfo15IsVehicleNearbyEv
00000000002832b8 T _ZN11CPlayerInfo24FindClosestCarSectorListER8CPtrListP4CPedffffPfPP8CVehicle
00000000002834bc T _ZN11CPlayerInfo7ProcessEv
00000000002848bc T _Z17FindPlayerVehiclev
00000000002848f8 T _Z13FindPlayerPedv
000000000028491c T _Z15FindPlayerCoorsv
000000000028495c T _ZN11CPlayerInfo20IsPlayerInRemoteModeEv
000000000028497c T _ZN11CPlayerInfo14SavePlayerInfoEPhPj
0000000000284b30 T _ZN11CPlayerInfo14LoadPlayerInfoEPhj
0000000000284c08 T _ZN11CPlayerInfo19EvaluateCarPositionEP7CEntityP4CPedfPfPP8CVehicle
0000000000284d20 T _ZN11CPlayerInfo8GetSpeedEv
0000000000284d44 T _ZN11CPlayerInfo6GetPosEv
0000000000284d68 T _Z15FindPlayerSpeedv
0000000000284dac T _Z16FindPlayerEntityv
0000000000284de8 T _Z15FindPlayerTrainv
0000000000284e34 T _Z23FindPlayerCentreOfWorldi
0000000000284eb8 T _Z37FindPlayerCentreOfWorld_NoSniperShiftv
0000000000284f38 T _Z17FindPlayerHeadingv
0000000000284f90 T _Z16FindPlayerHeightv
0000000000284fb8 T _ZN11CPlayerInfo22IsRestartingAfterDeathEv
0000000000284fc8 T _ZN11CPlayerInfo23IsRestartingAfterArrestEv
0000000000284fd8 T _ZN11CPlayerInfo30IsRestartingAfterMissionFailedEv
0000000000284fe8 T _ZN11CPlayerInfo10KillPlayerEv
0000000000285064 T _ZN11CPlayerInfo12ArrestPlayerEv
00000000002850d4 T _ZN11CPlayerInfo27PlayerFailedCriticalMissionEv
00000000002850fc T _ZN11CPlayerInfo24CancelPlayerEnteringCarsEP8CVehicle
0000000000285160 T _ZN11CPlayerInfo14MakePlayerSafeEb
0000000000285384 T _ZN11CPlayerInfo13BlowUpRCBuggyEb
00000000002853f8 T _ZN11CPlayerInfo13SetPlayerSkinEPKc
000000000028543c T _ZN11CPlayerInfo14LoadPlayerSkinEv
0000000000285474 T _ZN11CPlayerInfo16DeletePlayerSkinEv
00000000002854a0 T _ZN6CPools10InitialiseEv
000000000028592c T _ZN6CPools8ShutDownEv
0000000000285bb0 T _ZN6CPools15CheckPoolsEmptyEv
0000000000285bbc T _ZN6CPools9GetPedRefEP4CPed
0000000000285bf4 T _ZN6CPools6GetPedEi
0000000000285c30 T _ZN6CPools13GetVehicleRefEP8CVehicle
0000000000285c68 T _ZN6CPools10GetVehicleEi
0000000000285ca4 T _ZN6CPools12GetObjectRefEP7CObject
0000000000285cdc T _ZN6CPools9GetObjectEi
0000000000285d18 T _ZN17CVehicleSerialize4LoadEP8CVehicle
0000000000285d1c T _ZN17CVehicleSerialize4SaveEP8CVehicle
0000000000285e84 T _ZN14CBoatSerialize4LoadEP5CBoat
0000000000285fc0 T _ZN14CBoatSerialize4SaveEP5CBoat
000000000028611c T _ZN6CPools15LoadVehiclePoolEPhj
000000000028691c T _ZN6CPools15SaveVehiclePoolEPhPj
0000000000287188 T _ZN6CPools14SaveObjectPoolEPhPj
0000000000287404 T _ZN6CPools14LoadObjectPoolEPhj
00000000002876c4 T _ZN6CPools11SavePedPoolEPhPj
0000000000287958 T _ZN6CPools11LoadPedPoolEPhj
0000000000287c48 T _ZN6CPools31MakeSureSlotInObjectPoolIsEmptyEi
0000000000287d2c T _ZN8CProfile10InitialiseEv
0000000000287dc4 T _ZN8CProfile14SuspendProfileE8eProfile
0000000000287e00 T _ZN8CProfile11ShowResultsEv
0000000000287ea4 T _ZN8CPtrNodenwEm
0000000000287f30 T _ZN8CPtrNodedlEPv
0000000000287f74 T _ZN8CPtrList5FlushEv
0000000000288010 T _ZN6CRadar10InitialiseEv
0000000000288134 T _ZN6CRadar19SetRadarMarkerStateEih
0000000000288220 T _ZN6CRadar8ShutdownEv
0000000000288504 T _ZN6CRadar19RemoveRadarSectionsEv
00000000002885c8 T _ZN6CRadar12LoadTexturesEv
0000000000288a08 T _ZN6CRadar21GetNewUniqueBlipIndexEi
0000000000288a3c T _ZN6CRadar23GetActualBlipArrayIndexEi
0000000000288a6c T _ZN6CRadar7DrawMapEv
0000000000288b78 T _ZN6CRadar21CalculateCachedSinCosEv
0000000000288c94 T _ZN6CRadar12DrawRadarMapEv
0000000000288dec T _ZN6CRadar15InitFrontEndMapEv
0000000000288efc T _ZN6CRadar13DrawCoordBlipEi
00000000002893f8 T _ZN6CRadar19GetRadarTraceColourEjh
00000000002894d4 T _ZN6CRadar15ShowRadarMarkerE7CVectorjf
000000000028963c T _ZN6CRadar35TransformRealWorldPointToRadarSpaceER9CVector2DRKS0_
00000000002896a0 T _ZN6CRadar15LimitRadarPointER9CVector2D
000000000028970c T _ZN6CRadar18CalculateBlipAlphaEf
0000000000289788 T _ZN6CRadar32TransformRadarPointToScreenSpaceER9CVector2DRKS0_
0000000000289960 T _ZN6CRadar24ShowRadarTraceWithHeightEffjhhhhh
0000000000289d18 T _ZN6CRadar15DrawRadarSpriteEtffh
0000000000289fa8 T _ZN6CRadar14DrawEntityBlipEi
000000000028a5b8 T _ZN6CRadar18ClearBlipForEntityE9eBlipTypei
000000000028a6c8 T _ZN6CRadar12DrawItemBlipEi
000000000028ac00 T _ZN6CRadar10DrawLegendEiii
000000000028b06c T _ZN6CRadar9DrawBlipsEv
000000000028b6a0 T _ZN6CRadar23DrawRotatingRadarSpriteEP9CSprite2dfffh
000000000028b894 T _ZN6CRadar20DrawYouAreHereSpriteEff
000000000028bb84 T _ZN6CRadar13Draw3dMarkersEv
000000000028beac T _ZN6CRadar36TransformScreenSpaceToRealWorldPointERK9CVector2DRS0_
000000000028c018 T _ZN6CRadar35TransformRadarPointToRealWorldSpaceER9CVector2DRKS0_
000000000028c148 T _ZN6CRadar33TransformRealWorldToTexCoordSpaceER9CVector2DRKS0_ii
000000000028c19c T _ZN6CRadar12SetCoordBlipE9eBlipType7CVectorj12eBlipDisplay
000000000028c238 T _ZN6CRadar22SetShortRangeCoordBlipE9eBlipType7CVectorj12eBlipDisplay
000000000028c2e8 T _ZN6CRadar13SetEntityBlipE9eBlipTypeij12eBlipDisplay
000000000028c378 T _ZN6CRadar9ClearBlipEi
000000000028c498 T _ZN6CRadar16ChangeBlipColourEij
000000000028c4d4 T _ZN6CRadar20ChangeBlipBrightnessEii
000000000028c518 T _ZN6CRadar15ChangeBlipScaleEii
000000000028c56c T _ZN6CRadar17ChangeBlipDisplayEi12eBlipDisplay
000000000028c5a8 T _ZN6CRadar13SetBlipSpriteEii
000000000028c5e4 T _ZN6CRadar14ShowRadarTraceEffjhhhh
000000000028c6f4 T _Z19ClipRadarTileCoordsRiS_
000000000028c738 T _Z17RequestMapSectionii
000000000028c7b0 T _Z16RemoveMapSectionii
000000000028c7f0 T _ZN6CRadar19StreamRadarSectionsEii
000000000028c90c T _Z18IsPointInsideRadarRK9CVector2D
000000000028c944 T _Z17GetTextureCornersiiP9CVector2D
000000000028c990 T _Z21LineRadarBoxCollisionR9CVector2DRKS_S2_
000000000028cb28 T _ZN6CRadar13ClipRadarPolyEP9CVector2DPKS0_
000000000028ce88 T _ZN6CRadar16DrawRadarSectionEii
000000000028d134 T _ZN6CRadar13DrawRadarMaskEv
000000000028d444 T _ZN6CRadar19StreamRadarSectionsERK7CVector
000000000028d490 T _ZN6CRadar17SaveAllRadarBlipsEPhPj
000000000028d550 T _ZN6CRadar17LoadAllRadarBlipsEPhj
000000000028d610 T _Z14DrawScreenBlipifff
000000000028d71c T _Z16DrawShadowedTextffPs
000000000028d828 T _Z11DrawMapIconiffff
000000000028d82c T _ZN6CRadar13DrawScreenMapEffff
000000000028d904 T _ZN8CRange2DC1E9CVector2DS0_
000000000028d904 T _ZN8CRange2DC2E9CVector2DS0_
000000000028d910 T _ZN8CRange2DD1Ev
000000000028d910 T _ZN8CRange2DD2Ev
000000000028d914 T _ZN8CRange2D9IsInRangeE9CVector2D
000000000028d954 T _ZN8CRange2D21GetRandomPointInRangeEv
000000000028d9e0 T _ZN8CRange2D14DebugShowRangeEfi
000000000028d9e4 T _ZN8CRange3DC1E7CVectorS0_
000000000028d9e4 T _ZN8CRange3DC2E7CVectorS0_
000000000028d9f4 T _ZN8CRange3D9IsInRangeE7CVector
000000000028da4c T _ZN8CRange3D21GetRandomPointInRangeEv
000000000028db14 T _ZN8CRange3D14DebugShowRangeEi
000000000028db18 T _ZN11CReferences4InitEv
000000000028db9c T _ZN11CReferences8ListSizeEP10CReference
000000000028dbb8 T _ZN7CEntity17RegisterReferenceEPPS_
000000000028dc14 T _ZN7CEntity19CleanUpOldReferenceEPPS_
000000000028dc68 T _ZN7CEntity17ResolveReferencesEv
000000000028dcc8 T _ZN7CEntity15PruneReferencesEv
000000000028dd18 T _ZN11CReferences24RemoveReferencesToPlayerEv
000000000028ddfc T _ZN11CReferences25PruneAllReferencesInWorldEv
000000000028dfac T _ZN9CRenderer4InitEv
000000000028e01c T _ZN9CRenderer16SortBIGBuildingsEv
000000000028e168 T _ZN9CRenderer8ShutdownEv
000000000028e194 T _ZN9CRenderer19ConstructRenderListEv
000000000028e294 T _ZN9CRenderer9ScanWorldEv
000000000028e7d4 T _ZN9CRenderer9PreRenderEv
000000000028e8ac T _ZN9CRenderer11RenderRoadsEv
000000000028e968 T _ZN9CRenderer13RenderOneRoadEP7CEntity
000000000028e974 T _ZN9CRenderer22RenderFadingInEntitiesEv
000000000028e9b0 T _ZN9CRenderer32RenderFadingInUnderwaterEntitiesEv
000000000028e9c8 T _ZN9CRenderer24RenderEverythingBarRoadsEv
000000000028ec60 T _ZN9CRenderer16RenderOneNonRoadEP7CEntity
000000000028ee74 T _ZN9CRenderer11RenderBoatsEv
000000000028eed8 T _ZN9CRenderer24RenderFirstPersonVehicleEv
000000000028ef64 T _ZN7CEntity13SetupLightingEv
000000000028ef6c T _ZN7CEntity14RemoveLightingEb
000000000028ef70 T _ZN7CObject13SetupLightingEv
000000000028efd8 T _ZN7CObject14RemoveLightingEb
000000000028eff4 T _ZN9CRenderer22RemoveVehiclePedLightsEP7CEntityb
000000000028f02c T _ZN4CPed13SetupLightingEv
000000000028f0d0 T _ZN4CPed14RemoveLightingEb
000000000028f104 T _ZN8CVehicle13SetupLightingEv
000000000028f1a8 T _ZN8CVehicle14RemoveLightingEb
000000000028f1dc T _ZN15CCutsceneObject13SetupLightingEv
000000000028f280 T _ZN15CCutsceneObject14RemoveLightingEb
000000000028f2b4 T _Z12CalcNewDeltaP5RwV2dS0_
000000000028f2cc T _ZN9CRenderer14ScanSectorPolyEP5RwV2diPFvP8CPtrListE
000000000028f78c T _Z18LimitFrustumVectorR7CVectorRKS_f
000000000028f7c8 T _ZN9CRenderer23ScanSectorList_PriorityEP8CPtrList
000000000028f9b0 T _ZN9CRenderer14ScanSectorListEP8CPtrList
000000000028fb90 T _ZN9CRenderer19ScanBigBuildingListER8CPtrList
000000000028fc64 T _ZN9CRenderer26SetupBigBuildingVisibilityEP7CEntity
0000000000290010 T _ZN9CRenderer21SetupEntityVisibilityEP7CEntity
00000000002905a8 T _ZN9CRenderer21ShouldModelBeStreamedEP7CEntityRK7CVector
00000000002906a4 T _ZN9CRenderer28ScanSectorList_RequestModelsEP8CPtrList
0000000000290740 T _ZN9CRenderer23RequestObjectsInFrustumEv
0000000000290b94 T _ZN9CRenderer29SortBIGBuildingsForSectorListEP8CPtrList
0000000000290c18 T _ZN6CRopes4InitEv
0000000000290c4c T _ZN6CRopes6UpdateEv
0000000000290d08 T _ZN5CRope6UpdateEv
0000000000290ea4 T _ZN6CRopes6RenderEv
0000000000290f60 T _ZN5CRope6RenderEv
0000000000291124 T _ZN6CRopes12RegisterRopeEj7CVectorb
00000000002913b0 T _ZN6CRopes17SetSpeedOfTopNodeEj7CVector
00000000002914b4 T _ZN6CRopes18FindCoorsAlongRopeEjfP7CVector
0000000000291640 T _ZN5CRopeC1Ev
0000000000291640 T _ZN5CRopeC2Ev
0000000000291658 T _ZN6CRopes28CreateRopeWithSwatComingDownE7CVector
000000000029173c T _Z15UseMetricSystemv
0000000000291754 T _ZN6CStats4InitEv
0000000000291c10 T _ZN6CStats32PopulateFavoriteRadioStationListEv
0000000000291cd0 T _ZN6CStats19RegisterFastestTimeEii
0000000000291cf8 T _ZN6CStats20RegisterHighestScoreEii
0000000000291d18 T _ZN6CStats20RegisterBestPositionEii
0000000000291d38 T _ZN6CStats27GetFavoriteRadioStationListEi
0000000000291d48 T _ZN6CStats28FindMostFavoriteRadioStationEv
0000000000291df0 T _ZN6CStats29FindLeastFavoriteRadioStationEv
0000000000291e5c T _ZN6CStats29AnotherLifeSavedWithAmbulanceEv
0000000000291e74 T _ZN6CStats21AnotherCriminalCaughtEv
0000000000291e8c T _ZN6CStats23AnotherFireExtinguishedEv
0000000000291ea4 T _ZN6CStats29RegisterLevelVigilanteMissionEi
0000000000291ec0 T _ZN6CStats29RegisterLevelAmbulanceMissionEi
0000000000291edc T _ZN6CStats24RegisterLevelFireMissionEi
0000000000291ef8 T _ZN6CStats24FindCriminalRatingStringEv
00000000002923e0 T _ZN6CStats24FindCriminalRatingNumberEv
0000000000292570 T _ZN6CStats15FindChaseStringEf
0000000000292844 T _ZN6CStats23AnotherKillFrenzyPassedEv
000000000029285c T _ZN6CStats26SetTotalNumberKillFrenziesEi
000000000029286c T _ZN6CStats22SetTotalNumberMissionsEi
000000000029287c T _ZN6CStats19MoneySpentOnWeaponsEi
0000000000292898 T _ZN6CStats20MoneySpentOnPropertyEi
00000000002928b4 T _ZN6CStats24MoneySpentOnAutoPaintingEi
00000000002928d0 T _ZN6CStats19MoneySpentOnFashionEi
00000000002928ec T _ZN6CStats25NumOfVisitsFromLoanSharksEi
0000000000292908 T _ZN6CStats21NumOfStoresKnockedOffEi
0000000000292924 T _ZN6CStats16NumOfMovieStuntsEi
0000000000292940 T _ZN6CStats19NumOfAssassinationsEi
000000000029295c T _ZN6CStats20NumOfPizzasDeliveredEi
0000000000292978 T _ZN6CStats19NumOfGarbagePickupsEi
0000000000292994 T _ZN6CStats17NumOfIceCreamSoldEi
00000000002929b0 T _ZN6CStats16TopShootingRangeEi
00000000002929d0 T _ZN6CStats17ShootingRangeRankEi
00000000002929ec T _ZN6CStats18AddPropertyAsOwnedEi
0000000000292a20 T _ZN6CStats20AddNumBloodRingKillsEi
0000000000292a38 T _ZN6CStats22LongestTimeInBloodRingEi
0000000000292a54 T _ZN6CStats29CheckPointReachedSuccessfullyEv
0000000000292a7c T _ZN6CStats31CheckPointReachedUnsuccessfullyEv
0000000000292a8c T _ZN6CStats23RegisterSonyCDBeingReadEj
0000000000292aac T _ZN6CStats17HasSonyCDBeenReadEj
0000000000292abc T _ZN6CStats17NumberSonyCDsReadEv
0000000000292acc T _ZN6CStats21GetPercentageProgressEv
0000000000292b2c T _ZN6CStats17ConstructStatLineEi
0000000000295620 T _ZN6CStats13BuildStatLineEPcPviS1_i
0000000000295a30 T _ZN6CStats13ConvertToMinsEi
0000000000295a6c T _ZN6CStats13ConvertToSecsEi
0000000000295b44 T _ZN6CStats9SaveStatsEPhPj
0000000000296260 T _ZN6CStats9LoadStatsEPhj
00000000002968ec T _ZN13CSurfaceTable10InitialiseEPc
0000000000296ac4 T _ZN13CSurfaceTable8ShutDownEv
0000000000296ac8 T _ZN13CSurfaceTable16GetAdhesiveLimitER9CColPoint
0000000000296b1c T _ZN13CSurfaceTable16GetAdhesionGroupEh
0000000000296b44 T _ZN13CSurfaceTable16GetWetMultiplierEh
0000000000296bfc T _ZN13CSurfaceTable13IsSoftLandingEh
0000000000296c20 T _Z6tbInitv
0000000000296c2c T _Z11Diag_GetFPSv
0000000000296c8c T _Z9tbDisplayv
0000000000296ed8 T _Z12tbStartTimeriPc
0000000000296f44 T _Z10tbEndTimerPc
0000000000296fec T _ZN10CTimeCycle10InitialiseEv
00000000002977ec T _ZN10CTimeCycle11InterpolateEPhS0_
0000000000297858 T _ZN10CTimeCycle11InterpolateEPaS0_
00000000002978c4 T _ZN10CTimeCycle11InterpolateEPsS0_
0000000000297938 T _ZN10CTimeCycle11InterpolateEPiS0_
00000000002979ac T _ZN10CTimeCycle11InterpolateEPfS0_
0000000000297a10 T _ZN10CTimeCycle6UpdateEv
0000000000299d64 T _ZN10CTimeCycle16StartExtraColourEib
0000000000299da0 T _ZN10CTimeCycle15StopExtraColourEb
0000000000299dc0 T _ZN6CTimer10InitialiseEv
0000000000299e6c T _ZN6CTimer8ShutdownEv
0000000000299e70 T _ZN6CTimer6UpdateEv
000000000029a07c T _ZN6CTimer16GetRealTimeScaleEv
000000000029a0dc T _ZN6CTimer7SuspendEv
000000000029a110 T _ZN6CTimer6ResumeEv
000000000029a15c T _ZN6CTimer23GetCyclesPerMillisecondEv
000000000029a164 T _ZN6CTimer17GetCyclesPerFrameEv
000000000029a16c T _ZN6CTimer22GetCurrentTimeInCyclesEv
000000000029a190 T _ZN6CTimer21GetIsSlowMotionActiveEv
000000000029a1ac T _ZN6CTimer4StopEv
000000000029a1c8 T _ZN6CTimer14StartUserPauseEv
000000000029a1dc T _ZN6CTimer12EndUserPauseEv
000000000029a1ec T _ZN6CTimer12SetTimeScaleEf
000000000029a1fc T _ZN10CPlaceNameC1Ev
000000000029a1fc T _ZN10CPlaceNameC2Ev
000000000029a208 T _ZN10CPlaceName4InitEv
000000000029a214 T _ZN10CPlaceName7ProcessEv
000000000029a34c T _ZN10CPlaceName7DisplayEv
000000000029a378 T _ZN10CPlaceName28ProcessAfterFrontEndShutDownEv
000000000029a39c T _ZN15CCurrentVehicleC1Ev
000000000029a39c T _ZN15CCurrentVehicleC2Ev
000000000029a3a4 T _ZN15CCurrentVehicle4InitEv
000000000029a3ac T _ZN15CCurrentVehicle7ProcessEv
000000000029a43c T _ZN15CCurrentVehicle7DisplayEv
000000000029a48c T _ZN12CUserDisplay4InitEv
000000000029a4d0 T _ZN12CUserDisplay7ProcessEv
000000000029a598 T _ZN7CWanted10InitialiseEv
000000000029a614 T _ZN7CWanted13ClearQdCrimesEv
000000000029a658 T _ZN7CWanted5ResetEv
000000000029a770 T _ZN7CWanted18ResetPolicePursuitEv
000000000029a820 T _ZN7CWanted6UpdateEv
000000000029aac8 T _ZN7CWanted21WorkOutPolicePresenceE7CVectorf
000000000029ac84 T _ZN7CWanted17UpdateWantedLevelEv
000000000029ae50 T _ZN7CWanted13UpdateCrimesQEv
000000000029af04 T _ZN7CWanted13RegisterCrimeE10eCrimeTypeRK7CVectorjb
000000000029af1c T _ZN7CWanted11AddCrimeToQE10eCrimeTypeiRK7CVectorbb
000000000029b2f8 T _ZN7CWanted25RegisterCrime_ImmediatelyE10eCrimeTypeRK7CVectorjb
000000000029b360 T _ZN7CWanted14ReportCrimeNowE10eCrimeTypeRK7CVectorb
000000000029b524 T _ZN7CWanted14SetWantedLevelEi
000000000029b594 T _ZN7CWanted16CheatWantedLevelEi
000000000029b628 T _ZN7CWanted20SetWantedLevelNoDropEi
000000000029b750 T _ZN7CWanted21SetMaximumWantedLevelEi
000000000029b780 T _ZN7CWanted20AreMiamiViceRequiredEv
000000000029b790 T _ZN7CWanted15AreSwatRequiredEv
000000000029b7b0 T _ZN7CWanted14AreFbiRequiredEv
000000000029b7d0 T _ZN7CWanted15AreArmyRequiredEv
000000000029b7f0 T _ZN7CWanted18NumOfHelisRequiredEv
000000000029b818 T _ZN7CWanted16RemovePursuitCopEP7CCopPed
000000000029ba78 W _ZN7CSectorD2Ev
000000000029bae8 W _ZN8CPtrListD2Ev
000000000029bb00 T _ZN6CWorld10InitialiseEv
000000000029bb70 T _ZN6CWorld8ShutDownEv
000000000029bf54 T _ZN6CWorld6RemoveEP7CEntity
000000000029c160 T _ZN6CWorld15ClearForRestartEv
000000000029c2a0 T _ZN6CWorld3AddEP7CEntity
000000000029c360 T _ZN6CWorld21GetIsLineOfSightClearERK7CVectorS2_bbbbbbb
000000000029cf58 T _ZN6CWorld27GetIsLineOfSightSectorClearER7CSectorRK8CColLinebbbbbbb
000000000029d518 T _ZN6CWorld9GetSectorEii
000000000029d53c T _ZN6CWorld18ProcessLineOfSightERK7CVectorS2_R9CColPointRP7CEntitybbbbbbbb
000000000029e530 T _ZN6CWorld24ProcessLineOfSightSectorER7CSectorRK8CColLineR9CColPointRfRP7CEntitybbbbbbbb
000000000029e810 T _ZN6CWorld28ProcessLineOfSightSectorListER8CPtrListRK8CColLineR9CColPointRfRP7CEntitybbb
000000000029ec48 T _ZN6CWorld24CameraToIgnoreThisObjectEP7CEntity
000000000029ec84 T _ZN6CWorld19ProcessVerticalLineERK7CVectorfR9CColPointRP7CEntitybbbbbbP15CStoredCollPoly
000000000029eeac T _ZN6CWorld25ProcessVerticalLineSectorER7CSectorRK8CColLineR9CColPointRP7CEntitybbbbbbP15CStoredCollPoly
000000000029f540 T _ZN6CWorld38ProcessVerticalLine_FillGlobeColPointsERK7CVectorfRP7CEntitybbbbbbP15CStoredCollPoly
000000000029f730 T _ZN6CWorld44ProcessVerticalLineSector_FillGlobeColPointsER7CSectorRK8CColLineRP7CEntitybbbbbbP15CStoredCollPoly
000000000029f884 T _ZN6CWorld48ProcessVerticalLineSectorList_FillGlobeColPointsER8CPtrListRK8CColLineRP7CEntitybP15CStoredCollPoly
000000000029fa78 T _ZN6CWorld29ProcessVerticalLineSectorListER8CPtrListRK8CColLineR9CColPointRfRP7CEntitybP15CStoredCollPoly
000000000029fba8 T _ZN6CWorld16TriggerExplosionERK7CVectorffP7CEntityb
000000000029fd60 T _ZN6CWorld26TriggerExplosionSectorListER8CPtrListRK7CVectorffP7CEntityb
00000000002a02a0 T _ZN6CWorld10CastShadowEffff
00000000002a049c T _ZN6CWorld20CastShadowSectorListER8CPtrListffff
00000000002a04e0 T _ZN6CWorld7ProcessEv
00000000002a0cfc T _ZN6CWorld33RemoveEntityInsteadOfProcessingItEP7CEntity
00000000002a0d78 T _ZN6CWorld16RemoveFallenPedsEv
00000000002a0eac T _ZN6CWorld16RemoveFallenCarsEv
00000000002a1018 T _ZN6CWorld14ClearScanCodesEv
00000000002a10c0 T _ZN6CWorld31GetIsLineOfSightSectorListClearER8CPtrListRK8CColLinebb
00000000002a11a4 T _ZN6CWorld18FindObjectsInRangeERK7CVectorfbPssPP7CEntitybbbbb
00000000002a19a4 T _ZN6CWorld28FindObjectsInRangeSectorListER8CPtrListRK7CVectorfbPssPP7CEntity
00000000002a1a50 T _ZN6CWorld24FindObjectsOfTypeInRangeEjRK7CVectorfbPssPP7CEntitybbbbb
00000000002a22cc T _ZN6CWorld34FindObjectsOfTypeInRangeSectorListEjR8CPtrListRK7CVectorfbPssPP7CEntity
00000000002a2384 T _ZN6CWorld25FindObjectsKindaCollidingERK7CVectorfbPssPP7CEntitybbbbb
00000000002a2c28 T _ZN6CWorld35FindObjectsKindaCollidingSectorListER8CPtrListRK7CVectorfbPssPP7CEntity
00000000002a2ce8 T _ZN6CWorld27FindObjectsIntersectingCubeERK7CVectorS2_PssPP7CEntitybbbbb
00000000002a36ec T _ZN6CWorld37FindObjectsIntersectingCubeSectorListER8CPtrListRK7CVectorS4_PssPP7CEntity
00000000002a37d0 T _ZN6CWorld41FindObjectsIntersectingAngledCollisionBoxERK4CBoxRK7CMatrixRK7CVectorffffPssPP7CEntitybbbbb
00000000002a3bc4 T _ZN6CWorld51FindObjectsIntersectingAngledCollisionBoxSectorListER8CPtrListRK4CBoxRK7CMatrixRK7CVectorPssPP7CEntity
00000000002a3d10 T _ZN6CWorld35FindMissionEntitiesIntersectingCubeERK7CVectorS2_PssPP7CEntitybbb
00000000002a4404 T _ZN6CWorld45FindMissionEntitiesIntersectingCubeSectorListER8CPtrListRK7CVectorS4_PssPP7CEntitybbb
00000000002a451c T _ZN6CWorld19FindGroundZForCoordEff
00000000002a45c0 T _ZN6CWorld21FindGroundZFor3DCoordEfffPb
00000000002a4678 T _ZN6CWorld19FindRoofZFor3DCoordEfffPb
00000000002a4758 T _ZN6CWorld19FindLowestZForCoordEff
00000000002a47fc T _ZN6CWorld23CheckBlockListIntegrityEv
00000000002a4800 T _ZN6CWorld31RemoveReferencesToDeletedObjectEP7CEntity
00000000002a4978 T _ZN6CWorld13SetPedsOnFireEffffP7CEntity
00000000002a4ad4 T _ZN6CWorld14SetPedsChokingEffffP7CEntity
00000000002a4c70 T _ZN6CWorld13SetCarsOnFireEffffP7CEntity
00000000002a4dc0 T _ZN6CWorld12AddParticlesEv
00000000002a4e70 T _ZN6CWorld31RepositionCertainDynamicObjectsEv
00000000002a4ee4 T _ZN6CWorld19RepositionOneObjectEP7CEntity
00000000002a53f8 W _Z8IsMITreej
00000000002a54c0 T _ZN6CWorld12UseDetonatorEP7CEntity
00000000002a557c T _ZN6CWorld22TestSphereAgainstWorldE7CVectorfP7CEntitybbbbbb
00000000002a599c T _ZN6CWorld27TestSphereAgainstSectorListER8CPtrList7CVectorfP7CEntityb
00000000002a5c5c T _ZN6CWorld15PrintCarChangesEv
00000000002a5d18 T _ZN6CWorld19RemoveStaticObjectsEv
00000000002a5e34 T _ZN6CWorld32TestForBuildingsOnTopOfEachOtherEv
00000000002a5ea0 T _ZN6CWorld32TestForBuildingsOnTopOfEachOtherER8CPtrList
00000000002a5fd0 T _ZN6CWorld19TestForUnusedModelsEv
00000000002a616c T _ZN6CWorld19TestForUnusedModelsER8CPtrListPi
00000000002a619c T _ZN6CWorld26ClearExcitingStuffFromAreaERK7CVectorfh
00000000002a64b0 T _ZN6CWorld27ExtinguishAllCarFiresInAreaE7CVectorf
00000000002a6570 T _ZN6CWorld17ClearCarsFromAreaEffffff
00000000002a6710 T _ZN6CWorld17ClearPedsFromAreaEffffff
00000000002a6824 T _ZN6CWorld22SetAllCarsCanBeDamagedEb
00000000002a68a8 T _ZN6CWorld19CallOffChaseForAreaEffff
00000000002a6b60 T _ZN6CWorld37CallOffChaseForAreaSectorListVehiclesER8CPtrListffffffff
00000000002a6d60 T _ZN6CWorld33CallOffChaseForAreaSectorListPedsER8CPtrListffffffff
00000000002a6eb8 T _ZN6CWorld17IsWanderPathClearERK7CVectorS2_fi
00000000002a7184 T _ZN6CWorld25HandleCollisionZoneChangeE10eLevelNameS0_
00000000002a7188 T _ZN6CWorld19DoZoneTestForChaserEP9CPhysical
00000000002a718c T _ZN6CWorld32StopAllLawEnforcersInTheirTracksEv
00000000002a71fc T _ZN6CWorld28FindPlayerSlotWithPedPointerEPv
00000000002a7214 T _ZN5CZone17GetTranslatedNameEv
00000000002a7228 T _ZN9CTheZones4InitEv
00000000002a7400 T _ZN9CTheZones6UpdateEv
00000000002a7460 T _ZN9CTheZones20GetLevelFromPositionEPK7CVector
00000000002a75b0 T _ZN9CTheZones10CreateZoneEPc9eZoneTypeffffff10eLevelName
00000000002a7afc T _ZN9CTheZones20CheckZonesForOverlapEv
00000000002a7c14 T _ZN9CTheZones38ZoneIsEntirelyContainedWithinOtherZoneEP5CZoneS1_
00000000002a7e4c T _ZN9CTheZones16PostZoneCreationEv
00000000002a7fb4 T _ZN9CTheZones27InsertZoneIntoZoneHierarchyEP5CZone
00000000002a7fc8 T _ZN9CTheZones24InitialiseAudioZoneArrayEv
00000000002a82c4 T _ZN9CTheZones31InsertZoneIntoZoneHierRecursiveEP5CZoneS1_
00000000002a83cc T _ZN9CTheZones19PointLiesWithinZoneEPK7CVectorP5CZone
00000000002a8430 T _ZN9CTheZones15FindZoneByLabelEPc9eZoneType
00000000002a857c T _ZN9CTheZones17GetNavigationZoneEt
00000000002a8598 T _ZN9CTheZones11GetInfoZoneEt
00000000002a85b4 T _ZN9CTheZones10GetMapZoneEt
00000000002a85d0 T _ZN9CTheZones29FindZoneByLabelAndReturnIndexEPc9eZoneType
00000000002a8724 T _ZN9CTheZones33FindNextZoneByLabelAndReturnIndexEPc9eZoneType
00000000002a88a0 T _ZN9CTheZones30FindInformationZoneForPositionEPK7CVector
00000000002a89ec T _ZN9CTheZones37FindSmallestNavigationZoneForPositionEPK7CVectorbb
00000000002a8abc T _ZN9CTheZones11GetZoneInfoEPK7CVectorh
00000000002a8b04 T _ZN9CTheZones14SetZoneCarInfoEihssPKs
00000000002a8bbc T _ZN9CTheZones22SetZoneCivilianCarInfoEihPKsS1_
00000000002a8c7c T _ZN9CTheZones14SetZonePedInfoEihsssssssssss
00000000002a8d24 T _ZN9CTheZones13SetCarDensityEtht
00000000002a8d68 T _ZN9CTheZones13SetPedDensityEtht
00000000002a8db0 T _ZN9CTheZones11SetPedGroupEtht
00000000002a8df8 T _ZN9CTheZones23GetZoneInfoForTimeOfDayEPK7CVectorP9CZoneInfo
00000000002a944c T _ZN9CTheZones27GetZonePedGroupForTimeOfDayEPK7CVector
00000000002a94ac T _ZN9CTheZones23AddZoneToAudioZoneArrayEP5CZone
00000000002a9618 T _ZN9CTheZones13FindAudioZoneEP7CVector
00000000002a96d4 T _ZN9CTheZones32GetIndexForNavigationZonePointerEP5CZone
00000000002a9700 T _ZN9CTheZones32GetPointerForNavigationZoneIndexEi
00000000002a9720 T _ZN9CTheZones12SaveAllZonesEPhPj
00000000002a9a84 T _ZN9CTheZones11SaveOneZoneEP5CZonePPhPj9eZoneType
00000000002a9d0c T _ZN9CTheZones12LoadAllZonesEPhj
00000000002aa098 T _ZN9CTheZones11LoadOneZoneEP5CZonePPhPj9eZoneType
00000000002aa2cc T _ZN7CMatrixC1ERKS_
00000000002aa2cc T _ZN7CMatrixC2ERKS_
00000000002aa2d8 T _ZN7CMatrixaSERKS_
00000000002aa3a8 T _ZN7CMatrixC1EP11RwMatrixTagb
00000000002aa3a8 T _ZN7CMatrixC2EP11RwMatrixTagb
00000000002aa418 T _ZN7CMatrix6AttachEP11RwMatrixTagb
00000000002aa4c4 T _ZN7CMatrixD1Ev
00000000002aa4c4 T _ZN7CMatrixD2Ev
00000000002aa4ec T _ZN7CMatrix6UpdateEv
00000000002aa554 T _ZN7CMatrix8AttachRWEP11RwMatrixTagb
00000000002aa644 T _ZN7CMatrix8UpdateRWEv
00000000002aa6e4 T _ZN7CMatrix6DetachEv
00000000002aa718 T _ZN7CMatrix14CopyOnlyMatrixERKS_
00000000002aa72c T _ZN7CMatrixpLERKS_
00000000002aa7e0 T _ZN7CMatrix8SetUnityEv
00000000002aa81c T _ZN7CMatrix16ResetOrientationEv
00000000002aa84c T _ZN7CMatrix8SetScaleEf
00000000002aa878 T _ZN7CMatrix8SetScaleEfff
00000000002aa8a4 T _ZN7CMatrix12SetTranslateEfff
00000000002aa8dc T _ZN7CMatrix16SetTranslateOnlyEfff
00000000002aa8e8 T _ZN7CMatrix14SetRotateXOnlyEf
00000000002aa938 T _ZN7CMatrix14SetRotateYOnlyEf
00000000002aa990 T _ZN7CMatrix14SetRotateZOnlyEf
00000000002aa9dc T _ZN7CMatrix10SetRotateXEf
00000000002aaa34 T _ZN7CMatrix10SetRotateYEf
00000000002aaa94 T _ZN7CMatrix10SetRotateZEf
00000000002aaaec T _ZN7CMatrix9SetRotateEfff
00000000002aabc0 T _ZN7CMatrix7RotateXEf
00000000002aac54 T _ZN7CMatrix7RotateYEf
00000000002aad00 T _ZN7CMatrix7RotateZEf
00000000002aad94 T _ZN7CMatrix6RotateEfff
00000000002aaf24 T _ZN7CMatrix15ReorthogonaliseEv
00000000002aaffc T _ZN7CMatrix13MatRotateSelfEfff
00000000002ab1a8 T _ZN7CMatrix14MatRotateWorldEfff
00000000002ab398 T _ZN7CMatrix14CheckIntegrityEv
00000000002ab39c T _Z6InvertRK7CMatrix
00000000002ab48c T _Z6InvertRK7CMatrixRS_
00000000002ab560 T _ZN7CMatrix14CopyToRwMatrixEP11RwMatrixTag
00000000002ab5c8 T _ZmlRK7CMatrixS1_
00000000002ab69c T _ZplRK7CMatrixS1_
00000000002ab728 T _ZN27CCompressedMatrixNotAligned24DecompressIntoFullMatrixER7CMatrix
00000000002ab8bc T _ZN27CCompressedMatrixNotAligned22CompressFromFullMatrixER7CMatrix
00000000002ab9a8 T _ZN11CQuaternion3SetERK11RwMatrixTag
00000000002abb84 T _ZN11CQuaternion3SetEfff
00000000002abc38 T _ZN11CQuaternion3SetEP5RwV3df
00000000002abca0 T _ZN11CQuaternion3GetEP11RwMatrixTag
00000000002abd2c T _ZN11CQuaternion3GetEPfS0_S0_
00000000002abe68 T _ZN11CQuaternion3GetEP5RwV3dPf
00000000002abed4 T _ZN11CQuaternion8MultiplyERKS_S1_
00000000002abf9c T _ZN11CQuaternion5SlerpERKS_S1_fff
00000000002ac0d8 T _ZN11CQuaternion5SlerpERKS_S1_f
00000000002ac254 T _Z12CrossProductRK7CVectorS1_
00000000002ac280 T _Z11Multiply3x3RK7CMatrixRK7CVector
00000000002ac2c0 T _Z11Multiply3x3RK7CVectorRK7CMatrix
00000000002ac30c T _ZmlRK7CMatrixRK7CVector
00000000002ac35c T _ZN7CVector9NormaliseEv
00000000002ac39c T _Z16FindCBFunctionIDPFvP21CAnimBlendAssociationPvE
00000000002ac3cc T _Z14FindCBFunctionh
00000000002ac3e0 T _Z21ApplyPanelDamageToCarjP11CAutomobileb
00000000002ac56c T _ZN13CCutsceneHeadC1EP7CObject
00000000002ac56c T _ZN13CCutsceneHeadC2EP7CObject
00000000002ac5e4 T _ZN13CCutsceneHead14CreateRwObjectEv
00000000002ac630 T _ZN13CCutsceneHead14DeleteRwObjectEv
00000000002ac634 T _ZN13CCutsceneHead13PlayAnimationEPKc
00000000002ac7e8 T _ZN13CCutsceneHead14ProcessControlEv
00000000002ac8e8 T _ZN13CCutsceneHead6RenderEv
00000000002ac9d8 W _ZN13CCutsceneHeadD0Ev
00000000002ac9fc T _ZN15CCutsceneObjectC1Ev
00000000002ac9fc T _ZN15CCutsceneObjectC2Ev
00000000002aca5c T _ZN15CCutsceneObjectD1Ev
00000000002aca5c T _ZN15CCutsceneObjectD2Ev
00000000002acaa8 T _ZN15CCutsceneObjectD0Ev
00000000002acacc T _ZN15CCutsceneObject13SetModelIndexEj
00000000002acb34 T _ZN15CCutsceneObject12CreateShadowEv
00000000002acbb4 T _ZN15CCutsceneObject14ProcessControlEv
00000000002acd00 T _ZN15CCutsceneObject9PreRenderEv
00000000002acf28 T _ZN15CCutsceneObject6RenderEv
00000000002acf8c T _ZN12CDummyObjectC1Ev
00000000002acf8c T _ZN12CDummyObjectC2Ev
00000000002acfbc T _ZN12CDummyObjectC1EP7CObject
00000000002acfbc T _ZN12CDummyObjectC2EP7CObject
00000000002ad038 T _ZN12CDummyObjectD1Ev
00000000002ad038 T _ZN12CDummyObjectD2Ev
00000000002ad03c T _ZN12CDummyObjectD0Ev
00000000002ad060 T _ZN7CObjectC1Ev
00000000002ad060 T _ZN7CObjectC2Ev
00000000002ad0ec T _ZN7CObjectC1Eib
00000000002ad0ec T _ZN7CObjectC2Eib
00000000002ad178 T _ZN7CObject4InitEv
00000000002ad374 T _ZN7CObjectC1EP12CDummyObject
00000000002ad374 T _ZN7CObjectC2EP12CDummyObject
00000000002ad424 T _ZN7CObjectD1Ev
00000000002ad424 T _ZN7CObjectD2Ev
00000000002ad4dc T _ZN7CObjectD0Ev
00000000002ad544 T _ZN7CObjectdlEPv
00000000002ad590 T _ZN7CObjectnwEm
00000000002ad61c T _ZN7CObjectnwEmi
00000000002ad674 T _ZN7CObjectdlEPvi
00000000002ad6c0 T _ZN7CObject12CanBeDeletedEv
00000000002ad6e0 T _ZN7CObject14ProcessControlEv
00000000002add8c T _ZN7CObject12ObjectDamageEf
00000000002af50c T _ZN7CObject6RenderEv
00000000002b0068 T _ZN7CObject12RefModelInfoEi
00000000002b007c T _ZN7CObject8TeleportE7CVector
00000000002b00d4 T _ZN7CObject20DeleteAllTempObjectsEv
00000000002b0174 T _ZN7CObject23DeleteAllMissionObjectsEv
00000000002b0214 T _ZN7CObject26DeleteAllTempObjectsInAreaE7CVectorf
00000000002b0310 T _Z20IsObjectPointerValidP7CObject
00000000002b0370 T _Z31IsObjectPointerValid_NotInWorldP7CObject
00000000002b03b4 T _ZN11CObjectData10InitialiseEPc
00000000002b06c0 T _ZN11CObjectData13SetObjectDataEiR7CObject
00000000002b0b2c T _ZN13CAudioHydrant3AddEP15CParticleObject
00000000002b0c78 T _ZN13CAudioHydrant6RemoveEP15CParticleObject
00000000002b0e34 T _ZN7CEntity19AddSteamsFromGroundEP7CVector
00000000002b1200 T _ZN15CParticleObject9AddObjectEtRK7CVectorS2_fh
00000000002b1254 T _ZN15CParticleObject9AddObjectEtRK7CVectorfh
00000000002b12b4 T _ZN15CParticleObjectC1Ev
00000000002b12b4 T _ZN15CParticleObjectC2Ev
00000000002b12e8 T _ZN15CParticleObjectD1Ev
00000000002b12e8 T _ZN15CParticleObjectD2Ev
00000000002b12ec T _ZN15CParticleObject10InitialiseEv
00000000002b1368 T _ZN15CParticleObject9AddObjectEtRK7CVectorh
00000000002b13cc T _ZN15CParticleObject9AddObjectEtRK7CVectorS2_fjRK6RwRGBAh
00000000002b17f8 T _ZN15CParticleObject10MoveToListEPPS_S1_S0_
00000000002b1844 T _ZN15CParticleObject9AddObjectE13tParticleTypeRK7CVectorS3_fjhhsh
00000000002b193c T _ZN15CParticleObject12RemoveObjectEv
00000000002b19d0 T _ZN15CParticleObject9UpdateAllEv
00000000002b1a5c T _ZN15CParticleObject11UpdateCloseEv
00000000002b4370 T _ZN15CParticleObject9UpdateFarEv
00000000002b44ac T _ZN15CParticleObject12SaveParticleEPhPj
00000000002b45a4 T _ZN15CParticleObject12LoadParticleEPhj
00000000002b476c T _ZN15CParticleObject24RemoveAllParticleObjectsEv
00000000002b47e8 T _ZN15CParticleObject34RemoveAllExpireableParticleObjectsEv
00000000002b48e8 T _ZN11CProjectileC1Ei
00000000002b48e8 T _ZN11CProjectileC2Ei
00000000002b4970 T _ZN11CProjectileD1Ev
00000000002b4970 T _ZN11CProjectileD2Ev
00000000002b4974 T _ZN11CProjectileD0Ev
00000000002b4998 T _ZN15CStingerSegmentC1Ev
00000000002b4998 T _ZN15CStingerSegmentC2Ev
00000000002b4a34 T _ZN15CStingerSegmentD1Ev
00000000002b4a34 T _ZN15CStingerSegmentD2Ev
00000000002b4a58 T _ZN15CStingerSegmentD0Ev
00000000002b4a7c T _ZN8CStingerC1Ev
00000000002b4a7c T _ZN8CStingerC2Ev
00000000002b4a8c T _ZN8CStingerD1Ev
00000000002b4a8c T _ZN8CStingerD2Ev
00000000002b4a90 T _ZN8CStinger4InitEP4CPed
00000000002b4e1c T _ZN8CStinger6RemoveEv
00000000002b4e84 T _ZN8CStinger7ProcessEv
00000000002b5294 T _ZN8CStinger18CheckForBurstTyresEv
00000000002b56fc T _ZN8CStinger6DeployEP4CPed
00000000002b57a4 T _ZN12CCivilianPedC1E8ePedTypej
00000000002b57a4 T _ZN12CCivilianPedC2E8ePedTypej
00000000002b591c T _ZN12CCivilianPedD1Ev
00000000002b591c T _ZN12CCivilianPedD2Ev
00000000002b5920 T _ZN12CCivilianPedD0Ev
00000000002b5944 T _ZN12CCivilianPed14ProcessControlEv
00000000002b6164 T _ZN12CCivilianPed10CivilianAIEv
00000000002b6a9c T _ZN12CCivilianPed21EnterVacantNearbyCarsEv
00000000002b6ec4 T _ZN12CCivilianPed19UseNearbyAttractorsEv
00000000002b7380 T _ZNK12CCivilianPed13IsAttractedToEi
00000000002b73c0 T _ZNK12CCivilianPed17IsOnStealWishListEi
00000000002b74fc T _ZN4CPed16RunToReportCrimeE10eCrimeType
00000000002b75f4 T _ZN7CCopPedC1E8eCopTypei
00000000002b75f4 T _ZN7CCopPedC2E8eCopTypei
00000000002b7824 T _ZN7CCopPedD1Ev
00000000002b7824 T _ZN7CCopPedD2Ev
00000000002b787c T _ZN7CCopPed12ClearPursuitEv
00000000002b7ab8 T _ZN7CCopPedD0Ev
00000000002b7adc T _ZN7CCopPed14ProcessControlEv
00000000002b84ac T _ZN7CCopPed15ProcessHeliSwatEv
00000000002b8680 T _ZN7CCopPed17ProcessStingerCopEv
00000000002b8818 T _ZN7CCopPed12ArrestPlayerEv
00000000002b89a8 T _ZN7CCopPed15SetArrestPlayerEP4CPed
00000000002b8b28 T _ZN7CCopPed5CopAIEv
00000000002b983c T _ZN7CCopPed13ScanForCrimesEv
00000000002b997c T _ZN7CCopPed10SetPursuitEb
00000000002b9aa0 T _ZN7CCopPed13AttemptArrestEv
00000000002b9c7c T _ZN7CCopPed18PositionStingerCopEv
00000000002b9c80 T _ZN9CDummyPedC1Ev
00000000002b9c80 T _ZN9CDummyPedC2Ev
00000000002b9cb0 T _ZN9CDummyPedD1Ev
00000000002b9cb0 T _ZN9CDummyPedD2Ev
00000000002b9cb4 T _ZN9CDummyPedD0Ev
00000000002b9cd8 T _ZN13CEmergencyPedC1Ej
00000000002b9cd8 T _ZN13CEmergencyPedC2Ej
00000000002b9d64 T _ZN13CEmergencyPedD1Ev
00000000002b9d64 T _ZN13CEmergencyPedD2Ev
00000000002b9d68 T _ZN13CEmergencyPedD0Ev
00000000002b9d8c T _ZN13CEmergencyPed14ProcessControlEv
00000000002b9ec8 T _ZN13CEmergencyPed7MedicAIEv
00000000002baa14 T _ZN13CEmergencyPed9FiremanAIEv
00000000002bac4c T _ZN13CEmergencyPed7InRangeEP4CPed
00000000002badc8 T _ZN6CGangs27SetWillAttackPlayerWithCopsE8ePedTypeb
00000000002badec T _ZN6CGangs27GetWillAttackPlayerWithCopsE8ePedType
00000000002bae1c T _ZN9CGangInfoC1Ev
00000000002bae1c T _ZN9CGangInfoC2Ev
00000000002bae30 T _ZN9CGangInfoD1Ev
00000000002bae30 T _ZN9CGangInfoD2Ev
00000000002bae34 T _ZN6CGangs10InitialiseEv
00000000002baee8 T _ZN6CGangs16SetGangPedModelsEsii
00000000002baf08 T _ZN6CGangs19SetGangVehicleModelEsi
00000000002baf24 T _ZN6CGangs14SetGangWeaponsEsii
00000000002baf44 T _ZN6CGangs23SetGangPedModelOverrideEsa
00000000002baf64 T _ZN6CGangs18ChooseGangPedModelEs
00000000002baff4 T _ZN6CGangs15SaveAllGangDataEPhPj
00000000002bb0ac T _ZN6CGangs15LoadAllGangDataEPhj
00000000002bb1f0 T _ZN4CPedC1Ej
00000000002bb1f0 T _ZN4CPedC2Ej
00000000002bb780 T _ZN4CPed10GiveWeaponE11eWeaponTypejb
00000000002bb954 T _ZN4CPedD1Ev
00000000002bb954 T _ZN4CPedD2Ev
00000000002bbb20 T _ZN4CPed12ClearWeaponsEv
00000000002bbba8 T _ZN4CPedD0Ev
00000000002bbc10 T _ZN4CPeddlEPv
00000000002bbc5c T _ZN4CPednwEm
00000000002bbce8 T _ZN4CPednwEmi
00000000002bbd40 T _ZN4CPeddlEPvi
00000000002bbd8c T _ZN4CPed10InitialiseEv
00000000002bbda4 T _ZN4CPed13SetModelIndexEj
00000000002bbe88 T _ZN4CPed11SetPedStatsE9ePedStats
00000000002bbe9c T _ZN4CPed22CanUseTorsoWhenLookingEv
00000000002bbee0 T _ZN4CPed6UpdateEv
00000000002bbee4 T _ZN4CPed14DeleteRwObjectEv
00000000002bbee8 T _ZN4CPed13BuildPedListsEv
00000000002bc2c0 T _ZN4CPed8SortPedsEPPS_ii
00000000002bc40c T _ZN4CPed14IsPointerValidEv
00000000002bc480 T _ZN4CPed19OurPedCanSeeThisOneEP7CEntityb
00000000002bc5e0 T _ZN4CPed12SetMoveStateE10eMoveState
00000000002bc5e8 T _ZN4CPed11SetMoveAnimEv
00000000002bc994 T _ZN4CPed14IsPedInControlEv
00000000002bc9c8 T _ZNK4CPed8IsPlayerEv
00000000002bc9d8 T _ZN4CPed12ClearAimFlagEv
00000000002bca34 T _ZN4CPed13ClearLookFlagEv
00000000002bcb1c T _ZN4CPed19StopNonPartialAnimsEv
00000000002bcb64 T _ZN4CPed22RestartNonPartialAnimsEv
00000000002bcb9c T _ZN4CPed14SetStoredStateEv
00000000002bcc1c T _ZN4CPed19CanPedReturnToStateEv
00000000002bcc54 T _ZN4CPed20RestorePreviousStateEv
00000000002bd008 T _ZN4CPed14CanSetPedStateEv
00000000002bd028 T _ZN4CPed13SetWanderPathEa
00000000002bd39c T _ZN4CPed7SetIdleEv
00000000002bd47c T _ZN4CPed14ScanForThreatsEv
00000000002bda44 T _ZN4CPed18CheckForExplosionsER9CVector2D
00000000002bdb94 T _ZN4CPed16CheckForGunShotsEv
00000000002bdc48 T _ZNK4CPed12IsGangMemberEv
00000000002bdc5c T _ZN4CPed16CheckForDeadPedsEv
00000000002bdd10 T _ZN4CPed29ScanForDelayedResponseThreatsEv
00000000002bdd84 T _ZN4CPed19CheckThreatValidityEv
00000000002bdde4 T _ZN4CPed11SetLookFlagEfbb
00000000002bde6c T _ZN4CPed11SetLookFlagEP7CEntitybb
00000000002bdf2c T _ZN4CPed9ClearLookEv
00000000002be018 T _ZN4CPed14MoveHeadToLookEv
00000000002be534 T _ZN4CPed19RestoreHeadPositionEv
00000000002be5dc T _ZN4CPed10SetAimFlagEf
00000000002be650 T _ZN4CPed10SetAimFlagEP7CEntity
00000000002be6c4 T _ZN4CPed6AimGunEv
00000000002be890 T _ZN4CPed18RestoreGunPositionEv
00000000002be910 T _ZN4CPed25CanWeRunAndFireWithWeaponEv
00000000002be93c T _ZN4CPed23ScanForInterestingStuffEv
00000000002bee58 T _ZN4CPed15LookForSexyPedsEv
00000000002bf034 T _ZN4CPed15LookForSexyCarsEv
00000000002bf20c T _ZN4CPed23LookForInterestingNodesEv
00000000002bf80c T _ZN4CPed14IsPedShootableEv
00000000002bf81c T _ZN4CPed8WillChatEPS_
00000000002bf8d4 T _ZN4CPed7SetChatEP7CEntityj
00000000002bfa28 T _ZN4CPed20CalculateNewVelocityEv
00000000002bfebc T _ZN4CPed23CanStrafeOrMouseControlEv
00000000002bfee0 T _ZN4CPed34WorkOutHeadingForMovingFirstPersonEf
00000000002bff9c T _ZN4CPed14UpdatePositionEv
00000000002c02f8 T _ZN4CPed23CalculateNewOrientationEv
00000000002c038c T _ZN4CPed8ClearAllEv
00000000002c046c T _ZN4CPed15ProcessBuoyancyEv
00000000002c0c00 T _ZN4CPed14ProcessControlEv
00000000002c3820 T _ZN4CPed12SetLookTimerEj
00000000002c3844 T _ZN4CPed6SetDieE11AnimationIdff
00000000002c3bc8 T _ZN4CPed12SetWaitStateE10eWaitStatePv
00000000002c44a4 T _ZN4CPed14SetEvasiveStepEP9CPhysicalh
00000000002c48fc T _ZN4CPed17GetLocalDirectionERK9CVector2D
00000000002c4984 T _ZN4CPed7SetFallEi11AnimationIdh
00000000002c4d8c T _ZN4CPed14CanPedJumpThisEP7CEntityP7CVector
00000000002c4f50 T _ZN4CPed7SetJumpEv
00000000002c509c T _ZN4CPed7SetFleeEP7CEntityi
00000000002c5248 T _ZN4CPed31SetDirectionToWalkAroundVehicleEP8CVehicle
00000000002c5270 T _ZN4CPed30SetDirectionToWalkAroundObjectEP7CEntity
00000000002c6374 T _ZN4CPed13GetWeaponSlotE11eWeaponType
00000000002c6390 T _ZN4CPed8TurnBodyEv
00000000002c6468 T _ZN4CPed7SetFleeERK9CVector2Di
00000000002c6620 T _ZN4CPed4FleeEv
00000000002c6dd4 T _ZN4CPed10SetLandingEv
00000000002c6f2c T _ZN4CPed7SetDeadEv
00000000002c7080 T _ZN4CPed20RequestDelayedWeaponEv
00000000002c7144 T _ZN4CPed13PlayFootStepsEv
00000000002c7ee0 T _ZN4CPed15CheckIfInTheAirEv
00000000002c800c T _ZN4CPed11SetInTheAirEv
00000000002c80a8 T _ZN4CPed8InTheAirEv
00000000002c81fc T _ZN4CPed4WaitEv
00000000002c9060 T _ZN4CPed8SetGetUpEv
00000000002c943c T _ZN4CPed7SeekCarEv
00000000002c9b0c T _ZN4CPed3DieEv
00000000002c9b10 T _ZN4CPed4ChatEv
00000000002c9ea8 T _ZN4CPed4IdleEv
00000000002c9fb4 T _ZN4CPed4LookEv
00000000002ca080 T _ZN4CPed4FallEv
00000000002ca2d8 T _ZN4CPed5PauseEv
00000000002ca300 T _ZN4CPed10WanderPathEv
00000000002ca974 T _ZN4CPed10FollowPathEv
00000000002caa68 T _ZN4CPed11BuyIceCreamEv
00000000002cab14 T _ZN4CPed12AnswerMobileEv
00000000002cac6c T _ZN4CPed9SetLeaderEPS_
00000000002cac94 T _ZN4CPed30RecomputeFollowPathOnCollisionEPK7CEntityRK7CVector
00000000002caed4 T _ZN4CPed15ClearFollowPathEv
00000000002caee8 T _ZN4CPed22ProcessEntityCollisionEP7CEntityP9CColPoint
00000000002cb850 T _ZN4CPed16ProcessAnimationEv
00000000002cbb50 T _ZN4CPed13SetFollowPathERK7CVectorf10eMoveStateP7CEntityS5_i
00000000002cbcdc T _ZN4CPed17UseGroundColModelEv
00000000002cbcfc T _ZN4CPed13CanBeArrestedEv
00000000002cbd1c T _ZN4CPed21PedSetPreviousStateCBEP21CAnimBlendAssociationPv
00000000002cbd44 T _ZN4CPed10PedGetupCBEP21CAnimBlendAssociationPv
00000000002cbec4 T _ZN4CPed9PedLandCBEP21CAnimBlendAssociationPv
00000000002cbef0 T _ZN4CPed12PedStaggerCBEP21CAnimBlendAssociationPv
00000000002cbef4 T _ZN4CPed14PedSetOutCarCBEP21CAnimBlendAssociationPv
00000000002cc85c T _ZN4CPed31ReplaceWeaponWhenExitingVehicleEv
00000000002cc95c T _ZN4CPed21PedSetDraggedOutCarCBEP21CAnimBlendAssociationPv
00000000002ccc8c T _Z21SetAtomicVisibilityCBP8RwObjectPv
00000000002cccc4 T _ZN4CPed13PedSetInCarCBEP21CAnimBlendAssociationPv
00000000002cd600 T _ZN4CPed31RemoveWeaponWhenEnteringVehicleEv
00000000002cd6ac T _ZN4CPed12CanBeDeletedEv
00000000002cd6d0 T _ZN4CPed25CanBeDeletedEvenInVehicleEv
00000000002cd6e4 T _ZN4CPed14AddWeaponModelEi
00000000002cd778 T _ZN4CPed17RemoveWeaponModelEi
00000000002cd82c T _ZN4CPed17GiveDelayedWeaponE11eWeaponTypej
00000000002cd838 T _ZN4CPed16SetCurrentWeaponEi
00000000002cd93c T _ZN4CPed16SetCurrentWeaponE11eWeaponType
00000000002cd96c T _ZN4CPed9GrantAmmoE11eWeaponTypej
00000000002cda18 T _ZN4CPed7SetAmmoE11eWeaponTypej
00000000002cdadc T _ZN4CPed9PreRenderEv
00000000002ce874 T _ZN4CPed6RenderEv
00000000002cebac T _ZN4CPed32CheckAroundForPossibleCollisionsEv
00000000002ced48 T _ZN4CPed8SetPauseEi
00000000002cee8c T _ZN4CPed10ClearPauseEv
00000000002cee90 T _ZN4CPed9ClearFallEv
00000000002cee94 T _ZN4CPed3MugEv
00000000002cf010 T _ZN4CPed7SetLookEf
00000000002cf148 T _ZN4CPed7SetLookEP7CEntity
00000000002cf2d8 T _ZN4CPed14SetAttackTimerEj
00000000002cf308 T _ZN4CPed13SetShootTimerEj
00000000002cf32c T _ZN4CPed7SetSeekE7CVectorf
00000000002cf49c T _ZN4CPed7SetSeekEP7CEntityf
00000000002cf5d4 T _ZN4CPed9ClearSeekEv
00000000002cf6b8 T _ZN4CPed4SeekEv
00000000002cfc7c T _ZN4CPed17SeekFollowingPathEv
00000000002cfd84 T _ZN4CPed9ClearFleeEv
00000000002cfdb8 T _ZN4CPed15ClearWanderPathEv
00000000002cfea8 T _ZN4CPed5AvoidEv
00000000002d00f0 T _ZN4CPed14InsertPathNodeEiRK7CVector
00000000002d0250 T _ZN4CPed19SetFollowPathStaticEv
00000000002d05a4 T _ZN4CPed20SetFollowPathDynamicEv
00000000002d1998 T _ZN4CPed10SetStaggerE11AnimationId
00000000002d1aa0 T _ZN4CPed7StaggerEv
00000000002d1aa4 T _ZN4CPed10PedEvadeCBEP21CAnimBlendAssociationPv
00000000002d1e7c T _ZN4CPed14SetEvasiveDiveEP9CPhysicalh
00000000002d25b0 T _ZN4CPed15FinishDieAnimCBEP21CAnimBlendAssociationPv
00000000002d25e0 T _ZN4CPed9ClearChatEv
00000000002d2778 T _ZN4CPed9FacePhoneEv
00000000002d2a78 T _ZN4CPed13MakePhonecallEv
00000000002d2ba8 T _Z22StartTalkingOnMobileCBP21CAnimBlendAssociationPv
00000000002d2bcc T _Z23FinishTalkingOnMobileCBP21CAnimBlendAssociationPv
00000000002d2c60 T _ZN4CPed15SetAnswerMobileEv
00000000002d2d24 T _ZN4CPed17ClearAnswerMobileEv
00000000002d2db0 T _ZN4CPed8TeleportE7CVector
00000000002d2e14 T _ZN4CPed10SetSeekCarEP8CVehiclej
00000000002d2f4c T _ZN4CPed14WarpPedIntoCarEP8CVehicle
00000000002d31d4 T _ZN4CPed30PossiblyFindBetterPosToSeekCarEP7CVectorP8CVehicle
00000000002d35e4 T _ZN4CPed10SetSolicitEj
00000000002d3728 T _ZN4CPed14SetBuyIceCreamEv
00000000002d3784 T _Z17IsPedPointerValidP4CPed
00000000002d3810 T _Z28IsPedPointerValid_NotInWorldP4CPed
00000000002d3848 T _ZN4CPed19SetPedPositionInCarEv
00000000002d3d0c T _Z29RemoveAnimsFromAnimationBlockP7RpClumpPKc
00000000002d3d9c T _Z33PlayRandomAnimationsFromAnimBlockP4CPed12AssocGroupIdji
00000000002d3fb0 T _ZN4CPed14FinishedWaitCBEP21CAnimBlendAssociationPv
00000000002d3fc8 T _ZN4CPed14ClearWaitStateEv
00000000002d4250 T _ZN4CPed24DeleteSunbatheIdleAnimCBEP21CAnimBlendAssociationPv
00000000002d42ec T _ZN4CPed18RestoreHeadingRateEv
00000000002d42fc T _ZN4CPed20RestoreHeadingRateCBEP21CAnimBlendAssociationPv
00000000002d430c T _ZN4CPed30FlagToDestroyWhenNextProcessedEv
00000000002d43c4 T _ZN4CPed7SolicitEv
00000000002d45b4 T _ZN4CPed14FinishLaunchCBEP21CAnimBlendAssociationPv
00000000002d4aa4 T _ZN4CPed15FinishHitHeadCBEP21CAnimBlendAssociationPv
00000000002d4af8 T _ZN4CPed12FinishJumpCBEP21CAnimBlendAssociationPv
00000000002d4b14 T _ZN4CPed14CanPedDriveOffEv
00000000002d4ba8 T _ZN4CPed15SetRadioStationEv
00000000002d4c80 T _ZNK4CPed12HasAttractorEv
00000000002d4c90 T _ZN4CPed16SetNewAttractionEP13CPedAttractorRK7CVectorffi
00000000002d4d04 T _ZN4CPed17AttachPedToEntityEP7CEntity7CVectortf11eWeaponType
00000000002d4f2c T _ZN4CPed19PositionAttachedPedEv
00000000002d519c T _ZN4CPed20DettachPedFromEntityEv
00000000002d529c T _ZN4CPed8SunBatheEv
00000000002d52a0 T _ZN4CPed7UndressEPKc
00000000002d5310 T _ZN4CPed5DressEv
00000000002d5370 T _ZN4CPed3SayEti
00000000002d53a0 T _ZN4CPed21SetWeaponLockOnTargetEP7CEntity
00000000002d53f0 T _ZN4CPed25DisplayAllNamesAboveHeadsEv
00000000002d5474 T _ZN4CPed20DisplayNameAboveHeadEv
00000000002d5690 T _ZN14CFormationInfoC1Ev
00000000002d5690 T _ZN14CFormationInfoC2Ev
00000000002d56e8 T _ZN14CFormationInfoD1Ev
00000000002d56e8 T _ZN14CFormationInfoD2Ev
00000000002d56ec T _ZN14CFormationInfo4InitEhhf
00000000002d5878 T _ZN14CFormationInfo4JoinEP4CPed
00000000002d5898 T _ZN14CFormationInfo5LeaveEP4CPed
00000000002d58a8 T _ZN14CFormationInfo6UpdateEv
00000000002d59b8 T _ZN4CPed17SetObjectiveTimerEj
00000000002d59e8 T _ZN4CPed18SetStoredObjectiveEv
00000000002d5a2c T _ZN4CPed20ForceStoredObjectiveE10eObjective
00000000002d5a70 T _ZN4CPed20IsTemporaryObjectiveE10eObjective
00000000002d5a90 T _ZN4CPed12SetObjectiveE10eObjective
00000000002d5be0 T _ZN4CPed12SetObjectiveE10eObjectivePv
00000000002d6148 T _ZN4CPed24RestorePreviousObjectiveEv
00000000002d61c8 T _ZN4CPed12SetObjectiveE10eObjective7CVectorf
00000000002d63bc T _ZN4CPed12SetObjectiveE10eObjectivess
00000000002d64ec T _ZN4CPed14SetFollowRouteEss
00000000002d65d8 T _ZN4CPed12SetObjectiveE10eObjective7CVector
00000000002d6968 T _ZN4CPed12SetObjectiveE10eObjectivefRK7CVector
00000000002d69e0 T _ZN4CPed12SetObjectiveE10eObjectivei
00000000002d6aa0 T _ZN4CPed14ClearObjectiveEv
00000000002d6b5c T _ZN4CPed11ClearLeaderEv
00000000002d6c68 T _ZN4CPed16UpdateFromLeaderEv
00000000002d72f0 T _ZN4CPed28WarpPedToNearLeaderOffScreenEv
00000000002d7600 T _ZN4CPed16ProcessObjectiveEv
00000000002da6f4 T _ZN4CPed27HaveReachedNextPointOnRouteEf
00000000002da738 T _ZN4CPed19GetNextPointOnRouteEv
00000000002da7e8 T _ZN4CPed24GetPositionToOpenCarDoorEP8CVehiclej
00000000002dab30 T _ZN4CPed11SetEnterCarEP8CVehiclej
00000000002dad98 T _ZN4CPed19SetSeekBoatPositionEP8CVehicle
00000000002dae20 T _ZN4CPed28WarpPedToNearEntityOffScreenEP7CEntity
00000000002db130 T _ZN4CPed10SetExitCarEP8CVehiclej
00000000002dba10 T _ZN4CPed11SetExitBoatEP8CVehicle
00000000002dbd50 T _ZN4CPed22SetBeingDraggedFromCarEP8CVehiclejb
00000000002dbf98 W _ZN9CPhysical8GetSpeedEfff
00000000002dc038 T _ZN4CPed23FindBestCoordsFromNodesE7CVectorPS0_
00000000002dc400 T _ZN4CPed19KillCharOnFootMeleeER7CVectorS1_S1_
00000000002dce70 T _ZN4CPed19KillCharOnFootArmedER7CVectorS1_S1_
00000000002ddafc T _ZN4CPed20GetFormationPositionEv
00000000002ddcbc T _ZN4CPed13ReactToAttackEP7CEntity
00000000002de0a0 T _ZN4CPed12CanSeeEntityEP7CEntityf
00000000002de194 T _ZN4CPed16SelectGunIfArmedEv
00000000002de39c T _ZN4CPed15ReactToPointGunEP7CEntity
00000000002de908 T _ZN4CPed26RegisterThreatWithGangPedsEP7CEntity
00000000002dec20 T _ZN4CPed7SetDuckEjb
00000000002ded18 T _ZN4CPed20InformMyGangOfAttackEP7CEntity
00000000002dee10 T _ZN4CPed14PedAnimAlignCBEP21CAnimBlendAssociationPv
00000000002df648 T _ZN4CPed15QuitEnteringCarEv
00000000002df860 T _ZN4CPed14PedAnimGetInCBEP21CAnimBlendAssociationPv
00000000002dfe58 T _ZN4CPed17PedAnimDoorOpenCBEP21CAnimBlendAssociationPv
00000000002e05ac T _ZN4CPed19PedAnimPullPedOutCBEP21CAnimBlendAssociationPv
00000000002e0788 T _ZN4CPed18PedAnimDoorCloseCBEP21CAnimBlendAssociationPv
00000000002e0a60 T _ZN4CPed10PedShuffleEv
00000000002e0b00 T _ZN4CPed16PedAnimShuffleCBEP21CAnimBlendAssociationPv
00000000002e0b30 T _ZN4CPed12SetFormationE10eFormation
00000000002e0b38 T _ZN4CPed19PedAnimStepOutCarCBEP21CAnimBlendAssociationPv
00000000002e0eac T _ZN4CPed16LineUpPedWithCarEj
00000000002e18ec T _ZN4CPed24GetPositionToOpenCarDoorEP8CVehiclejf
00000000002e1af4 T _ZN4CPed29GetLocalPositionToOpenCarDoorEP8CVehiclejf
00000000002e1da4 T _ZN4CPed10SetCarJackEP8CVehicle
00000000002e2014 T _ZN4CPed19SetCarJack_AllClearEP8CVehiclejj
00000000002e21d0 T _ZN4CPed12ClearCarJackEv
00000000002e21ec T _ZN4CPed16RemoveInCarAnimsEb
00000000002e2234 T _ZN4CPed19BeingDraggedFromCarEv
00000000002e2400 T _ZN4CPed20SetEnterCar_AllClearEP8CVehiclejj
00000000002e2634 T _ZN4CPed8EnterCarEv
00000000002e27f4 T _ZN4CPed25PositionPedOutOfCollisionEv
00000000002e2f00 T _ZN4CPed7ExitCarEv
00000000002e31d0 T _ZN4CPed14GetNearestDoorEP8CVehicleR7CVector
00000000002e3534 T _ZN4CPed23GetNearestPassengerDoorEP8CVehicleR7CVector
00000000002e3ac0 T _ZN4CPed15GoToNearestDoorEP8CVehicle
00000000002e3b30 T _ZN4CPed24PedSetGetInCarPositionCBEP21CAnimBlendAssociationPv
00000000002e3c40 T _ZN4CPed34SetAnimOffsetForEnterOrExitVehicleEv
00000000002e4198 T _ZN4CPed34PedSetQuickDraggedOutCarPositionCBEP21CAnimBlendAssociationPv
00000000002e4614 T _ZN4CPed29PedSetDraggedOutCarPositionCBEP21CAnimBlendAssociationPv
00000000002e4a64 T _ZN4CPed19GetNearestTrainDoorEP8CVehicleR7CVector
00000000002e4b74 T _ZN4CPed26GetNearestTrainPedPositionEP8CVehicleR7CVector
00000000002e4e1c T _ZN4CPed15PedSetInTrainCBEP21CAnimBlendAssociationPv
00000000002e4ed4 T _ZN4CPed12DuckAndCoverEv
00000000002e586c T _ZN4CPed9ClearDuckEb
00000000002e58e4 T _ZN4CPed4DuckEv
00000000002e59e4 T _ZN4CPed25PedAnimDoorCloseRollingCBEP21CAnimBlendAssociationPv
00000000002e5a78 T _ZN4CPed16SeekBoatPositionEv
00000000002e5bd4 T _ZN4CPed19IsRoomToBeCarJackedEv
00000000002e5c98 T _ZN4CPed13AddInCarAnimsEP8CVehicleb
00000000002e5d9c T _ZN4CPed18RemoveDrivebyAnimsEv
00000000002e5e44 T _ZN4CPed28PositionAnyPedOutOfCollisionEv
00000000002e6078 T _ZN4CPed28CanBeDamagedByThisGangMemberEPS_
00000000002e6090 T _ZN16CVehicleToEffectC1EP8CVehicle
00000000002e6090 T _ZN16CVehicleToEffectC2EP8CVehicle
00000000002e6134 T _ZN16CVehicleToEffectC1ERKS_
00000000002e6134 T _ZN16CVehicleToEffectC2ERKS_
00000000002e62e4 T _ZN16CVehicleToEffect4FromERKS_
00000000002e6470 T _ZN16CVehicleToEffectD1Ev
00000000002e6470 T _ZN16CVehicleToEffectD2Ev
00000000002e6478 T _ZN16CVehicleToEffectaSERKS_
00000000002e6604 T _ZNK16CVehicleToEffect12ChooseEffectERK7CVector
00000000002e6694 T _ZN20CPedAttractorManager23GetEffectForIceCreamVanEP8CVehicleRK7CVector
00000000002e68c4 T _ZN20CPedAttractorManager23GetIceCreamVanForEffectEP9C2dEffect
00000000002e693c T _ZN20CPedAttractorManager24RemoveIceCreamVanEffectsEP9C2dEffect
00000000002e6b80 T _ZN20CPedAttractorManager23FindAssociatedAttractorEPK9C2dEffectRKNSt6__ndk16vectorIP13CPedAttractorNS3_9allocatorIS6_EEEE
00000000002e6bc0 T _ZN24CPedIceCreamVanAttractorD1Ev
00000000002e6bc0 T _ZN24CPedIceCreamVanAttractorD2Ev
00000000002e6c38 T _Z22GetPedAttractorManagerv
00000000002e6c44 T _ZN24CPedIceCreamVanAttractorD0Ev
00000000002e6c68 T _ZN13CPedAttractorC2EP9C2dEffectRK7CMatrixifffffff
00000000002e6dbc T _ZN20CPedAttractorManager16ComputeEffectPosEPK9C2dEffectRK7CMatrixR7CVector
00000000002e6e14 T _ZN20CPedAttractorManager21ComputeEffectQueueDirEPK9C2dEffectRK7CMatrixR7CVector
00000000002e6e80 T _ZN20CPedAttractorManager19ComputeEffectUseDirEPK9C2dEffectRK7CMatrixR7CVector
00000000002e6eec T _ZNK13CPedAttractor15IsAtHeadOfQueueEP4CPed
00000000002e6f00 T _ZNK20CPedShelterAttractor15IsAtHeadOfQueueEP4CPed
00000000002e6f08 T _ZNK13CPedAttractor9IsInQueueEP4CPed
00000000002e6f68 T _ZNK13CPedAttractor21GetNoOfRegisteredPedsEv
00000000002e6f88 T _ZNK13CPedAttractor15ComputeFreeSlotEv
00000000002e6f98 W _ZN20CPedAttractorManagerD2Ev
00000000002e7060 T _ZNK13CPedAttractor17ComputeAttractPosEiR7CVector
00000000002e7154 T _ZNK13CPedAttractor15ComputeDeltaPosEv
00000000002e71a4 T _ZNK20CPedShelterAttractor17ComputeAttractPosEiR7CVector
00000000002e71f4 T _ZN20CPedShelterAttractor15GetDisplacementEi
00000000002e7458 T _ZNK13CPedAttractor21ComputeAttractHeadingEiRf
00000000002e74f8 T _ZNK13CPedAttractor19ComputeDeltaHeadingEv
00000000002e7548 T _ZNK20CPedShelterAttractor21ComputeAttractHeadingEiRf
00000000002e75a8 T _ZNK13CPedAttractor18ComputeAttractTimeEibRf
00000000002e75c4 T _ZN13CPedAttractor11RegisterPedEP4CPed
00000000002e77e8 T _ZN13CPedAttractor13DeRegisterPedEP4CPed
00000000002e79a4 T _ZN13CPedAttractor16BroadcastArrivalEP4CPed
00000000002e7bec T _ZN13CPedAttractor18BroadcastDepartureEP4CPed
00000000002e7f44 T _ZN20CPedShelterAttractor18BroadcastDepartureEP4CPed
00000000002e8218 T _ZNK13CPedAttractor19IsRegisteredWithPedEP4CPed
00000000002e8298 T _ZN20CPedAttractorManager24RegisterPedWithAttractorEP4CPedP9C2dEffectRK7CMatrix
00000000002e835c T _ZNK20CPedAttractorManager25IsPedRegisteredWithEffectEP4CPed
00000000002e8704 T _ZN20CPedAttractorManager11RegisterPedEP4CPedP9C2dEffectRK7CMatrixRNSt6__ndk16vectorIP13CPedAttractorNS7_9allocatorISA_EEEE
00000000002e896c T _ZN20CPedAttractorManager13DeRegisterPedEP4CPedP13CPedAttractor
00000000002e8ed4 T _ZN20CPedAttractorManager13DeRegisterPedEP4CPedP13CPedAttractorRNSt6__ndk16vectorIS3_NS4_9allocatorIS3_EEEE
00000000002e8fe4 T _ZN20CPedAttractorManager16BroadcastArrivalEP4CPedP13CPedAttractor
00000000002e91e4 T _ZN20CPedAttractorManager16BroadcastArrivalEP4CPedP13CPedAttractorRNSt6__ndk16vectorIS3_NS4_9allocatorIS3_EEEE
00000000002e9250 T _ZN20CPedAttractorManager18BroadcastDepartureEP4CPedP13CPedAttractor
00000000002e97e8 T _ZN20CPedAttractorManager18BroadcastDepartureEP4CPedP13CPedAttractorRNSt6__ndk16vectorIS3_NS4_9allocatorIS3_EEEE
00000000002e9900 T _ZNK20CPedAttractorManager15IsAtHeadOfQueueEP4CPedP13CPedAttractor
00000000002e9adc T _ZN20CPedAttractorManager15IsAtHeadOfQueueEP4CPedP13CPedAttractorRKNSt6__ndk16vectorIS3_NS4_9allocatorIS3_EEEE
00000000002e9b30 T _ZNK20CPedAttractorManager9IsInQueueEP4CPedP13CPedAttractor
00000000002e9f00 T _ZN20CPedAttractorManager9IsInQueueEP4CPedP13CPedAttractorRKNSt6__ndk16vectorIS3_NS4_9allocatorIS3_EEEE
00000000002e9f98 T _ZN20CPedAttractorManager15IsPedRegisteredEP4CPedRKNSt6__ndk16vectorIP13CPedAttractorNS2_9allocatorIS5_EEEE
00000000002ea03c T _ZN20CPedAttractorManager14IsApproachableEP9C2dEffectRK7CMatrixiP4CPed
00000000002ea21c W _ZN16CPedAtmAttractorC2EP9C2dEffectRK7CMatrix
00000000002ea384 W _ZN17CPedSeatAttractorC2EP9C2dEffectRK7CMatrix
00000000002ea3ec W _ZN17CPedStopAttractorC2EP9C2dEffectRK7CMatrix
00000000002ea45c W _ZN18CPedPizzaAttractorC2EP9C2dEffectRK7CMatrix
00000000002ea4cc W _ZN20CPedShelterAttractorC2EP9C2dEffectRK7CMatrix
00000000002ea53c W _ZN24CPedIceCreamVanAttractorC2EP9C2dEffectRK7CMatrix
00000000002ea5b4 T _ZNK20CPedAttractorManager12HasEmptySlotEPK9C2dEffect
00000000002ea794 T _ZNK16CPedAtmAttractor25UpdatePedStateOnDepartureEP4CPed
00000000002ea800 T _ZNK17CPedStopAttractor25UpdatePedStateOnDepartureEP4CPed
00000000002ea804 T _ZNK17CPedSeatAttractor25UpdatePedStateOnDepartureEP4CPed
00000000002ea808 T _ZNK20CPedShelterAttractor25UpdatePedStateOnDepartureEP4CPed
00000000002ea80c T _ZNK24CPedIceCreamVanAttractor25UpdatePedStateOnDepartureEP4CPed
00000000002ea810 T _ZNK18CPedPizzaAttractor25UpdatePedStateOnDepartureEP4CPed
00000000002ea83c W _ZN13CPedAttractor22GetHeadOfQueueWaitTimeEv
00000000002ea844 W _ZN13CPedAttractorD0Ev
00000000002ea848 W _ZN16CPedAtmAttractorD0Ev
00000000002ea898 W _ZNK16CPedAtmAttractor7GetTypeEv
00000000002ea8a0 W _ZN17CPedSeatAttractorD0Ev
00000000002ea8f0 W _ZNK17CPedSeatAttractor7GetTypeEv
00000000002ea8f8 W _ZN17CPedStopAttractorD0Ev
00000000002ea948 W _ZNK17CPedStopAttractor7GetTypeEv
00000000002ea950 W _ZN18CPedPizzaAttractor22GetHeadOfQueueWaitTimeEv
00000000002ea95c W _ZN18CPedPizzaAttractorD0Ev
00000000002ea9ac W _ZNK18CPedPizzaAttractor7GetTypeEv
00000000002ea9b4 W _ZN13CPedAttractorD2Ev
00000000002eaa08 W _ZN20CPedShelterAttractorD0Ev
00000000002eaa58 W _ZNK20CPedShelterAttractor7GetTypeEv
00000000002eaa60 W _ZNK24CPedIceCreamVanAttractor7GetTypeEv
00000000002eaa68 W _ZNSt6__ndk16vectorI16CVehicleToEffectNS_9allocatorIS1_EEE21__push_back_slow_pathIRKS1_EEPS1_OT_
00000000002eac18 W _ZNKSt6__ndk111__move_loopINS_17_ClassicAlgPolicyEEclB8ne180000IP16CVehicleToEffectS5_S5_EENS_4pairIT_T1_EES7_T0_S8_
00000000002eae7c T _ZN4CPed22ServiceTalkingWhenDeadEv
00000000002eae8c T _ZN4CPed14ServiceTalkingEv
00000000002eafdc T _ZN4CPed3SayEt
00000000002eb160 T _Z28CheckForPedsOnGroundToAttackP4CPedPS0_
00000000002eb4ac T _ZN4CPed17IsPedHeadAbovePosEf
00000000002eb55c T _ZN4CPed13SetPointGunAtEP7CEntity
00000000002eb7ac T _ZN4CPed10PointGunAtEv
00000000002eb88c T _ZN4CPed15ClearPointGunAtEv
00000000002eb948 T _ZN4CPed9SetAttackEP7CEntity
00000000002ec198 T _ZN4CPed16StartFightAttackEh
00000000002ec468 T _ZN4CPed16FinishedAttackCBEP21CAnimBlendAssociationPv
00000000002ec7c0 T _ZN4CPed22CheckForPointBlankPedsEPS_
00000000002ec940 T _ZN4CPed11ClearAttackEv
00000000002eca08 T _ZN4CPed25ClearAttackByRemovingAnimEv
00000000002ecb08 T _ZN4CPed16FinishedReloadCBEP21CAnimBlendAssociationPv
00000000002ecc88 T _ZN4CPed6AttackEv
00000000002edc28 T _ZN4CPed18ChooseAttackPlayerEhb
00000000002ee448 T _ZN4CPed14ChooseAttackAIEhb
00000000002ee7e8 T _ZN4CPed17FinishFightMoveCBEP21CAnimBlendAssociationPv
00000000002ee820 T _ZN4CPed16StartFightDefendEhhh
00000000002ef2ec T _ZN4CPed5FightEv
00000000002efa20 T _ZN4CPed8EndFightEh
00000000002efb20 T _ZN4CPed11FightStrikeER7CVectorb
00000000002eff44 T _ZN4CPed12PlayHitSoundE11eFightState
00000000002f0044 T _ZN4CPed12PlayHitSoundEPS_
00000000002f0188 T _ZN4CPed11FightHitPedEPS_R7CVectorS2_s
00000000002f0a04 T _ZN4CPed13InflictDamageEPv11eWeaponTypef14ePedPieceTypesh
00000000002f1920 T _ZN4CPed13LoadFightDataEv
00000000002f1bfc T _ZN4CPed19SetInvestigateEventE10eEventType9CVector2Dftf
00000000002f1ce8 T _ZN4CPed16InvestigateEventEv
00000000002f23e8 T _ZN4CPed21ClearInvestigateEventEv
00000000002f24bc T _ZN4CPed14RemoveBodyPartEia
00000000002f2624 T _Z24SetPedAtomicVisibilityCBP8RwObjectPv
00000000002f2634 T _Z32RecurseFrameChildrenVisibilityCBP7RwFramePv
00000000002f2678 T _Z20CloneAtomicToFrameCBP8RwObjectPv
00000000002f26d4 T _Z29RecurseFrameChildrenToCloneCBP7RwFramePv
00000000002f274c T _ZN4CPed20SpawnFlyingComponentEia
00000000002f2750 T _ZN4CPed13ApplyHeadShotE11eWeaponType7CVectorh
00000000002f2908 T _ZN4CPed19DoesLOSBulletHitPedER9CColPoint
00000000002f29e4 T _ZN4CPed23GetHeadAndFootPositionsER7CVectorS1_b
00000000002f2bbc T _ZN4CPed17PlacePedOnDryLandEv
00000000002f2d94 T _ZN4CPed14CollideWithPedEPS_
00000000002f396c T _ZN4CPed14KillPedWithCarEP8CVehiclef
00000000002f4238 T _ZN4CPed12DriveVehicleEv
00000000002f5048 T _ZN4CPed17RemoveWeaponAnimsEif
00000000002f5134 T _ZN6CPedIKC1Ev
00000000002f5134 T _ZN6CPedIKC2Ev
00000000002f5148 T _ZN6CPedIK14GetWorldMatrixEP7RwFrameP11RwMatrixTag
00000000002f5198 T _ZN6CPedIK20GetComponentPositionER5RwV3dj
00000000002f520c T _ZN6CPedIK23ExtractYawAndPitchWorldEP11RwMatrixTagRfS2_
00000000002f52dc T _ZN6CPedIK23ExtractYawAndPitchLocalEP11RwMatrixTagRfS2_
00000000002f53b0 T _ZN6CPedIK8MoveLimbER15LimbOrientationffR16LimbMovementInfo
00000000002f5474 T _ZN6CPedIK14LookAtPositionERK7CVector
00000000002f5534 T _ZN6CPedIK15LookInDirectionEff
00000000002f59ac T _ZN6CPedIK11RotateTorsoEP18AnimBlendFrameDataR15LimbOrientationb
00000000002f5a48 T _ZN6CPedIK13RestoreLookAtEv
00000000002f5d48 T _ZN6CPedIK30ExtractYawAndPitchLocalSkinnedEP18AnimBlendFrameDataRfS2_
00000000002f5ed0 T _ZN6CPedIK18PointGunAtPositionERK7CVector
00000000002f5fc0 T _ZN6CPedIK19PointGunInDirectionEff
00000000002f6358 T _ZN6CPedIK27PointGunInDirectionUsingArmEff
00000000002f691c T _ZN6CPedIK14RestoreGunPosnEv
00000000002f6a90 T _ZN13CPedPlacement21IsPositionClearForPedERK7CVectorfiPP7CEntity
00000000002f6b1c T _ZN13CPedPlacement21IsPositionClearOfCarsEP7CVector
00000000002f6b48 T _ZN13CPedPlacement15FindZCoorForPedEP7CVector
00000000002f6c9c T _ZN10CRouteNode10InitialiseEv
00000000002f6ccc T _ZN10CRouteNode11RemoveRouteEs
00000000002f6e38 T _ZN10CRouteNode13AddRoutePointEs7CVector
00000000002f6e74 T _ZN10CRouteNode13GetRouteStartEs
00000000002f6ea8 T _ZN10CRouteNode19GetNextPointOnRouteEv
00000000002f6eb0 T _ZN10CRouteNode16GetPointPositionEs
00000000002f6ec8 T _ZN10CRouteNode21GetRouteThisPointIsOnEs
00000000002f6f20 T _ZN8CPedType10InitialiseEv
00000000002f6f78 T _ZN8CPedType11LoadPedDataEv
00000000002f735c T _ZN8CPedType8ShutdownEv
00000000002f73a0 T _ZN8CPedType11FindPedFlagEPc
00000000002f7690 T _ZN8CPedType11FindPedTypeEPc
00000000002f78f0 T _ZN8CPedType4SaveEPhPj
00000000002f7990 T _ZN8CPedType4LoadEPhj
00000000002f7a14 T _ZN9CPedStats10InitialiseEv
00000000002f7ab0 T _ZN9CPedStats12LoadPedStatsEv
00000000002f7d0c T _ZN9CPedStats8ShutdownEv
00000000002f7d50 T _ZN9CPedStats14GetPedStatInfoEPc
00000000002f7db4 T _ZN9CPedStats14GetPedStatTypeEPc
00000000002f7e1c T _ZN10CPlayerPedC1Ev
00000000002f7e1c T _ZN10CPlayerPedC2Ev
00000000002f7f7c T _ZN10CPlayerPed15SetInitialStateEv
00000000002f80a0 T _ZN10CPlayerPedD1Ev
00000000002f80a0 T _ZN10CPlayerPedD2Ev
00000000002f80e0 T _ZN10CPlayerPedD0Ev
00000000002f8104 T _ZN10CPlayerPed14SetupPlayerPedEi
00000000002f81b0 T _ZN10CPlayerPed15RemovePlayerPedEi
00000000002f8200 T _ZN10CPlayerPed19DeactivatePlayerPedEi
00000000002f8218 T _ZN10CPlayerPed19ReactivatePlayerPedEi
00000000002f8230 T _ZN10CPlayerPed15SetRealMoveAnimEv
00000000002f8b70 T _Z16GetPadFromPlayerP10CPlayerPed
00000000002f8b78 T _ZN10CPlayerPed14ProcessControlEv
00000000002f9794 T _ZN10CPlayerPed14SetWantedLevelEi
00000000002f979c T _ZN10CPlayerPed19FindNewAttackPointsEv
00000000002f9da0 T _ZN10CPlayerPed20UpdateMeleeAttackersEv
00000000002fa12c T _ZN10CPlayerPed33SetNearbyPedsToInteractWithPlayerEv
00000000002fa398 T _ZN10CPlayerPed19RestoreSprintEnergyEf
00000000002fa3cc T _ZN10CPlayerPed17ClearWeaponTargetEv
00000000002fa410 T _ZN10CPlayerPed11RunningLandEP4CPad
00000000002fa4f0 T _ZN10CPlayerPed16PlayerControlM16EP4CPad
00000000002fa7c8 T _ZN10CPlayerPed19PlayerControlSniperEP4CPad
00000000002faa94 T _ZN10CPlayerPed31PlayerControl1stPersonRunAroundEP4CPad
00000000002fad74 T _ZN10CPlayerPed20PlayerControlFighterEP4CPad
00000000002faeb8 T _ZN10CPlayerPed18PlayerControlZeldaEP4CPad
00000000002fb260 T _ZN10CPlayerPed19ProcessPlayerWeaponEP4CPad
00000000002fba14 T _ZN10CPlayerPed19ProcessWeaponSwitchEP4CPad
00000000002fbd24 T _ZN10CPlayerPed17ProcessAnimGroupsEv
00000000002fbfac T _ZN10CPlayerPed16ReApplyMoveAnimsEv
00000000002fc084 T _ZN10CPlayerPed15UseSprintEnergyEv
00000000002fc124 T _ZN10CPlayerPed19DoWeaponSmoothSprayEv
00000000002fc2bc T _ZN10CPlayerPed34MovementDisabledBecauseOfTargetingEv
00000000002fc308 T _ZN10CPlayerPed29GetPlayerInfoForThisPlayerPedEv
00000000002fc320 T _ZN10CPlayerPed18PlayIdleAnimationsEP4CPad
00000000002fc530 T _ZN10CPlayerPed23DoesPlayerWantNewWeaponE11eWeaponTypeb
00000000002fc5b4 T _ZN10CPlayerPed22FindWeaponLockOnTargetEv
00000000002fc8bc T _ZN10CPlayerPed24DoesTargetHaveToBeBrokenE7CVectorP7CWeapon
00000000002fc90c T _ZN10CPlayerPed25RotatePlayerToTrackTargetEv
00000000002fc9ac T _ZN10CPlayerPed26FindNextWeaponLockOnTargetEP7CEntityb
00000000002fcc44 T _ZN10CPlayerPed23MakeChangesForNewWeaponEi
00000000002fcc60 T _ZN10CPlayerPed23UpdateCameraWeaponModesEP4CPad
00000000002fccf8 T _ZN10CPlayerPed23MakeChangesForNewWeaponE11eWeaponType
00000000002fce2c T _ZN10CPlayerPed20CanIKReachThisTargetE7CVectorP7CWeaponb
00000000002fcf0c T _ZN10CPlayerPed14EvaluateTargetEP7CEntityPS1_Pfffbb
00000000002fd0d0 T _ZN10CPlayerPed25IsThisPedAnAimingPriorityEP4CPed
00000000002fd120 T _Z16GetTouchDistancebfff7CVectorS_
00000000002fd198 T _ZN10CPlayerPed17HandleTapToTargetEffb
00000000002fd604 T _ZN10CPlayerPed21GetClosestPedToCenterEffRfS0_
00000000002fd844 T _ZN10CPlayerPed26EvaluateNeighbouringTargetEP7CEntityPS1_Pfffbbb
00000000002fd9c4 T _ZN10CPlayerPed6BustedEv
00000000002fd9d0 T _ZN10CPlayerPed20SetWantedLevelNoDropEi
00000000002fd9d8 T _ZN10CPlayerPed20DebugMarkVisiblePedsEv
00000000002fda54 T _ZN10CPlayerPed21MakeObjectTargettableEib
00000000002fdb54 T _ZN10CPlayerPed25KeepAreaAroundPlayerClearEv
00000000002fddcc T _ZN10CPlayerPed17DoStuffToGoOnFireEv
00000000002fdde8 T _ZN10CPlayerPed14AnnoyPlayerPedEb
00000000002fde20 T _ZN10CPlayerPed15ClearAdrenalineEv
00000000002fde40 T _ZN10CPlayerPed20GetMeleeAttackCoordsER7CVectoraf
00000000002fdf10 T _ZN10CPlayerPed20FindMeleeAttackPointEP4CPedR7CVectorRj
00000000002fe31c T _ZN10CPlayerPed22RemovePedFromMeleeListEP4CPed
00000000002fe3a0 T _ZN10CPlayerPed28AdvanceMeleeListAttackTimersEP4CPed
00000000002fe54c W _ZN10CPlayerPed11SetMoveAnimEv
00000000002fe550 T _ZN11CPopulation10InitialiseEv
00000000002fe674 T _ZN11CPopulation13LoadPedGroupsEv
00000000002fe820 T _ZN11CPopulation8ShutdownEv
00000000002fe824 T _ZN11CPopulation6UpdateEb
00000000002febdc T _ZN11CPopulation16ManagePopulationEv
00000000002ff48c T _ZN11CPopulation27RemovePedsIfThePoolGetsFullEv
00000000002ff770 T _ZN11CPopulation34MoveCarsAndPedsOutOfAbandonedZonesEv
00000000002ff774 T _ZN11CPopulation25GeneratePedsAtStartOfGameEv
00000000002ff9c8 T _ZN11CPopulation15AddToPopulationEffff
0000000000300b50 T _ZN11CPopulation25PedCreationDistMultiplierEv
0000000000300bd8 T _ZN11CPopulation22TestRoomForDummyObjectEP7CObject
0000000000300c78 T _ZN11CPopulation20ConvertToDummyObjectEP7CObject
0000000000300d34 T _ZN11CPopulation19ConvertToRealObjectEP12CDummyObject
0000000000300e2c T _ZN11CPopulation9RemovePedEP4CPed
0000000000300e68 T _ZN11CPopulation31ConvertAllObjectsToDummyObjectsEv
0000000000300ef4 T _ZN11CPopulation21TestSafeForRealObjectEP12CDummyObject
00000000003011e4 T _ZN11CPopulation25ChoosePolicePedOccupationEv
00000000003011fc T _ZN11CPopulation15IsSecurityGuardE8ePedType
0000000000301208 T _ZN11CPopulation31ChooseCivilianCoupleOccupationsEiRiS0_
0000000000301460 T _ZN11CPopulation20ChooseGangOccupationEi
0000000000301464 T _ZN11CPopulation24ChooseCivilianOccupationEi
0000000000301584 T _ZN11CPopulation25ComputeRandomisedGangSizeEv
00000000003015c8 T _ZN11CPopulation30PlaceMallPedsAsStationaryGroupERK7CVectori
0000000000301e4c T _ZN11CPopulation16PlaceGangMembersE8ePedTypeiRK7CVector
0000000000301edc T _ZN11CPopulation11PlaceCoupleE8ePedTypeiS0_i7CVector
0000000000302304 T _ZN11CPopulation11IsSkateableERK7CVector
00000000003023c8 T _ZN11CPopulation6AddPedE8ePedTypejRK7CVectori
00000000003026b8 T _ZN11CPopulation11IsSunbatherEi
00000000003026e0 T _ZN11CPopulation11AddDummyPedE8ePedTypejRK7CVector
0000000000302784 T _ZN11CPopulation22AddDeadPedInFrontOfCarERK7CVectorP8CVehicle
0000000000302b1c T _ZN11CPopulation28ChooseNextCivilianOccupationEi
0000000000302bc8 T _ZN11CPopulation6IsMaleEi
0000000000302c88 T _ZN11CPopulation8IsFemaleEi
0000000000302d48 T _ZN11CPopulation11IsSkateableEh
0000000000302d5c T _ZN11CPopulation11AddPedInCarEP8CVehicleb
0000000000303244 T _ZN11CPopulation19AddExistingPedInCarEP4CPedP8CVehicle
0000000000303248 T _ZN11CPopulation14UpdatePedCountE8ePedTypeh
00000000003032ac T _ZN11CPopulation18DealWithZoneChangeE10eLevelNameS0_b
00000000003032b0 T _ZN11CPopulation22CanSolicitPlayerOnFootEi
00000000003032d0 T _ZN11CPopulation21CanSolicitPlayerInCarEi
00000000003032ec T _ZN11CPopulation17CanJeerAtStripperEi
000000000030330c T _ZN11CPopulation27PlaceGangMembersInFormationE8ePedTypeiRK7CVector
0000000000303804 T _ZN11CPopulation24PlaceGangMembersInCircleE8ePedTypeiRK7CVector
0000000000303f70 T _ZN9CAntennas4InitEv
0000000000303f9c T _ZN9CAntennas6UpdateEv
0000000000304088 T _ZN9CAntennas6RenderEv
0000000000304304 T _ZN9CAntennas11RegisterOneEj7CVectorS0_f
0000000000304634 T _ZN8CAntenna6UpdateE7CVectorS0_
0000000000304740 T _ZN14CBaseModelInfoC2E13ModelInfoType
000000000030476c T _ZN14CBaseModelInfo8ShutdownEv
00000000003047d0 T _ZN14CBaseModelInfo20DeleteCollisionModelEv
0000000000304810 T _ZN14CBaseModelInfo13Init2dEffectsEv
0000000000304820 T _ZN14CBaseModelInfo11Get2dEffectEi
0000000000304868 T _ZN14CBaseModelInfo11Add2dEffectEP9C2dEffect
00000000003048b8 T _ZN14CBaseModelInfo6AddRefEv
00000000003048c8 T _ZN14CBaseModelInfo9RemoveRefEv
00000000003048d8 W _ZN14CBaseModelInfoD0Ev
00000000003048dc T _ZN7CClouds4InitEv
0000000000304978 T _ZN7CClouds8ShutdownEv
00000000003049d4 T _ZN7CClouds6UpdateEv
0000000000304a7c T _ZN7CClouds6RenderEv
0000000000304a80 T _ZN7CClouds16RenderBackgroundEsssssss
0000000000304e84 T _ZN7CClouds13RenderHorizonEv
000000000030505c T _ZN15CClumpModelInfo14DeleteRwObjectEv
00000000003050bc T _ZN15CClumpModelInfo8SetClumpEP7RpClump
00000000003051c8 T _ZN15CClumpModelInfo14CreateInstanceEP11RwMatrixTag
0000000000305214 T _ZN15CClumpModelInfo14CreateInstanceEv
0000000000305290 T _ZN15CClumpModelInfo11SetAnimFileEPKc
0000000000305340 T _ZN15CClumpModelInfo20ConvertAnimFileIndexEv
0000000000305388 T _ZN15CClumpModelInfo19SetAtomicRendererCBEP8RpAtomicPv
00000000003053ac T _ZN15CClumpModelInfo19FindFrameFromNameCBEP7RwFramePv
000000000030545c T _ZN15CClumpModelInfo28FindFrameFromNameWithoutIdCBEP7RwFramePv
0000000000305518 T _ZN15CClumpModelInfo17FindFrameFromIdCBEP7RwFramePv
000000000030557c T _ZN15CClumpModelInfo16FillFrameArrayCBEP7RwFramePv
00000000003055c4 T _ZN15CClumpModelInfo14GetFrameFromIdEP7RpClumpi
0000000000305624 T _ZN15CClumpModelInfo14FillFrameArrayEP7RpClumpPP7RwFrame
000000000030563c T _ZN15CClumpModelInfo11SetFrameIdsEP24RwObjectNameIdAssocation
00000000003056fc W _ZN15CClumpModelInfoD0Ev
0000000000305700 W _ZN15CClumpModelInfo11GetRwObjectEv
0000000000305708 W _ZN15CClumpModelInfo16GetAnimFileIndexEv
0000000000305710 T _ZN5CRGBAC1Ehhhh
0000000000305710 T _ZN5CRGBAC2Ehhhh
0000000000305724 T _ZN17CRegisteredCorona6UpdateEv
0000000000305994 T _ZN8CCoronas6UpdateEv
0000000000305a8c T _ZN8CCoronas6RenderEv
0000000000306288 T _ZN8CCoronas17RenderReflectionsEv
0000000000306684 T _ZN8CCoronas19RenderSunReflectionEv
0000000000306be8 T _ZN8CCoronas4InitEv
0000000000306d70 T _ZN8CCoronas8ShutdownEv
0000000000306e20 T _ZN8CCoronas14RegisterCoronaEjhhhhRK7CVectorffhhhhhfbf
0000000000306e54 T _ZN8CCoronas14RegisterCoronaEjhhhhRK7CVectorffP9RwTexturehhhhfbf
000000000030701c T _ZN8CCoronas17UpdateCoronaCoorsEjRK7CVectorff
000000000030709c T _ZN8CCoronas12DoSunAndMoonEv
0000000000307320 T _ZN7CEntity22ProcessLightsForEntityEv
0000000000307c2c T _ZN8CCredits6RenderEv
000000000030d100 T _ZN8CCredits15PrintCreditTextEffPsRjf
000000000030d288 T _ZN8CCredits16PrintCreditSpaceEfRj
000000000030d2ac T _ZN13CShadowCameraC1Ev
000000000030d2ac T _ZN13CShadowCameraC2Ev
000000000030d2b4 T _ZN13CShadowCameraD1Ev
000000000030d2b4 T _ZN13CShadowCameraD2Ev
000000000030d2cc T _ZN13CShadowCamera7DestroyEv
000000000030d360 T _ZN13CShadowCamera6CreateEi
000000000030d43c T _ZN13CShadowCamera10SetFrustumEf
000000000030d4c4 T _ZN13CShadowCamera8SetLightEP7RpLight
000000000030d530 T _ZN13CShadowCamera9SetCenterEP5RwV3d
000000000030d5d0 T _ZN13CShadowCamera6UpdateEP7RpClump
000000000030d6d0 T _ZN13CShadowCamera6UpdateEP8RpAtomic
000000000030d794 T _ZN13CShadowCamera12InvertRasterEv
000000000030d8e0 T _ZN13CShadowCamera18MakeGradientRasterEv
000000000030da98 T _ZN13CShadowCamera17GetRwRenderRasterEv
000000000030daa4 T _ZN13CShadowCamera21ApplyAlphaMapToRasterEv
000000000030db28 T _ZN13CShadowCamera18ShadowRasterRenderEP5RwV2d
000000000030dcbc T _ZN13CShadowCamera18GetRwRenderTextureEv
000000000030dcc4 T _ZN13CShadowCamera12GetRwZRasterEv
000000000030dcd0 T _ZN13CShadowCamera14RasterResampleEP8RwRaster
000000000030de64 T _ZN13CShadowCamera10RasterBlurEP8RwRasteri
000000000030de6c T _ZN13CShadowCamera14RasterGradientEP8RwRaster
000000000030dff0 T _ZN13CShadowCamera17DrawOutlineBorderERK6RwRGBA
000000000030e16c T _ZN15CCutsceneShadowC1Ev
000000000030e16c T _ZN15CCutsceneShadowC2Ev
000000000030e1fc T _ZN15CCutsceneShadowD1Ev
000000000030e1fc T _ZN15CCutsceneShadowD2Ev
000000000030e23c T _ZN15CCutsceneShadow7DestroyEv
000000000030e2bc T _ZN15CCutsceneShadow6CreateEP8RwObjectibib
000000000030e5c4 T _ZN15CCutsceneShadow18SetLightPropertiesEffb
000000000030e6c0 T _ZN15CCutsceneShadow6CreateEP7RpClumpibib
000000000030e6c4 T _ZN15CCutsceneShadow6CreateEP8RpAtomicibib
000000000030e6c8 T _ZN15CCutsceneShadow13IsInitializedEv
000000000030e6d8 T _ZN15CCutsceneShadow15GetShadowCameraEi
000000000030e708 T _ZN15CCutsceneShadow6UpdateEv
000000000030e90c T _ZN15CCutsceneShadow17UpdateForCutsceneEv
000000000030e944 T _ZN15CCutsceneShadow18GetShadowRwTextureEv
000000000030e960 T _ZN15CCutsceneShadow23DrawBorderAroundTextureERK6RwRGBA
000000000030e974 T _ZN15CCutsceneShadow17RenderForCutsceneEf
000000000030e978 T _ZN5CDraw6SetFOVEf
000000000030e988 T _ZN5CDraw20CalculateAspectRatioEv
000000000030ed34 T _ZN13CMovingThings4InitEv
000000000030ef58 T _ZN12CPlaneTrails4InitEv
000000000030efa8 T _ZN12CSmokeTrails4InitEv
000000000030efec T _ZN13CPlaneBanners4InitEv
000000000030f064 T _ZN13CMovingThings21PossiblyAddThisEntityEP7CEntity
000000000030f1c4 T _ZN11CEscalators4InitEv
000000000030fdb0 T _ZN10CScrollBar4InitE7CVectorS0_hhhhf
000000000030fea4 T _ZN13CMovingThings11RegisterOneEP7CEntityt
000000000030ff0c T _ZN13CMovingThings8ShutdownEv
000000000030fff4 T _ZN11CEscalators8ShutdownEv
00000000003100d4 T _ZN12CMovingThing9AddToListEPS_
00000000003100ec T _ZN13CMovingThings6UpdateEv
00000000003102f0 T _ZN13CPlaneBanners6UpdateEv
00000000003103d8 T _ZN12CPlaneTrails6UpdateEv
0000000000310810 T _ZN11CEscalators6UpdateEv
000000000031091c T _ZN12CMovingThing6UpdateEv
0000000000310da0 T _ZN10CScrollBar6UpdateEv
0000000000311010 T _ZN13CMovingThings6RenderEv
0000000000311090 T _ZN12CSmokeTrails6UpdateEv
0000000000311294 T _ZN10CScrollBar6RenderEv
0000000000311638 T _ZN12CPlaneTrails6RenderEv
000000000031163c T _ZN12CSmokeTrails6RenderEv
0000000000311670 T _ZN13CPlaneBanners6RenderEv
00000000003116b4 T _ZN12CMovingThing14RemoveFromListEv
00000000003116c8 T _ZN12CScriptPaths4InitEv
000000000031175c T _ZN11CScriptPath5ClearEv
00000000003117a0 T _ZN12CScriptPaths8ShutdownEv
0000000000311834 T _ZN12CScriptPaths6UpdateEv
0000000000311868 T _ZN11CScriptPath6UpdateEv
0000000000311d78 T _ZN12CScriptPaths11IsOneActiveEv
0000000000311dd8 T _ZN12CScriptPaths4SaveEPhPj
0000000000311fb0 T _ZN12CScriptPaths4LoadEPhj
00000000003122dc T _ZN12CScriptPaths14Save_ForReplayEv
0000000000312338 T _ZN12CScriptPaths14Load_ForReplayEv
0000000000312394 T _ZN11CScriptPath13InitialiseOneEif
00000000003124c4 T _ZN11CScriptPath18SetObjectToControlEP7CObject
0000000000312560 T _ZN11CScriptPath27FindCoorsFromDistanceOnPathEfPfS0_S0_
0000000000312668 T _ZN11CPlaneTrail4InitEv
0000000000312678 T _ZN11CPlaneTrail6RenderEf
0000000000312908 T _ZN11CPlaneTrail13RegisterPointE7CVector
00000000003129c8 T _ZN12CPlaneTrails13RegisterPointE7CVectorj
0000000000312a90 T _ZN12CPlaneBanner4InitEv
0000000000312ad0 T _ZN12CPlaneBanner6RenderEv
0000000000312ec4 T _ZN12CPlaneBanner6UpdateEv
0000000000312f7c T _ZN12CPlaneBanner13RegisterPointE7CVector
0000000000312f88 T _ZN13CPlaneBanners13RegisterPointE7CVectorj
0000000000312fa8 T _ZN11CEscalators6AddOneERK7CVectorS2_S2_S2_b
0000000000313008 T _ZN10CEscalator9SwitchOffEv
00000000003130a4 T _ZN10CEscalator6UpdateEv
00000000003137ec T _ZN10CEscalator10AddThisOneERK7CVectorS2_S2_S2_b
0000000000313a00 T _ZN11CSmokeTrail4InitEi
0000000000313a18 T _ZN11CSmokeTrail6RenderEv
0000000000313ce4 T _ZN11CSmokeTrail13RegisterPointE7CVectorf
0000000000313e30 T _Z13SetFontExtraYf
0000000000313e40 T _Z8readFilePwPKci
0000000000313ec8 T _Z21isJapanesePunctuations
0000000000313f30 T _Z9isNoBreakw
0000000000314020 T _Z14AsciiToUnicodePKcPs
0000000000314044 T _Z13UnicodeStrcatPsS_
000000000031407c T _Z13UnicodeStrcpyPsPKs
00000000003140a4 T _Z13UnicodeStrlenPKs
00000000003140d0 T _Z9GetJIndext
00000000003141f0 T _Z11ReadMetFilePci
00000000003144bc T _ZN5CFont21ClearSpecialLanguagesEv
00000000003144f0 T _ZN5CFont18AddJapaneseTextureEv
0000000000314590 T _ZN5CFont16AddKoreanTextureEv
0000000000314630 T _ZN5CFont12AddEFIGSFontEv
0000000000314704 T _ZN5CFont17AddRussianTextureEv
00000000003147b0 T _Z20UnicodeMakeUpperCasePsPKs
00000000003147ec T _ZN5CFont10InitialiseEv
0000000000314b44 T _ZN5CFont8SetScaleEff
0000000000314bf8 T _ZN5CFont16SetSlantRefPointEff
0000000000314c08 T _ZN5CFont8SetSlantEf
0000000000314c18 T _ZN5CFont8SetColorE5CRGBA
0000000000314c70 T _ZN5CFont13SetJustifyOffEv
0000000000314c84 T _ZN5CFont12SetCentreOffEv
0000000000314c94 T _ZN5CFont8SetWrapxEf
0000000000314ca4 T _ZN5CFont13SetCentreSizeEf
0000000000314cb4 T _ZN5CFont16SetBackgroundOffEv
0000000000314cc4 T _ZN5CFont18SetBackgroundColorE5CRGBA
0000000000314cf0 T _ZN5CFont24SetBackGroundOnlyTextOffEv
0000000000314d00 T _ZN5CFont9SetPropOnEv
0000000000314d14 T _ZN5CFont12SetFontStyleEs
0000000000314d38 T _ZN5CFont19SetRightJustifyWrapEf
0000000000314d48 T _ZN5CFont12SetAlphaFadeEf
0000000000314d58 T _ZN5CFont21SetDropShadowPositionEs
0000000000314d68 T _ZN5CFont8ShutdownEv
0000000000314e18 T _ZN5CFont12InitPerFrameEv
0000000000314e58 T _ZN5CFont9PrintCharEffs
0000000000315378 T _ZN5CFont16RenderFontBufferEv
0000000000315b28 T _ZN5CFont10ParseTokenEPsR5CRGBARbS3_S3_
0000000000315cec T _ZN5CFont16FindNewCharacterEs
0000000000315db0 T _Z16containsNonAsciiPsi
0000000000315e20 T _Z16GetJapaneseWidthsb
0000000000316040 T _Z13IsPunctuations
00000000003160d4 T _ZN5CFont11PrintStringEffjPsS0_f
000000000031644c T _ZN5CFont10ParseTokenEPs
00000000003166c8 T _ZN5CFont21PrintStringFromBottomEffPs
0000000000316750 T _ZN5CFont14GetNumberLinesEffPs
0000000000316910 T _ZN5CFont11PrintStringEffPs
0000000000316d00 T _ZN5CFont11SetFlashOffEv
0000000000316d10 T _ZN5CFont11GetTextRectEP5CRectffPs
0000000000317030 T _ZN5CFont14GetStringWidthEPsbb
0000000000317160 T _ZN5CFont12GetNextSpaceEPsbb
0000000000317604 T _ZN5CFont16GetCharacterSizeEs
00000000003177bc T _ZN5CFont17GetCharacterWidthEs
0000000000317858 T _ZN5CFont14GetStringWidthEPsb
000000000031795c T _ZN5CFont9GetHeightEb
00000000003179a4 T _ZN5CFont13ComputeHeightEf
00000000003179c8 T _ZN5CFont12GetNextSpaceEPs
0000000000317a0c T _ZN5CFont25FilterOutTokensFromStringEPs
0000000000317ab8 T _ZN5CFont9DrawFontsEv
0000000000317abc T _ZN5CFont9PushStateEv
0000000000317b40 T _ZN5CFont8PopStateEv
0000000000317bc0 T _ZN5CFont10SetFlashOnEv
0000000000317bd4 T _ZN5CFont12SetJustifyOnEv
0000000000317bec T _ZN5CFont11SetCentreOnEv
0000000000317c04 T _ZN5CFont15SetBackgroundOnEv
0000000000317c18 T _ZN5CFont23SetBackGroundOnlyTextOnEv
0000000000317c2c T _ZN5CFont17SetRightJustifyOnEv
0000000000317c44 T _ZN5CFont18SetRightJustifyOffEv
0000000000317c58 T _ZN5CFont10SetPropOffEv
0000000000317c68 T _ZN5CFont12SetDropColorE5CRGBA
0000000000317cd4 T _ZN5CFont14character_codeEh
0000000000317f00 T _ZN6CGlass4InitEv
0000000000318014 T _ZN6CGlass6UpdateEv
000000000031805c T _ZN17CFallingGlassPane6UpdateEv
00000000003183c4 T _ZN6CGlass6RenderEv
000000000031856c T _ZN17CFallingGlassPane6RenderEv
0000000000318b7c T _ZN6CGlass19RenderEntityInGlassEP7CEntity
00000000003191ec T _ZN6CGlass18RenderHiLightPolysEv
0000000000319288 T _ZN6CGlass20RenderShatteredPolysEv
0000000000319344 T _ZN6CGlass21RenderReflectionPolysEv
0000000000319400 T _ZN6CGlass12FindFreePaneEv
0000000000319428 T _ZN6CGlass19CalcAlphaWithNormalEP7CVector
00000000003194c4 T _ZN6CGlass22GeneratePanesForWindowEj7CVectorS0_S0_S0_S0_fbbib
0000000000319ab0 T _ZN6CGlass31AskForObjectToBeRenderedInGlassEP7CEntity
0000000000319adc T _ZN6CGlass25WindowRespondsToCollisionEP7CEntityf7CVectorS2_b
0000000000319d18 T _ZN6CGlass29WindowRespondsToSoftCollisionEP7CEntityf
0000000000319d70 T _ZN6CGlass19WasGlassHitByBulletEP7CEntity7CVector
0000000000319e70 T _ZN6CGlass25WindowRespondsToExplosionEP7CEntity7CVector
0000000000319efc T _ZN6CGlass21CarWindscreenShattersEP8CVehicleb
000000000031a430 T _ZN6CGlass28HasGlassBeenShatteredAtCoorsEfff
000000000031a6b4 T _ZN6CGlass20FindWindowSectorListER8CPtrListPfPP7CEntityfff
000000000031a754 T _ZN6CGlass20BreakGlassPhysicallyE7CVectorf
000000000031ab04 T _Z15InitAspectRatiov
000000000031ab58 T _Z20AreVideoSettingsHighv
000000000031abb8 T _ZN4CHud10InitialiseEv
000000000031b1f4 T _ZN4CHud8ShutdownEv
000000000031b380 T _ZN4CHud12ReInitialiseEv
000000000031b77c T _ZN4CHud22GetRidOfAllHudMessagesEv
000000000031babc T _ZN4CHud11SetZoneNameEPs
000000000031bacc T _ZN4CHud14SetHelpMessageEPsbbb
000000000031bd0c T _ZN4CHud27IsHelpMessageBeingDisplayedEv
000000000031bd24 T _ZN4CHud24SetHelpMessageWithNumberEPsibb
000000000031be8c T _ZN4CHud14SetVehicleNameEPs
000000000031be9c T _ZN4CHud13DrawFadeStateE15DRAW_FADE_STATEi
000000000031c110 T _ZN4CHud4DrawEv
0000000000320be4 T _Z18DrawSniperBlackoutv
0000000000320e4c T _ZN4CHud13DrawAfterFadeEv
0000000000321988 T _ZN4CHud10SetMessageEPs
00000000003219b8 T _ZN4CHud13SetBigMessageEPst
0000000000321a84 T _ZN4CHud15SetPagerMessageEPs
0000000000321a88 T _ZN4CHud15ResetWastedTextEv
0000000000321aac T _ZN6CLines20RenderLineNoClippingEffffffjj
0000000000321b48 T _ZN6CLines22RenderLineWithClippingEffffffjj
0000000000321d70 T _ZN6CLines15ImmediateLine2DEiiiihhhhhhhh
0000000000321eac T _ZN6CMBlurC1Ev
0000000000321eac T _ZN6CMBlurC2Ev
0000000000321ebc T _ZN6CMBlurD1Ev
0000000000321ebc T _ZN6CMBlurD2Ev
0000000000321ef0 T _ZN6CMBlur15MotionBlurCloseEv
0000000000321f24 T _ZN6CMBlur23CreateImmediateModeDataEP8RwCameraP6RwRect
00000000003220f8 T _ZN6CMBlur23CreateImmediateModeDataEP8RwCameraP6RwRectP14RwOpenGLVertex6RwRGBAfffffi
00000000003222cc T _ZN6CMBlur13OverlayRenderEP8RwCameraP8RwRaster6RwRGBAii
0000000000322934 T _ZN6CMBlur15OverlayRenderFxEP8RwCameraP8RwRaster
0000000000323e58 T _ZN6CMBlur16MotionBlurRenderEP8RwCamerajjjjij
0000000000323ef0 T _ZN6CMBlur9PosInsideEP6RwRectffff
0000000000323ff0 T _ZN6CMBlur18CheckWithinHudAreaEP6RwRect
0000000000324378 T _ZN6CMBlur11AddRenderFxEP8RwCameraP6RwRectf6FxType
00000000003246a4 T _ZN6CMBlur14MotionBlurOpenEP8RwCamera
0000000000324798 T _ZN6CMBlur12SetDrunkBlurEf
00000000003247b8 T _ZN6CMBlur14ClearDrunkBlurEv
00000000003247dc W _ZN6CStoreI13CPedModelInfoLi130EED2Ev
0000000000324840 T _ZN10CModelInfo10InitialiseEv
0000000000324af0 T _ZN10CModelInfo14AddSimpleModelEi
0000000000324b58 T _ZN10CModelInfo15ReInit2dEffectsEv
0000000000324ba4 T _ZN10CModelInfo8ShutDownEv
0000000000324e1c T _ZN10CModelInfo12GetModelInfoEPKcPi
0000000000324f04 T _ZN10CModelInfo12GetModelInfoEPKcii
0000000000324f7c T _ZN10CModelInfo12AddTimeModelEi
0000000000324fe8 T _ZN10CModelInfo14AddWeaponModelEi
0000000000325054 T _ZN10CModelInfo13AddClumpModelEi
00000000003250a0 T _ZN10CModelInfo15AddVehicleModelEi
000000000032510c T _ZN10CModelInfo11AddPedModelEi
0000000000325158 T _ZN10CModelInfo12AddHandModelEi
00000000003251c4 T _ZN10CModelInfo16Get2dEffectStoreEv
00000000003251d0 T _ZN10CModelInfo4TidyEv
0000000000325240 T _ZN10CModelInfo11IsBoatModelEi
0000000000325278 T _ZN10CModelInfo10IsCarModelEi
00000000003252ac T _ZN10CModelInfo12IsTrainModelEi
00000000003252e4 T _ZN10CModelInfo11IsHeliModelEi
000000000032531c T _ZN10CModelInfo12IsPlaneModelEi
0000000000325354 T _ZN10CModelInfo11IsBikeModelEi
000000000032538c T _ZN10CModelInfo13IsVehicleTypeEi11VehicleType
00000000003253c0 W _ZN13CPedModelInfoD2Ev
0000000000325408 W _ZN14CTimeModelInfoD0Ev
000000000032540c W _ZN16CSimpleModelInfo11GetRwObjectEv
0000000000325688 T _Z15CalcScreenCoorsRK7CVectorPS_PfS3_
0000000000325770 T _Z15CalcScreenCoorsRK7CVectorPS_
00000000003257f0 T _Z31DoesInfiniteLineCrossFiniteLineffffffff
0000000000325820 T _Z27DoesInfiniteLineTouchScreenffff
00000000003258e0 T _ZN10COcclusion4InitEv
0000000000325924 T _ZN10COcclusion6AddOneEfffffff
0000000000325a20 T _Z17IsPointInsideLinefffffff
0000000000325a3c T _ZN10COcclusion22ProcessBeforeRenderingEv
0000000000325e28 T _ZN9COccluder10NearCameraEv
0000000000325e9c T _ZN9COccluder18ProcessOneOccluderEP15CActiveOccluder
00000000003264ec T _ZN10COcclusion19OccluderHidesBehindEP15CActiveOccluderS1_
00000000003265ac T _ZN9COccluder18ProcessLineSegmentEiiP15CActiveOccluder
0000000000326a24 T _ZN15CActiveOccluder26IsPointWithinOcclusionAreaEfff
0000000000326aa8 T _ZN7CEntity16IsEntityOccludedEv
0000000000327010 T _ZN10COcclusion18IsPositionOccludedE7CVectorf
00000000003271b8 T _ZN10COcclusion15IsAABoxOccludedE7CVectorfff
00000000003277bc T _ZN9CParticleC1Ev
00000000003277bc T _ZN9CParticleC2Ev
00000000003277d0 T _ZN9CParticleD1Ev
00000000003277d0 T _ZN9CParticleD2Ev
00000000003277d4 T _ZN9CParticle12ReloadConfigEv
0000000000327878 T _ZN9CParticle10InitialiseEv
00000000003284e8 T _ZN9CParticle8ShutdownEv
00000000003289d4 T _ZN9CParticle21AddParticlesAlongLineE13tParticleTypeRK7CVectorS3_S3_fP7CEntityfiiii
0000000000328b1c T _ZN9CParticle11AddParticleE13tParticleTypeRK7CVectorS3_P7CEntityfiiii
0000000000328b7c T _ZN9CParticle21AddParticlesAlongLineE13tParticleTypeRK7CVectorS3_S3_fP7CEntityfRK6RwRGBAiiii
0000000000328ccc T _ZN9CParticle11AddParticleE13tParticleTypeRK7CVectorS3_P7CEntityfRK6RwRGBAiiii
0000000000329ac8 T _ZN9CParticle6UpdateEv
000000000032b13c T _ZN9CParticle14RemoveParticleEPS_S0_P19tParticleSystemData
000000000032b18c T _ZN9CParticle6RenderEv
000000000032bffc T _ZN9CParticle13RemovePSystemE13tParticleType
000000000032c074 T _ZN9CParticle15AddJetExplosionERK7CVectorff
000000000032c460 T _ZN9CParticle18AddYardieDoorSmokeERK7CVectorRK7CMatrix
000000000032c628 T _ZN9CParticle10CalWindDirEP7CVectorS1_
000000000032c68c T _ZN18cParticleSystemMgrC1Ev
000000000032c68c T _ZN18cParticleSystemMgrC2Ev
000000000032c698 T _ZN18cParticleSystemMgr10InitialiseEv
000000000032c6d0 T _ZN18cParticleSystemMgr16LoadParticleDataEv
000000000032cb4c T _ZN18cParticleSystemMgr10RangeCheckEP19tParticleSystemData
000000000032cb5c T _ZN13CPedModelInfo8SetClumpEP7RpClump
000000000032cbf0 T _ZN13CPedModelInfo24CreateHitColModelSkinnedEP7RpClump
000000000032ce00 T _ZN13CPedModelInfo14DeleteRwObjectEv
000000000032ce3c T _Z15GetAtomicListCBP8RpAtomicPv
000000000032ce54 T _Z23AttachAtomicsFromListCBP8RpAtomicPv
000000000032cec8 T _Z14CountAtomicsCBP8RpAtomicPv
000000000032ced8 T _Z22FindPedFrameFromNameCBP7RwFramePv
000000000032cf8c T _ZN13CPedModelInfo14AddXtraAtomicsEP7RpClump
000000000032cf90 T _ZN13CPedModelInfo14SetFaceTextureEP9RwTexture
000000000032cf94 T _Z16FindHeadRadiusCBP8RwObjectPv
000000000032cfd0 T _ZN13CPedModelInfo25AnimatePedColModelSkinnedEP7RpClump
000000000032d12c T _ZN13CPedModelInfo30AnimatePedColModelSkinnedWorldEP7RpClump
000000000032d230 W _ZN13CPedModelInfoD0Ev
000000000032d278 T _ZN11CPlayerSkin10InitialiseEv
000000000032d2b0 T _ZN11CPlayerSkin8ShutdownEv
000000000032d2c8 T _ZN11CPlayerSkin14GetSkinTextureEPKc
000000000032d4f8 T _Z13FindPlayerDffRjS_
000000000032d6d0 T _Z13LoadPlayerDffv
000000000032d7d0 T _ZN11CPlayerSkin21BeginFrontendSkinEditEv
000000000032d824 T _ZN11CPlayerSkin19EndFrontendSkinEditEv
000000000032d854 T _ZN11CPlayerSkin22RenderFrontendSkinEditEv
000000000032d990 T _ZN12CPointLights4InitEv
000000000032d9f4 T _ZN12CPointLights8AddLightEh7CVectorS0_ffffhb
000000000032daf0 T _ZN12CPointLights29GenerateLightsAffectingObjectEP7CVector
000000000032dcc0 T _ZN12CPointLights27RemoveLightsAffectingObjectEv
000000000032dcd0 T _ZN12CPointLights15RenderFogEffectEv
000000000032e4b8 T _ZN12CPointLights29ProcessVerticalLineUsingCacheE7CVectorPf
000000000032e60c T _ZN8CRubbish4InitEv
000000000032e760 T _ZN8CRubbish8ShutdownEv
000000000032e7b0 T _ZN8CRubbish6UpdateEv
000000000032edf0 T _ZN9COneSheet14RemoveFromListEv
000000000032ee04 T _ZN9COneSheet9AddToListEPS_
000000000032ee1c T _ZN8CRubbish6RenderEv
000000000032f324 T _ZN8CRubbish8ListSizeEP9COneSheet
000000000032f340 T _ZN8CRubbish6StirUpEP8CVehicle
000000000032f660 T _ZN8CRubbish13SetVisibilityEb
000000000032f85c T _ZN8CShadows4InitEv
000000000032fb78 T _ZN8CShadows8ShutdownEv
000000000032fc80 T _ZN8CShadows18AddPermanentShadowEhP9RwTextureP7CVectorffffshhhfjf
000000000032fcf8 T _ZN8CShadows17StoreStaticShadowEjhP9RwTextureP7CVectorffffshhhfffbf
000000000032fff8 T _ZN13CStaticShadow4FreeEv
000000000033002c T _ZN8CShadows28GeneratePolysForStaticShadowEs
00000000003302e4 T _ZN8CShadows23StoreShadowToBeRenderedEhP7CVectorffffshhh
0000000000330474 T _ZN8CShadows23StoreShadowToBeRenderedEhP9RwTextureP7CVectorffffshhhfbfP15CCutsceneShadowb
0000000000330508 T _ZN8CShadows21StoreShadowForVehicleEP8CVehicle12VEH_SHD_TYPE
0000000000330ab8 T _ZN8CShadows19StoreCarLightShadowEP8CVehicleiP9RwTextureP7CVectorffffhhhf
0000000000330d54 T _ZN8CShadows17StoreShadowForPedEP4CPedffffff
0000000000330d90 T _ZN8CShadows23StoreShadowForPedObjectEP7CEntityffffff
000000000033120c T _ZN8CShadows19CalcPedShadowValuesE7CVectorPfS1_S1_S1_S1_S1_
00000000003312b4 T _ZN8CShadows31StoreShadowForCutscenePedObjectEP15CCutsceneObjectffffff
0000000000331670 T _ZN8CShadows18StoreShadowForTreeEP7CEntity
0000000000331674 T _ZN8CShadows18StoreShadowForPoleEP7CEntityfffffj
00000000003317e8 T _ZN8CShadows26SetRenderModeForShadowTypeEh
0000000000331864 T _ZN8CShadows19RenderStoredShadowsEv
0000000000331e80 T _ZN12RenderBuffer17ClearRenderBufferEv
0000000000331e9c T _ZN8CShadows28CastCutsceneShadowSectorListER8CPtrListffffP7CVectorffffshhhffPP10CPolyBunchP15CCutsceneShadow
000000000033204c T _ZN8CShadows26CastPlayerShadowSectorListER8CPtrListffffP7CVectorffffshhhffPP10CPolyBunch
00000000003321f8 T _ZN8CShadows20CastShadowSectorListER8CPtrListffffP7CVectorffffshhhffPP10CPolyBunch
00000000003323b4 T _ZN12RenderBuffer19RenderStuffInBufferEv
0000000000332478 T _ZN8CShadows19RenderStaticShadowsEv
0000000000332958 T _ZN12RenderBuffer12StartStoringEiiPPtPP18RxObjSpace3DVertex
0000000000332a10 T _ZN12RenderBuffer11StopStoringEv
0000000000332aec T _ZN8CShadows18CastShadowEntityXYEP7CEntityffffP7CVectorffffshhhffPP10CPolyBunch
0000000000333d1c W _ZN8CShadows19CastShadowEntityXYZEP7CEntityP7CVectorffffshhhffPP10CPolyBunchP15CCutsceneShadow
00000000003343d0 T _ZN8CShadows19UpdateStaticShadowsEv
0000000000334480 T _ZN8CShadows22UpdatePermanentShadowsEv
0000000000334608 T _ZN8CShadows14PrintDebugPolyEP7CVectorS1_S1_
000000000033460c T _ZN8CShadows24RenderExtraPlayerShadowsEv
0000000000334610 T _ZN8CShadows13TidyUpShadowsEv
00000000003346dc T _ZN8CShadows21RenderIndicatorShadowEjhP9RwTextureP7CVectorffffs
0000000000334768 T _ZN16CSimpleModelInfo9SetAtomicEiP8RpAtomic
00000000003347d0 T _ZN16CSimpleModelInfo4InitEv
00000000003347e4 T _ZN16CSimpleModelInfo14DeleteRwObjectEv
0000000000334878 T _ZN16CSimpleModelInfo14GetLodDistanceEi
0000000000334894 T _ZN16CSimpleModelInfo21GetAtomicFromDistanceEf
00000000003348f0 T _ZN16CSimpleModelInfo21GetLargestLodDistanceEv
000000000033492c T _ZN16CSimpleModelInfo13GetLastAtomicEv
0000000000334958 T _ZN16CSimpleModelInfo13GetLastAtomicEf
00000000003349a8 T _ZN16CSimpleModelInfo15SetLodDistancesEPf
00000000003349c4 T _ZN16CSimpleModelInfo14CreateInstanceEP11RwMatrixTag
0000000000334a1c T _ZN16CSimpleModelInfo14CreateInstanceEv
0000000000334a60 T _ZN16CSimpleModelInfo16SetupBigBuildingEii
0000000000334b7c T _ZN16CSimpleModelInfo16FindRelatedModelEii
0000000000334c18 T _ZN14CTimeModelInfo18FindOtherTimeModelEv
0000000000334d24 W _ZN16CSimpleModelInfoD0Ev
0000000000334d28 T _ZN10CSkidmarks4InitEv
0000000000334dd8 T _ZN10CSkidmarks8ShutdownEv
0000000000334e04 T _ZN10CSkidmarks5ClearEv
0000000000334e28 T _ZN10CSkidmarks6UpdateEv
0000000000334ee0 T _ZN10CSkidmarks6RenderEv
00000000003352ec T _ZN10CSkidmarks11RegisterOneEjRK7CVectorffPbS3_
0000000000335304 T _ZN10CSkidmarks11RegisterOneEjRK7CVectorff13eSkidmarkTypePb
0000000000335c40 T _ZN10CSpecialFX4InitEv
0000000000335df4 T _ZN13CBulletTraces4InitEv
0000000000335e40 T _ZN18CMotionBlurStreaks4InitEv
0000000000335e5c T _ZN13CBrightLights4InitEv
0000000000335e6c T _ZN11CShinyTexts4InitEv
0000000000335e7c T _ZN14CMoneyMessages4InitEv
0000000000335ec8 T _ZN10C3dMarkers4InitEv
0000000000335f78 T _ZN10CSpecialFX8ShutdownEv
0000000000335fac T _ZN10C3dMarkers8ShutdownEv
0000000000336068 T _ZN10CSpecialFX15AddWeaponStreakEi
00000000003363ec T _ZN18CMotionBlurStreaks14RegisterStreakEjhhh7CVectorS0_
00000000003364e4 T _ZN10CSpecialFX6UpdateEv
0000000000336544 T _ZN18CMotionBlurStreaks6UpdateEv
0000000000336688 T _ZN13CBulletTraces6UpdateEv
00000000003366d8 T _ZN10CSpecialFX6RenderEv
0000000000336720 T _ZN18CMotionBlurStreaks6RenderEv
0000000000336864 T _ZN13CBulletTraces6RenderEv
0000000000336e84 T _ZN11CShinyTexts6RenderEv
00000000003372a0 T _ZN14CMoneyMessages6RenderEv
00000000003373cc T _ZN10C3dMarkers6RenderEv
0000000000337530 T _ZN10CSpecialFX11Render2DFXsEv
0000000000337cd8 T _ZN13CBulletTraces8AddTraceEP7CVectorS1_iP7CEntity
0000000000337e3c T _ZN13CBulletTraces8AddTraceEP7CVectorS1_fjh
000000000033818c T _ZN12CBulletTrace6UpdateEv
00000000003381b0 T _ZN27CRegisteredMotionBlurStreak6UpdateEv
00000000003381fc T _ZN27CRegisteredMotionBlurStreak6RenderEv
0000000000338368 T _ZN13CBrightLights6RenderEv
0000000000339174 T _ZN13CBrightLights23RenderOutGeometryBufferEv
00000000003391e4 T _ZN13CBrightLights11RegisterOneE7CVectorS0_S0_S0_hhhh
00000000003392a0 T _ZN11CShinyTexts23RenderOutGeometryBufferEv
0000000000339310 T _ZN11CShinyTexts11RegisterOneE7CVectorS0_S0_S0_ffffffffhhhhf
0000000000339488 T _ZN13CMoneyMessage6RenderEv
000000000033961c T _ZN14CMoneyMessages11RegisterOneE7CVectorPchhhff
00000000003397f4 T _Z14MarkerAtomicCBP8RpAtomicPv
00000000003397fc T _ZN9C3dMarker9AddMarkerEjtfhhhhtfs
0000000000339958 T _ZN9C3dMarker18DeleteMarkerObjectEv
0000000000339998 T _ZN9C3dMarker6RenderEv
0000000000339b04 T _ZN10C3dMarkers6UpdateEv
0000000000339b08 T _ZN10C3dMarkers11PlaceMarkerEjtR7CVectorfhhhhtfs
000000000033a258 T _ZN10C3dMarkers14PlaceMarkerSetEjtR7CVectorfhhhhtfs
000000000033a35c T _ZN21CSpecialParticleStuff22CreateFoamAroundObjectEP7CMatrixfffi
000000000033a594 T _ZN21CSpecialParticleStuff22StartBoatFoamAnimationEv
000000000033a5b0 T _ZN21CSpecialParticleStuff23UpdateBoatFoamAnimationEP7CMatrix
000000000033a800 T _ZN7CSprite10InitialiseEv
000000000033a804 T _ZN7CSprite12Draw3DSpriteEfffffffff
000000000033a808 T _ZN7CSprite15CalcScreenCoorsERK5RwV3dPS0_PfS4_b
000000000033a924 T _ZN7CSprite16CalcHorizonCoorsEv
000000000033a9b8 T _ZN7CSprite17FlushSpriteBufferEv
000000000033aa5c T _ZN7CSprite16InitSpriteBufferEv
000000000033aa8c T _ZN7CSprite18InitSpriteBuffer2DEv
000000000033aae0 T _ZN7CSprite26RenderBufferedOneXLUSpriteEfffffhhhsfh
000000000033ae10 T _ZN7CSprite18RenderOneXLUSpriteEfffffhhhsfh
000000000033b0e8 T _ZN7CSprite40RenderBufferedOneXLUSprite_Rotate_AspectEfffffhhhsffh
000000000033b3e8 T _ZN7CSprite32RenderOneXLUSprite_Rotate_AspectEfffffhhhsffh
000000000033b6e0 T _ZN7CSprite43RenderBufferedOneXLUSprite_Rotate_DimensionEfffffhhhsffh
000000000033b9ac T _ZN7CSprite35RenderOneXLUSprite_Rotate_DimensionEfffffhhhsffh
000000000033bc14 T _ZN7CSprite42RenderBufferedOneXLUSprite_Rotate_2ColoursEfffffhhhhhhffffh
000000000033c040 T _ZN7CSprite34RenderOneXLUSprite_Rotate_2ColoursEfffffhhhhhhffffh
000000000033c464 T _ZN7CSprite28RenderBufferedOneXLUSprite2DEffffRK6RwRGBAsh
000000000033c614 T _ZN7CSprite14Set4Vertices2DEP14RwOpenGLVertexRK5CRectRK5CRGBAS7_S7_S7_
000000000033c720 T _ZN7CSprite20RenderOneXLUSprite2DEffffRK6RwRGBAsh
000000000033c838 T _ZN7CSprite45RenderBufferedOneXLUSprite2D_Rotate_DimensionEffffRK6RwRGBAsfh
000000000033ca58 T _ZN7CSprite14Set4Vertices2DEP14RwOpenGLVertexffffffffRK5CRGBAS4_S4_S4_
000000000033cb54 T _ZN7CSprite37RenderOneXLUSprite2D_Rotate_DimensionEffffRK6RwRGBAsfh
000000000033ccdc T _ZN9CSprite2dC1Ev
000000000033ccdc T _ZN9CSprite2dC2Ev
000000000033cce4 T _ZN9CSprite2dD1Ev
000000000033cce4 T _ZN9CSprite2dD2Ev
000000000033cd14 T _ZN9CSprite2d6DeleteEv
000000000033cd40 T _ZN9CSprite2d16SetRecipNearClipEv
000000000033cd44 T _ZN9CSprite2d10SetTextureEPc
000000000033ce58 T _ZN9CSprite2d10SetTextureEPcS0_
000000000033cf04 T _ZN9CSprite2d15SetAddressingUVE20RwTextureAddressModeS0_
000000000033cf28 T _ZN9CSprite2d13SetAddressingE20RwTextureAddressMode
000000000033cf50 T _ZN9CSprite2d12InitPerFrameEv
000000000033cfac T _ZN9CSprite2d11AddToBufferERK5CRectRK5CRGBAffffffff
000000000033d0a0 T _ZN9CSprite2d11SetVerticesEP14RwOpenGLVertexRK5CRectRK5CRGBAS7_S7_S7_ffffffff
000000000033d240 T _ZN9CSprite2d18IsVertexBufferFullEv
000000000033d26c T _ZN9CSprite2d18RenderVertexBufferEv
000000000033d2d0 T _ZN9CSprite2d19IsVertexBufferEmptyEv
000000000033d2e8 T _ZN9CSprite2d4DrawEffffRK5CRGBA
000000000033d448 T _ZN9CSprite2d11SetVerticesERK5CRectRK5CRGBAS5_S5_S5_
000000000033d59c T _ZN9CSprite2d14SetRenderStateEv
000000000033d670 T _ZN9CSprite2d4DrawERK5CRectRK5CRGBA
000000000033d6b8 T _ZN9CSprite2d22DrawWithBilinearOffsetERK5CRectRK5CRGBA
000000000033d79c T _ZN9CSprite2d34OffsetTexCoordForBilinearFilteringEff
000000000033d82c T _ZN9CSprite2d4DrawERK5CRectRK5CRGBAffffffff
000000000033d9bc T _ZN9CSprite2d11SetVerticesERK5CRectRK5CRGBAS5_S5_S5_ffffffff
000000000033db48 T _ZN9CSprite2d4DrawERK5CRectRK5CRGBAS5_S5_S5_
000000000033db94 T _ZN9CSprite2d4DrawEffffffffRK5CRGBA
000000000033dd08 T _ZN9CSprite2d11SetVerticesEffffffffRK5CRGBAS2_S2_S2_
000000000033de70 T _ZN9CSprite2d4DrawEffffffffRK5CRGBAS2_S2_S2_
000000000033dff8 T _ZN9CSprite2d15DrawAntiAliasedEffffffffRK5CRGBAS2_S2_S2_
000000000033e670 T _ZN9CSprite2d13Draw2DPolygonEffffffffRK5CRGBA
000000000033e848 T _ZN9CSprite2d11SetVerticesEiPfS0_RK5CRGBA
000000000033e928 T _ZN9CSprite2d11SetVerticesEiPfP5CRGBA
000000000033e9c0 T _ZN9CSprite2d15SetMaskVerticesEiPf
000000000033eae0 T _ZN9CSprite2d8DrawRectERK5CRectRK5CRGBA
000000000033eb90 T _ZN9CSprite2d10DrawTxRectERK5CRectRK5CRGBA
000000000033ebc0 T _ZN9CSprite2d8DrawRectERK5CRectRK5CRGBAS5_S5_S5_
000000000033ec2c T _ZN9CSprite2d11DrawRectXLUERK5CRectRK5CRGBAS5_S5_S5_
000000000033ecb0 T _ZN9CSprite2d11DrawAnyRectEffffffffRK5CRGBAS2_S2_S2_
000000000033eec4 T _ZN9CSprite2d20DrawCircleAtNearClipERK9CVector2DfRK5CRGBAi
000000000033f128 T _ZN9CSprite2d24DrawSpecialRectForSniperERK5CRectRK5CRGBAS5_S5_S5_
000000000033f2b4 T _ZN9CSprite2d20SetVerticesForSniperERK5CRectRK5CRGBAS5_S5_S5_
000000000033f3d8 T _ZN14CStreamingInfo9AddToListEPS_
000000000033f3f0 T _ZN14CStreamingInfo14RemoveFromListEv
000000000033f408 T _ZN14CStreamingInfo9GetCdPosnEv
000000000033f410 T _ZN14CStreamingInfo9GetCdSizeEv
000000000033f418 T _ZN14CStreamingInfo16GetCdPosnAndSizeERjS0_
000000000033f43c T _ZN14CStreamingInfo16SetCdPosnAndSizeEjj
000000000033f444 T _Z13GetObjectNamei
000000000033f5bc T _ZN10CStreaming4InitEv
000000000033f978 T _ZN10CStreaming15LoadCdDirectoryEv
000000000033fa70 T _ZN10CStreaming8ShutdownEv
000000000033facc T _ZN10CStreaming6ReInitEv
000000000033fbd8 T _ZN10CStreaming16FlushRequestListEv
000000000033fc38 T _ZN10CStreaming18DeleteAllRwObjectsEv
000000000033fdf4 T _ZN10CStreaming21RemoveAllUnusedModelsEv
000000000033ff3c T _ZN10CStreaming28SetMissionDoesntRequireModelEi
000000000033ffc4 T _ZN10CStreaming15LoadCdDirectoryEPKci
0000000000340348 T _ZN10CStreaming22DeleteFarAwayRwObjectsERK7CVector
0000000000340cd8 T _ZN10CStreaming27DeleteRwObjectsInSectorListER8CPtrList
0000000000340d2c T _ZN10CStreaming34DeleteRwObjectsInOverlapSectorListER8CPtrListii
0000000000340e64 T _ZN10CStreaming25DeleteRwObjectsAfterDeathERK7CVector
0000000000341090 T _ZN10CStreaming16UpdateMemoryUsedEv
0000000000341094 T _ZN10CStreaming6UpdateEv
0000000000341378 T _ZN10CStreaming13RetryLoadFileEi
00000000003414cc T _ZN10CStreaming26LoadBigBuildingsWhenNeededEv
00000000003415d0 T _ZN10CStreaming22AddModelsToRequestListERK7CVectorj
0000000000341b04 T _ZN10CStreaming21StreamVehiclesAndPedsEv
0000000000342898 T _ZN10CStreaming16StreamZoneModelsERK7CVector
0000000000342f10 T _ZN10CStreaming19LoadRequestedModelsEv
0000000000342fd0 T _ZN10CStreaming11RemoveModelEi
0000000000343220 T _ZN10CStreaming19UpdateForAnimViewerEv
0000000000343378 T _ZN10CStreaming21ProcessLoadingChannelEi
0000000000343634 T _ZN10CStreaming14GetDiscInDriveEv
000000000034363c T _ZN10CStreaming27ProcessEntitiesInSectorListER8CPtrListj
0000000000343720 T _ZN10CStreaming27ProcessEntitiesInSectorListER8CPtrListffffffj
00000000003438b0 T _ZN10CStreaming12RequestModelEii
0000000000343a94 T _ZN10CStreaming20InstanceLoadedModelsERK7CVector
0000000000343cc8 T _ZN10CStreaming32InstanceLoadedModelsInSectorListER8CPtrList
0000000000343d30 T _ZN10CStreaming17IsObjectInCdImageEi
0000000000343d50 T _ZN10CStreaming19RequestBigBuildingsEi
0000000000343e24 T _ZN10CStreaming14RequestIslandsEi
0000000000343e64 T _ZN10CStreaming19RequestBigBuildingsEiRK7CVector
0000000000343f5c T _ZN10CStreaming20InstanceBigBuildingsEiRK7CVector
0000000000344014 T _Z16LoadIslandScreeni
0000000000344044 T _ZN10CStreaming24RemoveUnusedBigBuildingsEi
00000000003441a4 T _ZN10CStreaming21RemoveUnusedBuildingsEi
00000000003441e0 T _ZN10CStreaming30RemoveUnusedModelsInLoadedListEv
00000000003441e4 T _ZN10CStreaming22LoadAllRequestedModelsEb
00000000003444a0 T _ZN10CStreaming15RemoveBuildingsEi
0000000000344708 T _ZN10CStreaming24RemoveBuildingsNotInAreaEi
0000000000344970 T _ZN10CStreaming18RemoveBigBuildingsEi
0000000000344a2c T _ZN10CStreaming20RemoveIslandsNotUsedEi
0000000000344b3c T _Z12DeleteIslandP7CEntity
0000000000344b78 T _ZN10CStreaming16RequestAllModelsEv
0000000000344c9c T _ZN10CStreaming19RemoveLoadedVehicleEv
0000000000344da8 T _ZN10CStreaming20RemoveLeastUsedModelEj
0000000000344ed4 T _ZN10CStreaming29AreAnimsUsedByRequestedModelsEi
0000000000345140 T _ZN10CStreaming27DeleteRwObjectsBehindCameraEi
0000000000345df4 T _ZN10CStreaming39DeleteRwObjectsBehindCameraInSectorListER8CPtrListi
0000000000345ed0 T _ZN10CStreaming21RemoveLoadedZoneModelEv
0000000000345fa0 T _ZN10CStreaming39DeleteRwObjectsNotInFrustumInSectorListER8CPtrListi
0000000000346080 T _ZN10CStreaming34RemoveModelsNotVisibleFromCullzoneEv
0000000000346084 T _ZN10CStreaming46RemoveModelsNotVisibleFromCullzoneInSectorListER8CPtrList
0000000000346088 T _ZN10CStreaming22FinishLoadingLargeFileEPci
00000000003462ec T _ZN10CStreaming23AddToLoadedVehiclesListEi
0000000000346468 T _ZN10CStreaming21ConvertBufferToObjectEPci
0000000000346818 T _ZN10CStreaming12MakeSpaceForEi
0000000000346884 T _ZN10CStreaming25ImGonnaUseStreamingMemoryEv
0000000000346888 T _ZN10CStreaming24IHaveUsedStreamingMemoryEv
000000000034688c T _ZN10CStreaming23GetAvailableVehicleSlotEv
00000000003468b8 T _ZN10CStreaming15GetNextFileOnCdEib
0000000000346ad8 T _ZN10CStreaming16GetCdImageOffsetEi
0000000000346c1c T _ZN10CStreaming18RequestModelStreamEi
0000000000346ffc T _ZN10CStreaming13FlushChannelsEv
0000000000347098 T _ZN10CStreaming9LoadSceneERK7CVector
0000000000347420 T _ZN10CStreaming15LoadZoneVehicleERK7CVector
000000000034747c T _ZN10CStreaming18LoadSceneCollisionERK7CVector
00000000003474d4 T _ZN10CStreaming19SetModelIsDeletableEi
000000000034755c T _ZN10CStreaming22SetModelTxdIsDeletableEi
0000000000347560 T _ZN10CStreaming19RequestSpecialModelEiPKci
0000000000347a70 T _ZN10CStreaming15LoadInitialPedsEv
0000000000347aa0 T _ZN10CStreaming18LoadInitialWeaponsEv
0000000000347ac4 T _ZN10CStreaming24RemoveCurrentZonesModelsEv
0000000000347d78 T _ZN10CStreaming18RequestSpecialCharEiPKci
0000000000347d80 T _ZN10CStreaming20HasSpecialCharLoadedEi
0000000000347da4 T _ZN10CStreaming25SetSpecialCharIsDeletableEi
0000000000347e34 T _ZN10CStreaming34SetMissionDoesntRequireSpecialCharEi
0000000000347ec4 T _ZN10CStreaming19LoadInitialVehiclesEv
0000000000347ee8 T _ZN10CStreaming19CheckLoadedVehiclesEv
0000000000347eec T _ZN10CStreaming14MemoryCardSaveEPhPj
0000000000347f38 T _ZN10CStreaming14MemoryCardLoadEPhj
0000000000347f84 T _ZN10CStreaming25PrintStreamingBufferStateEv
0000000000347f88 T _ZN10CStreaming16PrintRequestListEv
0000000000348244 T _ZN8CTexList10InitialiseEv
0000000000348248 T _ZN8CTexList8ShutdownEv
000000000034824c T _ZN8CTexList19LoadFileNameTextureEPc
0000000000348254 T _ZN8CTexList19GetFirstFreeTextureEv
000000000034827c T _ZN8CTexList10SetTextureEiPc
0000000000348284 T _ZN8CTexList21LoadGlobalTextureListEv
0000000000348290 T _ZN17CVehicleModelInfoC1Ev
0000000000348290 T _ZN17CVehicleModelInfoC2Ev
00000000003482e8 T _ZN17CVehicleModelInfo11SetAnimFileEPKc
00000000003483a0 T _ZN17CVehicleModelInfo20ConvertAnimFileIndexEv
00000000003483e8 T _ZN17CVehicleModelInfo8SetClumpEP7RpClump
000000000034856c T _ZN17CVehicleModelInfo24SetAtomicRenderCallbacksEv
0000000000348608 T _ZN17CVehicleModelInfo19PreprocessHierarchyEv
000000000034899c T _ZN17CVehicleModelInfo24FindEditableMaterialListEv
0000000000348a8c T _ZN17CVehicleModelInfo17SetEnvironmentMapEv
0000000000348bd8 T _ZN17CVehicleModelInfo14CreateInstanceEv
0000000000348d18 T _ZN17CVehicleModelInfo15ChooseComponentEv
0000000000348e90 T _ZN17CVehicleModelInfo21ChooseSecondComponentEv
0000000000349040 T _ZN17CVehicleModelInfo14DeleteRwObjectEv
00000000003490a4 T _ZN17CVehicleModelInfo14AddXtraAtomicsEP7RpClump
00000000003490a8 T _ZN17CVehicleModelInfo16CollapseFramesCBEP7RwFramePv
00000000003490f8 T _ZN17CVehicleModelInfo13MoveObjectsCBEP8RwObjectPv
000000000034911c T _ZN17CVehicleModelInfo19HideDamagedAtomicCBEP8RpAtomicPv
0000000000349188 T _ZN17CVehicleModelInfo25HideAllComponentsAtomicCBEP8RpAtomicPv
00000000003491c0 T _ZN17CVehicleModelInfo18HasAlphaMaterialCBEP10RpMaterialPv
0000000000349228 T _ZN17CVehicleModelInfo19SetAtomicRendererCBEP8RpAtomicPv
00000000003493f8 T _ZN17CVehicleModelInfo28SetAtomicRendererCB_RealHeliEP8RpAtomicPv
0000000000349600 T _ZN17CVehicleModelInfo30SetAtomicRendererCB_BigVehicleEP8RpAtomicPv
00000000003497a4 T _ZN17CVehicleModelInfo24SetAtomicRendererCB_BoatEP8RpAtomicPv
0000000000349958 T _ZN17CVehicleModelInfo24SetAtomicRendererCB_HeliEP8RpAtomicPv
00000000003499dc T _ZN17CVehicleModelInfo25SetAtomicRendererCB_TrainEP8RpAtomicPv
0000000000349b08 T _ZN17CVehicleModelInfo15SetAtomicFlagCBEP8RwObjectPv
0000000000349b2c T _ZN17CVehicleModelInfo17ClearAtomicFlagCBEP8RwObjectPv
0000000000349b50 T _Z23GetOkAndDamagedAtomicCBP8RwObjectPv
0000000000349b90 T _ZN17CVehicleModelInfo24SetVehicleComponentFlagsEP7RwFramej
0000000000349ca4 T _ZN17CVehicleModelInfo12GetWheelPosnEiR7CVector
0000000000349cec T _Z15IsValidCompRulei
0000000000349d24 T _Z33GetListOfComponentsNotUsedByRulesjiPi
0000000000349ec4 T _Z16CountCompsInRulei
0000000000349ef0 T _Z15ChooseComponentii
000000000034a0a4 T _ZN17CVehicleModelInfo25GetEditableMaterialListCBEP10RpMaterialPv
000000000034a128 T _ZN17CVehicleModelInfo25GetEditableMaterialListCBEP8RpAtomicPv
000000000034a15c T _ZN17CVehicleModelInfo16SetVehicleColourEhh
000000000034a1f8 T _ZN17CVehicleModelInfo19ChooseVehicleColourERhS0_
000000000034a320 T _ZN17CVehicleModelInfo22AvoidSameVehicleColourEPhS0_
000000000034a430 T _Z22CreateCarColourTexturehhh
000000000034a574 T _ZN17CVehicleModelInfo18LoadVehicleColoursEv
000000000034a8c4 T _ZN17CVehicleModelInfo27DeleteVehicleColourTexturesEv
000000000034a90c T _ZN17CVehicleModelInfo19LoadEnvironmentMapsEv
000000000034a964 T _ZN17CVehicleModelInfo23ShutdownEnvironmentMapsEv
000000000034a9b8 T _ZN17CVehicleModelInfo24GetMatFXEffectMaterialCBEP10RpMaterialPv
000000000034a9f4 T _ZN17CVehicleModelInfo26SetDefaultEnvironmentMapCBEP10RpMaterialPv
000000000034aa88 T _ZN17CVehicleModelInfo19SetEnvironmentMapCBEP10RpMaterialPv
000000000034ab7c T _ZN17CVehicleModelInfo19SetEnvironmentMapCBEP8RpAtomicPv
000000000034ac24 T _ZN17CVehicleModelInfo45GetMaximumNumberOfPassengersFromNumberOfDoorsEi
000000000034acc4 W _ZN17CVehicleModelInfoD0Ev
000000000034acc8 W _ZN17CVehicleModelInfo16GetAnimFileIndexEv
000000000034acd0 T _ZN12CWaterCannon4InitEv
000000000034ad40 T _ZN12CWaterCannon19Update_OncePerFrameEs
000000000034af28 T _ZN12CWaterCannon8PushPedsEv
000000000034b314 T _ZN12CWaterCannon15Update_NewInputEP7CVectorS1_
000000000034b364 T _ZN12CWaterCannon6RenderEv
000000000034b6ac T _ZN13CWaterCannons4InitEv
000000000034b750 T _ZN13CWaterCannons9UpdateOneEjP7CVectorS1_
000000000034b8c0 T _ZN13CWaterCannons6UpdateEv
000000000034b928 T _ZN13CWaterCannons6RenderEv
000000000034b984 T _ZN11CAutomobile16FireTruckControlEv
000000000034be38 T _ZN16CWeaponModelInfo4InitEv
000000000034be5c T _ZN16CWeaponModelInfo9SetAtomicEiP8RpAtomic
000000000034be88 T _ZN16CWeaponModelInfo13SetWeaponInfoEi
000000000034be94 T _ZN16CWeaponModelInfo13GetWeaponInfoEv
000000000034be9c T _ZN16CWeaponModelInfo11SetAnimFileEPKc
000000000034bf4c T _ZN16CWeaponModelInfo20ConvertAnimFileIndexEv
000000000034bf94 W _ZN16CWeaponModelInfoD0Ev
000000000034bf98 W _ZN16CWeaponModelInfo16GetAnimFileIndexEv
000000000034bfa0 T _ZN8CWeather4InitEv
000000000034c048 T _ZN8CWeather6UpdateEv
000000000034c7b4 T _ZN8CWeather7AddRainEv
000000000034cf58 T _ZN8CWeather11AddHeatHazeEv
000000000034d09c T _ZN8CWeather10AddBeastieEv
000000000034d25c T _ZN8CWeather12ForceWeatherEs
000000000034d26c T _ZN8CWeather15ForceWeatherNowEs
000000000034d294 T _ZN8CWeather14ReleaseWeatherEv
000000000034d2a8 T _ZN8CWeather18AddStreamAfterRainEv
000000000034d2ac T _ZN8CWeather26AddSplashesDuringHurricaneEv
000000000034d538 T _Z19RenderOneRainStreak7CVectorS_ibf
000000000034d8e8 T _ZN8CWeather17RenderRainStreaksEv
000000000034db70 T _ZN14CWindModifiers11RegisterOneE7CVectori
000000000034dbe4 T _ZN14CWindModifiers16FindWindModifierE7CVectorPfS1_
000000000034dd88 T _ZN19CXtraCompsModelInfo8SetClumpEP7RpClump
000000000034dd8c T _ZN19CXtraCompsModelInfo8ShutdownEv
000000000034dd90 W _ZN19CXtraCompsModelInfoD0Ev
000000000034dd94 W _ZN19CXtraCompsModelInfo14CreateInstanceEv
000000000034dd9c T _ZN10CCullZones4InitEv
000000000034dddc T _ZN10CCullZones6UpdateEv
000000000034e114 T _ZN10CCullZones22FindAttributesForCoorsE7CVectorPi
000000000034e1ec T _ZN10CCullZones21MarkSubwayAsInvisibleEb
000000000034e340 T _ZN10CCullZones21UpdateAtBeachForAudioEv
000000000034e474 T _ZN10CCullZones18ForceCullZoneCoorsE7CVector
000000000034e478 T _ZN10CCullZones36FindZoneWithStairsAttributeForPlayerEv
000000000034e528 T _ZN10CCullZones11AddCullZoneERK7CVectorffffffts
000000000034e5b8 T _ZN10CCullZones19CamCloseInForPlayerEv
000000000034e5cc T _ZN10CCullZones18CamStairsForPlayerEv
000000000034e5e0 T _ZN10CCullZones21Cam1stPersonForPlayerEv
000000000034e5f4 T _ZN10CCullZones8NoPoliceEv
000000000034e608 T _ZN10CCullZones17PoliceAbandonCarsEv
000000000034e61c T _ZN10CCullZones14InRoomForAudioEv
000000000034e630 T _ZN10CCullZones10WaterFudgeEv
000000000034e644 T _ZN10CCullZones22DoINeedToLoadCollisionEv
000000000034e658 T _ZN10CCullZones9CamNoRainEv
000000000034e66c T _ZN10CCullZones12PlayerNoRainEv
000000000034e680 T _ZN10CCullZones18GetWantedLevelDropEv
000000000034e690 T _Z26IsPointWithinArbitraryAreaffffffffff
000000000034e734 T _Z24RpClumpStreamReadAtomicsP8RwStreamPFP8RpAtomicS2_E
000000000034e73c T _Z20RpClumpGtaStreamReadP8RwStream
000000000034eb00 T _Z21RpClumpGtaStreamRead1P8RwStream
000000000034ed14 T _Z21RpClumpGtaStreamRead2P8RwStream
000000000034f008 T _Z22RpClumpGtaCancelStreamv
000000000034f0a8 T _Z15CreateDebugFontv
000000000034f0ac T _Z16DestroyDebugFontv
000000000034f0b0 T _Z16ObrsPrintfStringPKcss
000000000034f0b4 T _Z16FlushObrsPrintfsv
000000000034f0b8 T _Z12DefinedStatev
000000000034f19c T _Z22GetFirstAtomicCallbackP8RpAtomicPv
000000000034f1ac T _Z14GetFirstAtomicP7RpClump
000000000034f204 T _Z22GetFirstObjectCallbackP8RwObjectPv
000000000034f214 T _Z14GetFirstObjectP7RwFrame
000000000034f26c T _Z21GetFirstFrameCallbackP7RwFramePv
000000000034f27c T _Z13GetFirstChildP7RwFrame
000000000034f2d4 T _Z23GetFirstTextureCallbackP9RwTexturePv
000000000034f2e4 T _Z15GetFirstTextureP15RwTexDictionary
000000000034f33c T _Z24RpClumpGetBoundingSphereP7RpClumpP8RwSphereb
000000000034f658 T _Z14IsClumpSkinnedP7RpClump
000000000034f6cc T _Z24HAnimAnimationCreateFromP15RtAnimAnimationi
000000000034f75c T _Z32HAnimAnimationCreateForHierarchyP16RpHAnimHierarchy
000000000034f828 T _Z29GetAnimHierarchyFromSkinClumpP7RpClump
000000000034f8ac T _Z25SetHierarchyForSkinAtomicP8RpAtomicPv
000000000034f8c4 T _Z25GetAnimHierarchyFromClumpP7RpClump
000000000034f96c T _Z20SkinGetBonePositionsP7RpClump
000000000034fb20 T _Z20SkinSetBonePositionsP7RpClump
000000000034fc08 T _Z27SkinGetBonePositionsToTableP7RpClumpP5RwV3d
000000000034fd9c T _Z28SetLightsWithTimeOfDayColourP7RpWorld
00000000003500f0 T _Z12LightsEnablei
00000000003500f4 T _Z12LightsCreateP7RpWorld
0000000000350380 T _Z13LightsDestroyP7RpWorld
00000000003504a0 T _Z36WorldReplaceNormalLightsWithScorchedP7RpWorldf
000000000035050c T _Z36WorldReplaceScorchedLightsWithNormalP7RpWorld
0000000000350548 T _Z26AddAnExtraDirectionalLightP7RpWorldffffff
00000000003506a4 T _Z28RemoveExtraDirectionalLightsP7RpWorld
00000000003506e4 T _Z31SetAmbientAndDirectionalColoursf
000000000035076c T _Z16SetFlashyColoursf
0000000000350844 T _Z21SetFlashyColours_Mildf
0000000000350928 T _Z22SetBrightMarkerColoursf
00000000003509c4 T _Z33ReSetAmbientAndDirectionalColoursv
0000000000350a00 T _Z21DeActivateDirectionalv
0000000000350a14 T _Z19ActivateDirectionalv
0000000000350a2c T _Z36SetAmbientColoursToIndicateRoadGroupi
0000000000350ab4 T _Z14SetFullAmbientv
0000000000350acc T _Z17SetAmbientColoursv
0000000000350ae4 T _Z38SetAmbientColoursForPedsCarsAndObjectsv
0000000000350afc T _Z17SetAmbientColoursP10RwRGBAReal
0000000000350b14 T _Z13InitMemoryMgrv
0000000000350b18 T _Z15MemoryMgrMallocm
0000000000350b54 T _Z13MemoryMgrFreePv
0000000000350b58 T _Z16MemoryMgrReallocPvm
0000000000350b94 T _Z15MemoryMgrCallocmm
0000000000350bd4 T _Z13RwMallocAlignmm
0000000000350c0c T _Z11RwFreeAlignPv
0000000000350c14 T _Z20NodeNamePluginAttachv
0000000000350d94 T _Z16SetFrameNodeNameP7RwFramePKc
0000000000350dc4 T _Z16GetFrameNodeNameP7RwFrame
0000000000350ddc T _Z10CameraSizeP8RwCameraP6RwRectff
0000000000350f30 T _Z13CameraDestroyP8RwCamera
0000000000350fc0 T _Z12CameraCreateiii
0000000000351078 T _Z14destroyTextureP9RwTexturePv
0000000000351090 T _Z22RwTextureGtaStreamReadP8RwStream
0000000000351128 T _Z28RwTexDictionaryGtaStreamReadP8RwStream
0000000000351250 T _Z29RwTexDictionaryGtaStreamRead1P8RwStream
00000000003513b4 T _Z29RwTexDictionaryGtaStreamRead2P8RwStreamP15RwTexDictionary
00000000003514c4 T _Z21ReadVideoCardCapsFileRjS_S_S_
0000000000351580 T _Z17CanVideoCardDoDXTv
0000000000351588 T _Z18CheckVideoCardCapsv
000000000035164c T _Z22WriteVideoCardCapsFilev
000000000035172c T _Z24ConvertingTexturesScreenjjPKc
0000000000351a70 T _ZN9CTxdStore10InitialiseEv
0000000000351b10 T _ZN9CTxdStore8ShutdownEv
0000000000351b6c T _ZN9CTxdStore12GameShutdownEv
0000000000351c70 T _ZN9CTxdStore10GetNumRefsEi
0000000000351ca8 T _ZN9CTxdStore13RemoveTxdSlotEi
0000000000351d54 T _ZN9CTxdStore10AddTxdSlotEPKc
0000000000351e10 T _ZN9CTxdStore10GetTxdNameEi
0000000000351e48 T _ZN9CTxdStore11FindTxdSlotEPKc
0000000000351ef8 T _ZN9CTxdStore7LoadTxdEiPKc
0000000000351fb4 T _ZN9CTxdStore7LoadTxdEiP8RwStream
0000000000352028 T _ZN9CTxdStore12StartLoadTxdEiP8RwStream
000000000035209c T _ZN9CTxdStore13FinishLoadTxdEiP8RwStream
00000000003520fc T _ZN9CTxdStore6CreateEi
0000000000352148 T _ZN9CTxdStore9RemoveTxdEi
00000000003521a4 T _ZN9CTxdStore13SetCurrentTxdEi
00000000003521dc T _ZN9CTxdStore14PushCurrentTxdEv
00000000003521fc T _ZN9CTxdStore13PopCurrentTxdEv
0000000000352228 T _ZN9CTxdStore6AddRefEi
0000000000352264 T _ZN9CTxdStore9RemoveRefEi
00000000003522a0 T _ZN9CTxdStore22RemoveRefWithoutDeleteEi
00000000003522dc T _ZN18CVisibilityPlugins17AtomicConstructorEPvii
00000000003522f0 T _ZN18CVisibilityPlugins21AtomicCopyConstructorEPvPKvii
0000000000352308 T _ZN18CVisibilityPlugins16AtomicDestructorEPvii
000000000035230c T _ZN18CVisibilityPlugins16FrameConstructorEPvii
0000000000352320 T _ZN18CVisibilityPlugins20FrameCopyConstructorEPvPKvii
0000000000352338 T _ZN18CVisibilityPlugins15FrameDestructorEPvii
000000000035233c T _ZN18CVisibilityPlugins16ClumpConstructorEPvii
0000000000352364 T _ZN18CVisibilityPlugins19DefaultVisibilityCBEP7RpClump
000000000035236c T _ZN18CVisibilityPlugins20ClumpCopyConstructorEPvPKvii
0000000000352384 T _ZN18CVisibilityPlugins15ClumpDestructorEPvii
0000000000352388 T _ZN18CVisibilityPlugins12PluginAttachEv
0000000000352450 T _ZN18CVisibilityPlugins10InitialiseEv
0000000000352600 T _ZN18CVisibilityPlugins8ShutdownEv
0000000000352678 T _ZN18CVisibilityPlugins18SetAtomicModelInfoEP8RpAtomicP16CSimpleModelInfo
000000000035268c T _ZN18CVisibilityPlugins18GetAtomicModelInfoEP8RpAtomic
00000000003526a0 T _ZN18CVisibilityPlugins11SetAtomicIdEP8RpAtomici
00000000003526b4 T _ZN18CVisibilityPlugins13SetAtomicFlagEP8RpAtomici
00000000003526d0 T _ZN18CVisibilityPlugins15ClearAtomicFlagEP8RpAtomici
00000000003526ec T _ZN18CVisibilityPlugins11GetAtomicIdEP8RpAtomic
0000000000352700 T _ZN18CVisibilityPlugins21SetupVehicleVariablesEP7RpClump
0000000000352798 T _ZN18CVisibilityPlugins28GetDistanceSquaredFromCameraEP7RwFrame
00000000003527e4 T _Z10SetAlphaCBP10RpMaterialPv
00000000003527ec T _ZN18CVisibilityPlugins19RenderWheelAtomicCBEP8RpAtomic
0000000000352888 T _ZN18CVisibilityPlugins21RenderObjNormalAtomicEP8RpAtomic
0000000000352964 T _ZN18CVisibilityPlugins17RenderAlphaAtomicEP8RpAtomici
00000000003529cc T _ZN18CVisibilityPlugins18RenderFadingAtomicEP8RpAtomicf
0000000000352b1c T _ZN18CVisibilityPlugins30RenderVehicleReallyLowDetailCBEP8RpAtomic
0000000000352bd0 T _ZN18CVisibilityPlugins13GetClumpAlphaEP7RpClump
0000000000352be8 T _ZN18CVisibilityPlugins29GetDotProductWithCameraVectorEP11RwMatrixTagS1_j
0000000000352cc8 T _ZN18CVisibilityPlugins23RenderVehicleHiDetailCBEP8RpAtomic
0000000000352dc0 T _ZN18CVisibilityPlugins28RenderVehicleHiDetailAlphaCBEP8RpAtomic
0000000000352f60 T _ZN18CVisibilityPlugins26InsertAtomicIntoSortedListEP8RpAtomicf
0000000000352fdc T _ZN18CVisibilityPlugins25RenderVehicleRotorAlphaCBEP8RpAtomic
0000000000353100 T _ZN18CVisibilityPlugins29RenderVehicleTailRotorAlphaCBEP8RpAtomic
0000000000353230 T _ZN18CVisibilityPlugins21RenderTrainHiDetailCBEP8RpAtomic
0000000000353328 T _ZN18CVisibilityPlugins26RenderTrainHiDetailAlphaCBEP8RpAtomic
00000000003534d4 T _ZN18CVisibilityPlugins41RenderVehicleReallyLowDetailCB_BigVehicleEP8RpAtomic
0000000000353514 T _ZN18CVisibilityPlugins35RenderVehicleLowDetailCB_BigVehicleEP8RpAtomic
00000000003535f8 T _ZN18CVisibilityPlugins34RenderVehicleHiDetailCB_BigVehicleEP8RpAtomic
00000000003536cc T _ZN18CVisibilityPlugins40RenderVehicleLowDetailAlphaCB_BigVehicleEP8RpAtomic
000000000035381c T _ZN18CVisibilityPlugins39RenderVehicleHiDetailAlphaCB_BigVehicleEP8RpAtomic
000000000035397c T _ZN18CVisibilityPlugins28RenderVehicleLoDetailCB_BoatEP8RpAtomic
0000000000353a30 T _ZN18CVisibilityPlugins28RenderVehicleHiDetailCB_BoatEP8RpAtomic
0000000000353a70 T _ZN18CVisibilityPlugins33RenderVehicleHiDetailAlphaCB_BoatEP8RpAtomic
0000000000353b30 T _ZN18CVisibilityPlugins30InsertAtomicIntoBoatSortedListEP8RpAtomicf
0000000000353bac T _Z12SetTextureCBP10RpMaterialPv
0000000000353bd0 T _ZN18CVisibilityPlugins14RenderPlayerCBEP8RpAtomic
0000000000353c18 T _ZN18CVisibilityPlugins11RenderPedCBEP8RpAtomic
0000000000353d00 T _ZN18CVisibilityPlugins14RenderWeaponCBEP8RpAtomic
0000000000353d98 T _ZN18CVisibilityPlugins23SetAtomicRenderCallbackEP8RpAtomicPFS1_S1_E
0000000000353db0 T _ZN18CVisibilityPlugins19SetRenderWareCameraEP8RwCamera
0000000000353f00 T _ZN18CVisibilityPlugins15IsAtomicVisibleEP8RpAtomic
0000000000353f90 T _ZN18CVisibilityPlugins19SetFrameHierarchyIdEP7RwFramei
0000000000353fa4 T _ZN18CVisibilityPlugins19GetFrameHierarchyIdEP7RwFrame
0000000000353fb8 T _ZN18CVisibilityPlugins15FrustumSphereCBEP7RpClump
000000000035405c T _ZN18CVisibilityPlugins15MloVisibilityCBEP7RpClump
000000000035416c T _ZN18CVisibilityPlugins19VehicleVisibilityCBEP7RpClump
0000000000354270 T _ZN18CVisibilityPlugins30VehicleVisibilityCB_BigVehicleEP7RpClump
0000000000354314 T _ZN18CVisibilityPlugins17SetClumpModelInfoEP7RpClumpP15CClumpModelInfo
000000000035438c T _ZN18CVisibilityPlugins17GetClumpModelInfoEP7RpClump
00000000003543a4 T _ZN18CVisibilityPlugins14IsClumpVisibleEP7RpClump
00000000003543b8 T _ZN18CVisibilityPlugins13SetClumpAlphaEP7RpClumpi
00000000003543d0 T _ZN18CVisibilityPlugins19InitAlphaAtomicListEv
0000000000354418 T _ZN18CVisibilityPlugins19InitAlphaEntityListEv
00000000003544e8 T _ZN18CVisibilityPlugins26InsertEntityIntoSortedListEP7CEntityf
00000000003545e0 T _ZN18CVisibilityPlugins16RenderAtomicListER9CLinkListINS_15AlphaObjectInfoEE
000000000035461c T _ZN18CVisibilityPlugins18RenderAlphaAtomicsEv
000000000035465c T _ZN18CVisibilityPlugins22RenderBoatAlphaAtomicsEv
00000000003546b0 T _ZN18CVisibilityPlugins20RenderFadingEntitiesER9CLinkListINS_15AlphaObjectInfoEE
000000000035478c T _ZN18CVisibilityPlugins20RenderFadingEntitiesEv
00000000003547ec T _ZN18CVisibilityPlugins30RenderFadingUnderwaterEntitiesEv
00000000003547f8 T _ZN18CVisibilityPlugins28GetDistanceSquaredFromCameraEP5RwV3d
0000000000354834 T _ZN5CDateC1Ev
0000000000354834 T _ZN5CDateC2Ev
0000000000354840 T _ZNK5CDategtERKS_
00000000003548ec T _ZNK5CDateltERKS_
0000000000354998 T _ZNK5CDateeqERKS_
0000000000354a08 T _ZN5CDate18PopulateDateFieldsERKcS1_S1_S1_S1_s
0000000000354a38 T _Z32PopulateRadioStationPositionListv
0000000000354b00 T _Z28InitRadioStationPositionListv
0000000000354b1c T _Z28GetSavedRadioStationPositioni
0000000000354b2c T _Z11GenericSavey
00000000003556d8 T _Z25CopySizeAndPreparePointerRPhS0_S0_RjS1_
0000000000355718 T _Z31MakeSpaceForSizeInBufferPointerRPhS0_S0_
0000000000355730 T _Z11align4bytesi
000000000035573c T _Z9CloseFiley
0000000000355758 T _Z11GenericLoadv
0000000000356114 T _Z26ReadInSizeofSaveFileBufferRyRj
00000000003561a8 T _Z16ReadDataFromFileyPhj
0000000000356230 T _Z34DoGameSpecificStuffAfterSucessLoadv
000000000035629c T _Z18CheckSlotDataValidib
00000000003562fc T _Z19CheckDataNotCorruptiPc
0000000000356684 T _Z29DoGameSpecificStuffBeforeSavev
00000000003566b4 T _Z16MakeSaveNameSavePc
00000000003566e0 T _Z17MakeValidSaveNamei
0000000000356808 T _Z23GetSavedGameDateAndTimei
0000000000356820 T _Z18GetNameOfSavedGamei
0000000000356838 T _Z24InitNewSettingsAfterLoadv
000000000035683c T _Z19RestoreForStartLoadv
0000000000356980 T _ZN8C_PcSave16SetSaveDirectoryEPKc
00000000003569b8 T _ZN8C_PcSave8SaveSlotEi
0000000000356bb0 T _ZN8C_PcSave18PcClassSaveRoutineEyPhj
0000000000356ce4 T _ZN8C_PcSave16PopulateSlotInfoEv
0000000000356f34 T _ZN8C_PcSave10DeleteSlotEi
0000000000357020 T _Z23OS_RockstarCloudTitleIdv
000000000035702c T _Z19OS_RockstarCloudKeyv
0000000000357038 T _Z25OS_IsRockstarCloudEnabledv
0000000000357040 T _Z16NextValidModelIdii
0000000000357094 T _ZN10CSceneEdit9LoadMovieEv
0000000000357118 T _ZN10CSceneEdit12ReInitialiseEv
0000000000357470 T _ZN10CSceneEdit9SaveMovieEv
00000000003574ec T _ZN10CSceneEdit10InitialiseEv
0000000000357620 T _ZN10CSceneEdit12InitPlayBackEv
0000000000357840 T _ZN10CSceneEdit8ShutdownEv
0000000000357844 T _ZN10CSceneEdit6UpdateEv
00000000003578e4 T _ZN10CSceneEdit14ProcessCommandEv
0000000000358c10 T _ZN10CSceneEdit8PlayBackEv
0000000000359418 T _ZN10CSceneEdit4DrawEv
00000000003598a4 T _ZN10CSceneEdit11SelectActorEv
0000000000359b38 T _ZN10CSceneEdit13SelectVehicleEv
0000000000359d8c T _ZN10CSceneEdit12SelectWeaponEv
0000000000359f18 T _ZN10CSceneEdit12SelectActor2Ev
000000000035a1c0 T _ZN10CSceneEdit18ClearForNewCommandEv
000000000035a21c T _ZN10CSceneEdit11GetLocationEv
000000000035a224 T _Z17RsKeyFromScanCodehi
000000000035a24c T _Z7RsTimerv
000000000035a250 T _Z18RsPathGetSeparatorv
000000000035a254 T _Z18RsCameraShowRasterP8RwCamera
000000000035a258 T _Z19RsCameraBeginUpdateP8RwCamera
000000000035a25c T _Z13RsAlwaysOnTopi
000000000035a260 T _Z21RsRegisterImageLoaderv
000000000035a268 T _Z20RsMouseSetVisibilityi
000000000035a26c T _Z13RsMouseSetPosP5RwV2d
000000000035a270 T _Z14RsSelectDevicev
000000000035a274 T _Z19RsInputDeviceAttach17RsInputDeviceTypePF13RsEventStatus7RsEventPvE
000000000035a2b0 T _Z22RsKeyboardEventHandler7RsEventPv
000000000035a2d0 T _Z19RsMouseEventHandler7RsEventPv
000000000035a2f0 T _Z17RsPadEventHandler7RsEventPv
000000000035a310 T _Z14RsEventHandler7RsEventPv
000000000035a47c T _Z13RsRwTerminatev
000000000035a494 T _Z14RsRwInitializePv
000000000035a58c T _Z11RsTerminatev
000000000035a590 T _Z12RsInitializev
000000000035a5e4 T _Z17RsPathnameDestroyPc
000000000035a5e8 T _Z16RsPathnameCreatePKc
000000000035a5ec T _Z21RsSetModelTexturePathPKc
000000000035a788 T _Z15RsSetPresetViewP8RwCamerai
000000000035a884 T _Z19RsSetNextPresetViewP8RwCamera
000000000035a8b8 T _Z23RsSetPreviousPresetViewP8RwCamera
000000000035a8f0 T _Z20RsDestroyPresetViewsv
000000000035a968 T _Z17RsLoadPresetViewsv
000000000035ac4c T _Z26RsGetPresetViewDescriptionv
000000000035aca4 T _Z16RsSavePresetViewP8RwCamera
000000000035af64 T _Z12RsGrabScreenP8RwCamera
000000000035af68 T _Z28RestoreButtonControlDefaultsv
000000000035b160 T _Z22RestoreDisplayDefaultsv
000000000035b1cc T _Z11ConductTest12DiagTestTypePKc
000000000035b23c T _Z18PerformDiagnosticsv
000000000035b240 T _Z16Diag_GetTestName12DiagTestType
000000000035b264 T _Z15KeyboardHandler7RsEventPv
000000000035baac T _Z10PadHandler7RsEventPv
000000000035bc38 T _Z18AttachInputDevicesv
000000000035bc6c T _ZN8RadarMapC1Ev
000000000035bc6c T _ZN8RadarMapC2Ev
000000000035bc80 T _ZN8RadarMap8ActivateEv
000000000035bd18 T _ZN8RadarMap10DeactivateEv
000000000035bd64 T _ZN8RadarMap6UpdateEf
000000000035c590 T _ZN8RadarMap13MoveMapCenterEff
000000000035c68c T _ZN8RadarMap6RenderEv
000000000035c698 T _ZN8RadarMap8DrawGangEffffifff
000000000035c844 T _Z16LowMemoryCleapUpv
000000000035c894 T _Z14RsErrorMessagePKc
000000000035c898 T _Z19psCameraBeginUpdateP8RwCamera
000000000035c8d8 T _Z18psCameraShowRasterP8RwCamera
000000000035c8e4 T _Z7psTimerv
000000000035c8e8 T _Z12psGrabScreenP8RwCamera
000000000035c8f0 T _Z20psMouseSetVisibilityi
000000000035c8f4 T _Z13psMouseSetPosP5RwV2d
000000000035c8f8 T _Z15RsFileDirectoryPKc
000000000035c910 T _Z16psPathnameCreatePKc
000000000035caec T _Z17psPathnameDestroyPc
000000000035caf8 T _Z18psPathGetSeparatorv
000000000035cb00 T _Z20psGetMemoryFunctionsv
000000000035cb08 T _Z19psInstallFileSystemv
000000000035cb10 T _Z22psNativeTextureSupportv
000000000035cb18 T _Z21psDebugMessageHandler11RwDebugTypePKc
000000000035cb20 T _Z18InitialiseLanguagev
000000000035cc6c T _Z11psTerminatev
000000000035cc70 T _Z13psAlwaysOnTopi
000000000035cc78 T _Z10HandleExitv
000000000035cd1c T _Z23UpdateFakeMouseControlsP25OS_PointerButtonEventInfo
000000000035cdc4 T _Z26ToggleMarketingDebugCamerav
000000000035ce2c T _Z19OS_ApplicationEvent11OSEventTypePv
000000000035d05c T _Z12CheckMapJumpP25OS_PointerButtonEventInfo
000000000035d060 T _Z16SaveGameForPausei
000000000035d138 T _Z14psSelectDevicev
000000000035d140 T _Z12psInitializev
000000000035d184 T _Z24OS_ApplicationInitializeiPPKc
000000000035d208 T _Z12RetryMissionii
000000000035d264 T _Z19JumpToMissionScreenv
000000000035d288 T _Z13IsPlayingGamev
000000000035d29c T _Z18IsSaveGameForPausev
000000000035d2b0 T _Z17DisplaySaveResultiPc
000000000035d2b4 T _Z21OS_ApplicationStartupiiiPPKc
000000000035d3c0 T _Z11MovieCancelv
000000000035d414 T _Z25OS_OnPlaylistOpenCompletebi
000000000035d428 T _Z28OS_OnRockstarInitialCompletev
000000000035d43c T _Z25OS_OnRockstarStateChangedb
000000000035d494 T _Z18OS_ApplicationTickf
000000000035d964 T _Z10CapturePadi
000000000035db60 T _Z17HandleTapToTargetff
000000000035dbf8 T _Z20ReleaseTargetingLockv
000000000035dc28 T _Z10IsZoomedInv
000000000035dc60 T _Z9IsZoomGunb
000000000035dce4 T _Z11IsRCVehiclev
000000000035dd14 T _Z7IsPlanev
000000000035dd90 T _Z6IsHeliv
000000000035de0c T _Z13IsRidingTrainv
000000000035de14 T _Z6IsBikev
000000000035de38 T _Z9CanSprintv
000000000035de94 T _Z7CanJumpv
000000000035df0c T _Z14IsGettingInCarv
000000000035df54 T _Z17IsGettingOutOfCarv
000000000035df98 T _Z16IsRocketLauncherv
000000000035dff4 T _Z13HasZoomWeaponv
000000000035e04c T _Z9IsGunModeb
000000000035e0c8 T _Z17IsTankOrFiretruckv
000000000035e0f4 T _Z5IsSMGv
000000000035e140 T _ZN11Touchscreen24ManageVehicleShootButtonEv
000000000035e1f4 T _Z16IsMissionVehiclev
000000000035e270 T _Z17UpdateVehicleIconv
000000000035e2f4 T _Z15IsVehicleNearbyv
000000000035e39c T _Z16IsPlayerPunchingv
000000000035e484 T _Z16IsPlayerThrowingv
000000000035e4d0 T _Z15CanPlayerTargetv
000000000035e598 T _Z15IsScriptRunningPKc
000000000035e60c T _Z12IsCarDrivebyv
000000000035e7b8 T _ZN17TouchscreenButtonC1EffffPKc
000000000035e7b8 T _ZN17TouchscreenButtonC2EffffPKc
000000000035e844 T _Z12CreateSpritePKcb
000000000035e8ac T _ZN17TouchscreenButtonD1Ev
000000000035e8ac T _ZN17TouchscreenButtonD2Ev
000000000035e8f4 T _ZN17TouchscreenButtonD0Ev
000000000035e918 T _ZN17TouchscreenButton6RenderEfP9CSprite2db10HIDMapping
000000000035ea90 T _ZN17TouchscreenButton5ResetEv
000000000035ea98 T _ZN17TouchscreenButton11UpdateStateEbb
000000000035ead0 T _ZN17TouchscreenNippleC1EffffPKcS1_
000000000035ead0 T _ZN17TouchscreenNippleC2EffffPKcS1_
000000000035ebc8 T _ZN17TouchscreenNipple6UpdateEfff
000000000035ec7c T _ZN17TouchscreenNipple5ResetEv
000000000035ec8c T _ZN17TouchscreenNipple8GetValueEv
000000000035ecd4 T _ZN17TouchscreenNipple6RenderEfP9CSprite2db
000000000035ee50 T _ZN11TouchAnalogC1EP9CSprite2dS1_bff
000000000035ee50 T _ZN11TouchAnalogC2EP9CSprite2dS1_bff
000000000035ee74 T _ZN11TouchAnalogD1Ev
000000000035ee74 T _ZN11TouchAnalogD2Ev
000000000035eec8 T _ZN11TouchAnalog10InitializeEiff
000000000035ef64 T _ZN11TouchAnalog6UpdateEfffb
000000000035efec T _ZN11TouchAnalog6RenderEf
000000000035f124 T _ZN11TouchAnalog5ResetEv
000000000035f130 T _ZN11TouchAnalog18DoWheelieOrStoppieEf
000000000035f140 T _ZN11TouchAnalog15ResetAnalogBikeEv
000000000035f150 T _ZN11Touchscreen15ResetAllButtonsEv
000000000035f1a0 T _ZN11Touchscreen8SetStateE16TouchscreenState
000000000035f214 T _ZN11Touchscreen10InitializeEv
000000000035fde8 T _ZN11Touchscreen17ResetButtonStatesEv
000000000035fe44 T _ZN11Touchscreen17ResetHeliControlsEv
000000000035feb4 T _ZN11Touchscreen12RenderSpriteEP9CSprite2d5CRectf
000000000035ff10 T _ZN11Touchscreen4FlipEv
000000000035ffe0 T _ZN11Touchscreen13RenderSpritesEv
0000000000360180 T _ZN11Touchscreen13DrawWatermarkEv
00000000003602a4 T _Z19GetMappingForButton19TouchscreenButtonId
000000000036057c T _Z16CanDisplayButton10HIDMapping
0000000000360598 T _ZN11Touchscreen6RenderEv
0000000000360bac T _ZN11Touchscreen11AnalogCountEv
0000000000360d84 T _ZN11Touchscreen19RenderForAdjustmentEf16TouchscreenState
0000000000361100 T _ZN11Touchscreen11GetButtonAtEff
0000000000361298 T _ZN11Touchscreen12ResizeButtonEi
0000000000361618 T _ZN11Touchscreen10MoveButtonEiff
0000000000361830 T _ZN11Touchscreen16UpdateAdjustmentEf
0000000000361d40 T _ZN11Touchscreen15GetHUDElementAtEff
0000000000361da8 T _ZN11Touchscreen15StreetActionOffEv
0000000000361de8 T _Z17GetFingerMidpointv
0000000000361e20 T _Z17GetFingerDistancev
0000000000361e5c T _ZN11Touchscreen18DeterminePinchZoomEv
000000000036210c T _ZN11Touchscreen15HandlePinchZoomEv
00000000003622d0 T _ZN11Touchscreen6UpdateEfb
0000000000364538 T _ZN11Touchscreen15ToggleCheatMenuEv
000000000036453c T _ZN11Touchscreen9HandleTapEi
0000000000364608 T _ZN11Touchscreen11HandleSwipeER9CVector2DS1_fb
0000000000364d9c T _ZN11Touchscreen15HandleDoubleTapEi
0000000000364e34 T _ZN11Touchscreen15HandleTapToJumpEbf
0000000000364ea4 T _ZN11Touchscreen13ManageWheelieEPKbS1_f
0000000000365044 T _ZN11Touchscreen13ManageStoppieEPKbS1_f
00000000003651e4 T _ZN11Touchscreen23CheckTouchButtonPressesERi
00000000003652b0 T _ZN11Touchscreen28HandleKeyboardWheelieStoppieER5RwV2d
000000000036530c T _ZN11Touchscreen13SetupJoystateERiR5RwV2dS2_
00000000003656dc T _ZN11Touchscreen16ReadFromSettingsEyi
0000000000365808 T _ZN11Touchscreen15RestoreDefaultsEv
000000000036580c T _ZN11Touchscreen11LoadButtonsEyi
00000000003659b4 T _ZN11Touchscreen15WriteToSettingsEy
0000000000365a70 T _ZN11Touchscreen18GetSpriteForStringEPs
0000000000366038 T _ZN11TouchscreenD1Ev
0000000000366038 T _ZN11TouchscreenD2Ev
00000000003663c4 T _ZN11Touchscreen16HandleZoomedGunsERfS0_S0_
0000000000366940 T _ZN11Touchscreen8DumpInfoEv
0000000000366944 T _ZN11Touchscreen15IsCheatMenuOpenEv
000000000036694c T _ZN11Touchscreen15RenderCheatMenuEv
0000000000366950 T _ZN11Touchscreen16ProcessCheatMenuEv
0000000000366954 T _ZN11Touchscreen14CloseCheatMenuEv
0000000000366958 W _ZN17TouchscreenNippleD2Ev
00000000003669c8 W _ZN17TouchscreenNippleD0Ev
0000000000366a38 T _ZN9CMessages4InitEv
0000000000366b54 T _ZN9CMessages23ClearPreviousBriefArrayEv
0000000000366b7c T _ZN9CMessages19GetWideStringLengthEPs
0000000000366ba8 T _ZN9CMessages14WideStringCopyEPsS0_t
0000000000366c38 T _ZN9CMessages17WideStringCompareEPsS0_t
0000000000366cfc T _ZN9CMessages7ProcessEv
0000000000366f44 T _ZN9CMessages23AddToPreviousBriefArrayEPsiiiiiiS0_
000000000036704c T _ZN9CMessages7DisplayEv
000000000036712c T _ZN9CMessages20InsertNumberInStringEPsiiiiiiS0_
000000000036737c T _ZN9CMessages20InsertStringInStringEPsS0_
00000000003675b0 T _ZN9CMessages31InsertPlayerControlKeysInStringEPs
0000000000367964 T _ZN9CMessages9CutStringEsPcPS0_
0000000000367bb8 T _ZN9CMessages11PrintStringEPcsss
0000000000367be8 T _ZN9CMessages10AddMessageEPsjt
0000000000367dc8 T _ZN9CMessages15AddMessageJumpQEPsjt
0000000000367f0c T _ZN9CMessages14AddMessageSoonEPsjt
0000000000368098 T _ZN9CMessages13ClearMessagesEb
0000000000368194 T _ZN9CMessages22ClearSmallMessagesOnlyEv
00000000003681c4 T _ZN9CMessages13AddBigMessageEPsjt
00000000003682f4 T _ZN9CMessages14AddBigMessageQEPsjt
0000000000368524 T _ZN9CMessages20AddMessageWithNumberEPsjtiiiiii
00000000003686c0 T _ZN9CMessages25AddMessageJumpQWithNumberEPsjtiiiiii
00000000003687c0 T _ZN9CMessages24AddMessageSoonWithNumberEPsjtiiiiii
000000000036890c T _ZN9CMessages23AddBigMessageWithNumberEPsjtiiiiii
00000000003689f8 T _ZN9CMessages24AddBigMessageWithNumberQEPsjtiiiiii
0000000000368b40 T _ZN9CMessages20AddMessageWithStringEPsjtS0_
0000000000368d30 T _ZN9CMessages25AddMessageJumpQWithStringEPsjtS0_
0000000000368e84 T _ZN9CMessages24AddMessageSoonWithStringEPsjtS0_
0000000000369028 T _ZN9CMessages14AddHelpMessageEPs
00000000003690b0 T _ZN9CMessages14ClearThisPrintEPs
0000000000369354 T _ZN9CMessages17ClearThisBigPrintEPs
0000000000369570 T _ZN9CMessages31ClearAllMessagesDisplayedByGameEb
00000000003696a8 T _ZN6CPager4InitEv
00000000003696d4 T _ZN6CPager7ProcessEv
0000000000369988 T _ZN6CPager7DisplayEv
0000000000369a4c T _ZN6CPager21RestartCurrentMessageEv
0000000000369a80 T _ZN6CPager10AddMessageEPsttt
0000000000369e3c T _ZN6CPager20AddMessageWithNumberEPsiiiiiittt
000000000036a264 T _ZN6CPager13ClearMessagesEv
000000000036a288 T _ZN9CKeyArray4LoadEjyPj
000000000036a37c T _ZN9CKeyArray6UnloadEv
000000000036a3ac T _ZN9CKeyArray6UpdateEPs
000000000036a3dc T _ZN9CKeyArray6SearchEPKcPh
000000000036a508 T _ZN9CKeyArray12BinarySearchEPKcP9CKeyEntryss
000000000036a65c T _ZN5CData4LoadEjyPj
000000000036a710 T _ZN5CData6UnloadEv
000000000036a740 T _ZN19CMissionTextOffsets4LoadEjyPji
000000000036a980 T _ZN5CText12GetUpperCaseEs
000000000036aa40 T _ZN5CText9UpperCaseEPs
000000000036ab1c T _Z14UnicodeToAsciiPs
000000000036ac38 T _Z25UnicodeToAsciiForSaveLoadPs
000000000036ac94 T _Z15AsciiNToUnicodePci
000000000036ad54 T _Z8TextCopyPsPKs
000000000036ad74 T _ZN5CText15ReadChunkHeaderEP11ChunkHeaderyPj
000000000036aee8 T _ZN5CText4LoadEv
000000000036b190 T _ZN5CText6UnloadEv
000000000036b20c T _ZN5CText26GetNameOfLoadedMissionTextEPc
000000000036b21c T _ZN5CText15LoadMissionTextEPc
000000000036b650 T _ZN5CText3GetEPKc
000000000036b6d8 T _ZN5CTextC1Ev
000000000036b6d8 T _ZN5CTextC2Ev
000000000036b728 T _ZN5CTextD1Ev
000000000036b728 T _ZN5CTextD2Ev
000000000036b7d0 T _Z28SetVehicleAtomicVisibilityCBP8RwObjectPv
000000000036b80c T _Z24GetCurrentAtomicObjectCBP8RwObjectPv
000000000036b81c T _ZN11CAutomobileC1Eih
000000000036b81c T _ZN11CAutomobileC2Eih
000000000036c0d0 T _ZN11CAutomobile20SetupSuspensionLinesEv
000000000036c32c T _ZN11CAutomobileD1Ev
000000000036c32c T _ZN11CAutomobileD2Ev
000000000036c330 T _ZN11CAutomobileD0Ev
000000000036c354 T _ZN11CAutomobile13SetModelIndexEj
000000000036c394 T _ZN11CAutomobile15SetupModelNodesEv
000000000036c3b8 T _ZN11CAutomobile16HydraulicControlEv
000000000036d134 T _ZN11CAutomobile25GetComponentWorldPositionEiR7CVector
000000000036d18c T _ZN11CAutomobile18IsComponentPresentEi
000000000036d1a0 T _ZN11CAutomobile20SetComponentRotationEi7CVector
000000000036d2d8 T _ZN11CAutomobile8OpenDoorEi6eDoorsf
000000000036d4ac T _ZN11CAutomobile12HideAllCompsEv
000000000036d4b0 T _ZN11CAutomobile12ShowAllCompsEv
000000000036d4b4 T _ZN11CAutomobile15ProcessOpenDoorEjjf
000000000036d910 T _ZN11CAutomobile11IsDoorReadyE6eDoors
000000000036d990 T _ZN11CAutomobile15IsDoorFullyOpenE6eDoors
000000000036d9e4 T _ZN11CAutomobile12IsDoorClosedE6eDoors
000000000036d9f4 T _ZN11CAutomobile13IsDoorMissingE6eDoors
000000000036da18 T _ZN11CAutomobile12IsOpenTopCarEv
000000000036da68 T _ZN11CAutomobile28dmgDrawCarCollidingParticlesERK7CVectorf
000000000036de60 T _ZN11CAutomobile13VehicleDamageEft
000000000036ea64 T _ZN11CAutomobile15SetBumperDamageEi7ePanelsb
000000000036eb54 T _ZN11CAutomobile13SetDoorDamageEi6eDoorsb
000000000036ecf4 T _ZN11CAutomobile14SetPanelDamageEi7ePanelsb
000000000036ee04 T _ZN11CAutomobile19TellHeliToGoToCoorsEfffh
000000000036eea8 T _ZN11CAutomobile18SetHeliOrientationEf
000000000036eeb0 T _ZN11CAutomobile20ClearHeliOrientationEv
000000000036eebc T _ZN11CAutomobile20TellPlaneToGoToCoorsEfffh
000000000036ef18 T _ZN11CAutomobile22SetComponentVisibilityEP7RwFramej
000000000036ef40 T _ZN11CAutomobile20SpawnFlyingComponentEij
000000000036f48c T _Z12DisableMatFxP10RpMaterialPv
000000000036f4b4 T _ZN11CAutomobile6LinkupEv
000000000036f4b8 T _ZN11CAutomobile17ReduceHornCounterEv
000000000036f4cc T _ZN11CAutomobile15ProcessBuoyancyEv
0000000000370020 T _ZN11CAutomobile14ProcessControlEv
0000000000374c0c T _ZN11CAutomobile19ProcessAutoBusDoorsEv
0000000000374df4 T _ZN11CAutomobile13ScanForCrimesEv
0000000000374eb8 T _ZN11CAutomobile22RcbanditCheckHitWheelsEv
0000000000375020 T _ZN11CAutomobile18DoDriveByShootingsEv
0000000000375390 T _ZN11CAutomobile23DoHoverSuspensionRatiosEv
0000000000375568 T _ZN11CAutomobile19PlayHornIfNecessaryEv
00000000003755b0 T _ZN11CAutomobile11TankControlEv
0000000000375d20 T _ZN11CAutomobile16BlowUpCarsInPathEv
0000000000375e0c T _ZN11CAutomobile8TeleportE7CVector
0000000000375eb8 T _ZN11CAutomobile15ResetSuspensionEv
0000000000375ee0 T _ZN11CAutomobile19ProcessSwingingDoorEi6eDoors
000000000037618c T _ZN11CAutomobile26RemoveBonnetInPedCollisionEv
000000000037623c T _ZN11CAutomobile26AddDamagedVehicleParticlesEv
0000000000376bc8 T _ZN11CAutomobile20AddWheelDirtAndWaterER9CColPointj
00000000003773cc T _ZN11CAutomobile9PreRenderEv
000000000037bd2c T _ZN11CAutomobile6RenderEv
000000000037bfd0 T _ZN11CAutomobile22ProcessEntityCollisionEP7CEntityP9CColPoint
000000000037c27c T _ZN11CAutomobile20ProcessControlInputsEh
000000000037c754 T _ZN11CAutomobile21GetAllWheelsOffGroundEv
000000000037c764 T _ZN11CAutomobile9DebugCodeEv
000000000037c7f8 T _ZN11CAutomobile9BlowUpCarEP7CEntity
000000000037cb68 T _ZN11CAutomobile19RemoveRefsToVehicleEP7CEntity
000000000037cbb0 T _ZN11CAutomobile18SetUpWheelColModelEP9CColModel
000000000037cdfc T _ZN11CAutomobile9BurstTyreEhb
000000000037cfac T _ZN11CAutomobile3FixEv
000000000037d180 T _ZN11CAutomobile20SetupDamageAfterLoadEv
000000000037d498 T _ZN11CAutomobile12SetTaxiLightEb
000000000037d4ac T _ZN11CAutomobile16SetAllTaxiLightsEb
000000000037d4bc T _ZN11CAutomobile11PlayCarHornEv
000000000037d590 T _ZN11CAutomobile22IsRoomForPedToLeaveCarEjP7CVector
000000000037d920 T _ZN11CAutomobile23RcbanditCheck1CarWheelsER8CPtrList
000000000037db6c T _ZN4CPed23DeadPedMakesTyresBloodyEv
000000000037dcb8 T _ZN4CPed24MakeTyresMuddySectorListER8CPtrList
000000000037e1a4 T _ZN11CAutomobile15SetBusDoorTimerEjh
000000000037e1d8 T _ZN11CAutomobile19PlaceOnRoadProperlyEv
000000000037e3e4 T _ZN11CAutomobile14KnockPedOutCarE11eWeaponTypetP4CPed
000000000037e580 T _ZN11CAutomobile7PopBootEv
000000000037e678 T _ZN11CAutomobile19PopBootUsingPhysicsEv
000000000037e6c0 T _ZN11CAutomobile9CloseBootEv
000000000037e7a4 T _ZN11CAutomobile13CloseAllDoorsEv
000000000037e8bc W _ZN8CVehicle30FlagToDestroyWhenNextProcessedEv
000000000037e8c0 W _ZN11CAutomobile11IsDoorReadyEj
000000000037e8f8 W _ZN11CAutomobile13IsDoorMissingEj
000000000037e930 W _ZN11CAutomobile18GetHeightAboveRoadEv
000000000037e938 T _Z25SetBikeAtomicVisibilityCBP8RwObjectPv
000000000037e974 T _Z21GetBikeAtomicObjectCBP8RwObjectPv
000000000037e984 T _ZN5CBikeC1Eih
000000000037e984 T _ZN5CBikeC2Eih
000000000037ed10 T _ZN5CBike20SetupSuspensionLinesEv
000000000037f080 T _ZN5CBikeD1Ev
000000000037f080 T _ZN5CBikeD2Ev
000000000037f0b8 T _ZN5CBikeD0Ev
000000000037f0dc T _ZN5CBike13SetModelIndexEj
000000000037f110 T _ZN5CBike15SetupModelNodesEv
000000000037f128 T _ZN5CBike25GetComponentWorldPositionEiR7CVector
000000000037f180 T _ZN5CBike18IsComponentPresentEi
000000000037f194 T _ZN5CBike20SetComponentRotationEi7CVector
000000000037f2cc T _ZN5CBike28dmgDrawCarCollidingParticlesERK7CVectorf
000000000037f2d0 T _ZN5CBike13VehicleDamageEv
000000000037f7dc T _ZN5CBike13KnockOffRiderE11eWeaponTypehP4CPedb
0000000000380488 T _ZN5CBike18SetRemoveAnimFlagsEP4CPed
00000000003804d0 T _ZN5CBike22SetComponentVisibilityEP7RwFramej
00000000003804f8 T _ZN5CBike17ReduceHornCounterEv
000000000038050c T _ZN5CBike15ProcessBuoyancyEv
0000000000380884 T _ZN5CBike14ProcessControlEv
0000000000384128 T _ZN5CBike18DoDriveByShootingsEv
00000000003843d0 T _ZN5CBike19PlayHornIfNecessaryEv
00000000003843ec T _ZN5CBike8TeleportE7CVector
0000000000384490 T _ZN5CBike15ResetSuspensionEv
00000000003844b0 T _ZN5CBike26AddDamagedVehicleParticlesEv
00000000003848c4 T _ZN5CBike19CalculateLeanMatrixEv
0000000000384a20 T _ZN5CBike20AddWheelDirtAndWaterER9CColPointj
0000000000385384 T _ZN5CBike9PreRenderEv
0000000000386df0 T _ZN5CBike6RenderEv
0000000000386e40 T _ZN5CBike22ProcessEntityCollisionEP7CEntityP9CColPoint
00000000003870b0 T _ZN5CBike20ProcessControlInputsEh
0000000000387448 T _ZN5CBike21GetAllWheelsOffGroundEv
0000000000387458 T _ZN5CBike9DebugCodeEv
000000000038745c T _ZN5CBike9BlowUpCarEP7CEntity
0000000000387550 T _ZN5CBike19RemoveRefsToVehicleEP7CEntity
0000000000387598 T _ZN5CBike18SetUpWheelColModelEP9CColModel
0000000000387724 T _ZN5CBike9BurstTyreEhb
00000000003879cc T _ZN5CBike3FixEv
0000000000387a00 T _ZN5CBike20SetupDamageAfterLoadEv
0000000000387a04 T _ZN5CBike11PlayCarHornEv
0000000000387ad8 T _ZN5CBike19PlaceOnRoadProperlyEv
0000000000387ce4 T _ZN5CBike22IsRoomForPedToLeaveCarEjP7CVector
0000000000388028 T _ZN5CBike29GetCorrectedWorldDoorPositionER7CVectorS0_S0_
00000000003881ac W _ZN8CVehicle8OpenDoorEi6eDoorsf
00000000003881b0 W _ZN8CVehicle15ProcessOpenDoorEjjf
00000000003881b4 W _ZN5CBike11IsDoorReadyE6eDoors
00000000003881bc W _ZN5CBike15IsDoorFullyOpenE6eDoors
00000000003881c4 W _ZN5CBike12IsDoorClosedE6eDoors
00000000003881cc W _ZN5CBike13IsDoorMissingE6eDoors
00000000003881d4 W _ZN8CVehicle11IsDoorReadyEj
00000000003881dc W _ZN8CVehicle13IsDoorMissingEj
00000000003881e4 W _ZN8CVehicle12IsOpenTopCarEv
00000000003881ec W _ZN5CBike18GetHeightAboveRoadEv
00000000003881f4 T _Z21GetBoatAtomicObjectCBP8RwObjectPv
0000000000388204 T _ZN5CBoatC1Eih
0000000000388204 T _ZN5CBoatC2Eih
000000000038843c T _ZN5CBoatD1Ev
000000000038843c T _ZN5CBoatD2Ev
0000000000388440 T _ZN5CBoatD0Ev
0000000000388464 T _ZN5CBoat13SetModelIndexEj
0000000000388498 T _ZN5CBoat15SetupModelNodesEv
00000000003884b4 T _ZN5CBoat25GetComponentWorldPositionEiR7CVector
00000000003884ec T _ZN5CBoat18IsComponentPresentEi
00000000003884f4 T _ZN5CBoat9PreRenderEv
0000000000388de4 T _ZN5CBoat6RenderEv
0000000000389334 T _ZN5CBoat20ProcessControlInputsEh
00000000003894f8 T _ZN5CBoat9DebugCodeEv
0000000000389598 T _ZN5CBoat14ProcessControlEv
000000000038c35c T _ZN5CBoat14PruneWakeTrailEv
000000000038c3ac T _ZN5CBoat18DoDriveByShootingsEv
000000000038c5e8 T _ZN5CBoat12AddWakePointE7CVector
000000000038c70c T _ZN5CBoat20ApplyWaterResistanceEv
000000000038c8ec T _ZN5CBoat8TeleportE7CVector
000000000038c974 T _ZN5CBoat19DisplayHandlingDataEv
000000000038ca9c T _ZN5CBoat19ModifyHandlingValueERKb
000000000038cad0 T _ZN5CBoat9BlowUpCarEP7CEntity
000000000038ce04 T _ZN5CBoat12FillBoatListEv
000000000038cfd4 T _ZN5CBoat22IsSectorAffectedByWakeE9CVector2DfPPS_
000000000038d204 T _ZN5CBoat22IsVertexAffectedByWakeE7CVectorPS_sb
000000000038d364 T _ZN5CBoat28CheckForSkippingCalculationsEv
000000000038d470 W _ZN8CVehicle20SetComponentRotationEi7CVector
000000000038d474 W _ZN8CVehicle11IsDoorReadyE6eDoors
000000000038d47c W _ZN8CVehicle15IsDoorFullyOpenE6eDoors
000000000038d484 W _ZN8CVehicle12IsDoorClosedE6eDoors
000000000038d48c W _ZN8CVehicle13IsDoorMissingE6eDoors
000000000038d494 W _ZN8CVehicle19RemoveRefsToVehicleEP7CEntity
000000000038d498 W _ZN8CVehicle18SetUpWheelColModelEP9CColModel
000000000038d4a0 W _ZN8CVehicle9BurstTyreEhb
000000000038d4a4 W _ZN8CVehicle22IsRoomForPedToLeaveCarEjP7CVector
000000000038d4ac W _ZN8CVehicle18GetHeightAboveRoadEv
000000000038d4cc W _ZN8CVehicle11PlayCarHornEv
000000000038d4d0 T _ZN13CCarGenerator9SwitchOffEv
000000000038d4ec T _ZN13CCarGenerator8SwitchOnEv
000000000038d520 T _ZN13CCarGenerator11CalcNextGenEv
000000000038d534 T _ZN13CCarGenerator20DoInternalProcessingEv
000000000038da30 T _ZN13CCarGenerator16CheckForBlockageEi
000000000038db74 T _ZN13CCarGenerator7ProcessEv
000000000038dc8c T _ZN13CCarGenerator30CheckIfWithinRangeOfAnyPlayersEv
000000000038dec8 T _ZN13CCarGenerator5SetupEffffisshhhtt
000000000038df18 T _ZN17CTheCarGenerators7ProcessEv
000000000038dfc4 T _ZN17CTheCarGenerators18CreateCarGeneratorEffffisshhhtt
000000000038e044 T _ZN17CTheCarGenerators4InitEv
000000000038e078 T _ZN17CTheCarGenerators20SaveAllCarGeneratorsEPhPj
000000000038e1a0 T _ZN17CTheCarGenerators20LoadAllCarGeneratorsEPhj
000000000038e2a8 T _ZN7CCranes10InitCranesEv
000000000038e444 T _ZN7CCranes15AddThisOneCraneEP7CEntity
000000000038e530 T _ZN7CCranes13ActivateCraneEffffffffbbff
000000000038e774 T _ZN6CCrane23FindParametersForTargetEfffPfS0_S0_
000000000038e7fc T _ZN7CCranes15DeActivateCraneEff
000000000038e8a4 T _ZN7CCranes21FindNumCarsDroppedOffEff
000000000038e924 T _ZN7CCranes17IsThisCarPickedUpEffP8CVehicle
000000000038e9cc T _ZN7CCranes12UpdateCranesEv
000000000038eab4 T _ZN6CCrane6UpdateEv
000000000038f748 T _ZN6CCrane15GoTowardsTargetEffff
000000000038f8e4 T _ZN6CCrane19FindCarInSectorListEP8CPtrList
000000000038faf0 T _ZN6CCrane24RotateCarriedCarProperlyEv
000000000038fc00 T _ZN6CCrane21GoTowardsHeightTargetEff
000000000038fc58 T _ZN7CCranes27RegisterCarForMilitaryCraneEj
000000000038fcf0 T _ZN7CCranes39HaveAllCarsBeenCollectedByMilitaryCraneEv
000000000038fd0c T _ZN6CCrane19CalcHookCoordinatesEPfS0_S0_
000000000038fd8c T _ZN6CCrane13SetHookMatrixEv
000000000038ff04 T _ZN6CCrane26DoesCranePickUpThisCarTypeEj
000000000038ff88 T _ZN7CCranes35DoesMilitaryCraneHaveThisOneAlreadyEj
0000000000390064 T _ZN7CCranes31IsThisCarBeingCarriedByAnyCraneEP8CVehicle
00000000003900d8 T _ZN7CCranes33IsThisCarBeingTargettedByAnyCraneEP8CVehicle
0000000000390140 T _ZN7CCranes4SaveEPhPj
0000000000390270 T _Z10CranesLoadPhj
00000000003903c8 T _ZN14CDamageManager17GetComponentGroupE10tComponentP15tComponentGroupPh
0000000000390444 T _ZN14CDamageManager17ResetDamageStatusEv
0000000000390454 T _ZN14CDamageManager14SetLightStatusE7eLightsj
0000000000390478 T _ZN14CDamageManager14GetLightStatusE7eLights
000000000039048c T _ZN14CDamageManager14SetPanelStatusEij
00000000003904b0 T _ZN14CDamageManager14GetPanelStatusEi
00000000003904c4 T _ZN14CDamageManager14SetWheelStatusEij
00000000003904d0 T _ZN14CDamageManager14GetWheelStatusEi
00000000003904dc T _ZN14CDamageManager13SetDoorStatusEij
00000000003904e8 T _ZN14CDamageManager13GetDoorStatusEi
00000000003904f4 T _ZN14CDamageManager15SetEngineStatusEj
0000000000390508 T _ZN14CDamageManager15GetEngineStatusEv
0000000000390510 T _ZN14CDamageManager18ProgressDoorDamageEh
0000000000390534 T _ZN14CDamageManager20ProgressEngineDamageEf
000000000039053c T _ZN14CDamageManager19ProgressPanelDamageEh
000000000039057c T _ZN14CDamageManager19ProgressWheelDamageEh
00000000003905a0 T _ZN14CDamageManager11ApplyDamageE10tComponentff
0000000000390714 T _ZN14CDamageManager17FuckCarCompletelyEv
0000000000390730 T _ZN5CDoor7ProcessEP8CVehicle
00000000003909f4 T _ZN5CDoor4OpenEf
0000000000390a44 T _ZN5CDoor17GetAngleOpenRatioEv
0000000000390a74 T _ZN5CDoor18RetAngleWhenClosedEv
0000000000390a8c T _ZN5CDoor16RetAngleWhenOpenEv
0000000000390aa4 T _ZN5CDoor8IsClosedEv
0000000000390ac8 T _ZN5CDoor11IsFullyOpenEv
0000000000390b04 T _ZN5CDoor7IsInUseEv
0000000000390b2c T _ZN10CTrainDoor8IsClosedEv
0000000000390b50 T _ZN10CTrainDoor24RetTranslationWhenClosedEv
0000000000390b68 T _ZN10CTrainDoor11IsFullyOpenEv
0000000000390ba4 T _ZN10CTrainDoor22RetTranslationWhenOpenEv
0000000000390bbc T _ZN10CTrainDoor7IsInUseEv
0000000000390be4 T _ZN10CTrainDoor4OpenEf
0000000000390c28 T _ZN9cBuoyancy15ProcessBuoyancyEP9CPhysicalfP7CVectorS3_
0000000000390d08 T _ZN9cBuoyancy12PreCalcSetupEP9CPhysicalf
0000000000391068 T _ZN9cBuoyancy18SimpleCalcBuoyancyEv
00000000003911dc T _ZN9cBuoyancy17CalcBuoyancyForceEP9CPhysicalP7CVectorS3_
0000000000391250 T _ZN9cBuoyancy14FindWaterLevelERK7CVectorPS0_P11tWaterLevel
0000000000391308 T _ZN9cBuoyancy18FindWaterLevelNormERK7CVectorPS0_P11tWaterLevelS3_
00000000003913f8 T _ZN9cBuoyancy21SimpleSumBuoyancyDataER7CVector11tWaterLevel
0000000000391540 T _ZN9cBuoyancy19ProcessBuoyancyBoatEP8CVehiclefP7CVectorS3_b
000000000039197c W _ZN9cBuoyancyD2Ev
00000000003919d4 T _ZN16cHandlingDataMgr13FindExactWordEPcS0_ii
0000000000391a98 T _ZN16cHandlingDataMgrC1Ev
0000000000391a98 T _ZN16cHandlingDataMgrC2Ev
0000000000391af4 T _ZN16cHandlingDataMgr13GetHandlingIdEPKc
0000000000391b4c T _ZN16cHandlingDataMgr23ConvertDataToWorldUnitsEP13tHandlingData
0000000000391bb8 T _ZN16cHandlingDataMgr22ConvertDataToGameUnitsEP13tHandlingData
0000000000391d60 T _ZN16cHandlingDataMgr27ConvertBikeDataToWorldUnitsEP17tBikeHandlingData
0000000000391de8 T _ZN16cHandlingDataMgr26ConvertBikeDataToGameUnitsEP17tBikeHandlingData
0000000000391e8c T _ZN16cHandlingDataMgr16GetFlyingPointerEh
0000000000391eb4 T _ZN16cHandlingDataMgr14GetBoatPointerEh
0000000000391ed8 T _ZN16cHandlingDataMgr10InitialiseEv
0000000000391f10 T _ZN16cHandlingDataMgr16LoadHandlingDataEv
0000000000392bd8 T _ZN16cHandlingDataMgr10RangeCheckEP13tHandlingData
0000000000392bdc T _ZN16cHandlingDataMgr19DisplayHandlingDataEP8CVehicleP13tHandlingDatahb
0000000000393260 T _ZN16cHandlingDataMgr19ModifyHandlingValueEP8CVehicleRK12tVehicleTypeRK6tFieldRKb
0000000000393824 T _ZN5CHeliC1Eih
0000000000393824 T _ZN5CHeliC2Eih
0000000000393968 T _ZN5CHeliD1Ev
0000000000393968 T _ZN5CHeliD2Ev
000000000039396c T _ZN5CHeliD0Ev
0000000000393990 T _ZN5CHeli13SetModelIndexEj
00000000003939c4 T _ZN5CHeli9PreRenderEv
0000000000393a64 T _ZN5CHeli15PreRenderAlwaysEv
0000000000393d08 T _ZN5CHeli6RenderEv
0000000000393e5c T _ZN5CHeli14ProcessControlEv
000000000039511c T _ZN5CHeli12SendDownSwatEv
00000000003953e4 T _ZN5CHeli30FindSwatPositionRelativeToHeliEi
000000000039541c T _ZN5CHeli9InitHelisEv
0000000000395464 T _ZN5CHeli11UpdateHelisEv
0000000000395db0 T _Z12GenerateHelib
0000000000395fcc T _ZN5CHeli20SpawnFlyingComponentEi
0000000000396254 T _ZN5CHeli12ActivateHeliEb
0000000000396264 T _Z18StartCatalinaFlyByv
0000000000396284 T _ZN5CHeli15CatalinaTakeOffEv
000000000039629c T _ZN5CHeli23MakeCatalinaHeliFlyAwayEv
00000000003962b4 T _ZN5CHeli18RemoveCatalinaHeliEv
0000000000396304 T _ZN5CHeli23HasCatalinaBeenShotDownEv
0000000000396314 T _ZN5CHeli26FindPointerToCatalinasHeliEv
0000000000396324 T _ZN5CHeli19TestRocketCollisionEP7CVector
0000000000396468 T _ZN5CHeli19TestBulletCollisionEP7CVectorS1_S1_i
0000000000396694 T _ZN5CHeli19TestSniperCollisionEP7CVectorS1_
000000000039686c T _ZN5CHeli20SpecialHeliPreRenderEv
00000000003968c4 T _Z21GetHeliAtomicObjectCBP8RwObjectPv
00000000003968d4 W _ZN8CVehicle20ProcessControlInputsEh
00000000003968d8 W _ZN8CVehicle25GetComponentWorldPositionEiR7CVector
00000000003968dc W _ZN8CVehicle18IsComponentPresentEi
00000000003968e4 W _ZN8CVehicle9BlowUpCarEP7CEntity
00000000003968e8 T _ZN6CPlaneC1Eih
00000000003968e8 T _ZN6CPlaneC2Eih
00000000003969b4 T _ZN6CPlaneD1Ev
00000000003969b4 T _ZN6CPlaneD2Ev
0000000000396a30 T _ZN6CPlaneD0Ev
0000000000396a54 T _ZN6CPlane13SetModelIndexEj
0000000000396a58 T _ZN6CPlane14DeleteRwObjectEv
0000000000396ac0 T _ZN6CPlane9PreRenderEv
0000000000396dac T _ZN6CPlane6RenderEv
0000000000396dc4 T _ZN6CPlane10InitPlanesEv
000000000039724c T _ZN6CPlane8LoadPathEPKcRiRfb
0000000000397424 T _ZN6CPlane8ShutdownEv
00000000003974a4 T _ZN6CPlane12UpdatePlanesEv
0000000000397c40 T _ZN6CPlane21RemoveTemporaryPlanesEv
0000000000397d0c T _ZN6CPlane14ProcessControlEv
00000000003992f0 T _ZN6CPlane19TestRocketCollisionEP7CVector
0000000000399434 T _ZN6CPlane30FlagToDestroyWhenNextProcessedEv
0000000000399444 T _Z19CreateIncomingCesnav
000000000039951c T _ZN6CPlane14HasCesnaLandedEv
0000000000399524 T _ZN6CPlane21HasCesnaBeenDestroyedEv
0000000000399538 T _ZN6CPlane18CreateDropOffCesnaEv
0000000000399610 T _ZN6CPlane27HasDropOffCesnaBeenShotDownEv
0000000000399624 T _ZN6CPlane27FindDropOffCesnaCoordinatesEv
000000000039963c T _ZN6CPlane24FindDrugPlaneCoordinatesEv
0000000000399654 T _ZN6CPlane4SaveEv
0000000000399720 T _ZN6CPlane4LoadEv
00000000003997ec T _ZN6CTrainC1Eih
00000000003997ec T _ZN6CTrainC2Eih
0000000000399838 T _ZN6CTrainD1Ev
0000000000399838 T _ZN6CTrainD2Ev
000000000039983c T _ZN6CTrainD0Ev
0000000000399860 T _ZN6CTrain13SetModelIndexEj
0000000000399864 T _ZN6CTrain9PreRenderEv
0000000000399868 T _ZN6CTrain6RenderEv
000000000039986c T _ZN6CTrain25ReadAndInterpretTrackFileEPcPP10CTrainNodePsiPfS5_S5_P23CTrainInterpolationLineb
0000000000399870 T _ZN6CTrain10InitTrainsEv
0000000000399874 T _ZN6CTrain8ShutdownEv
0000000000399878 T _ZN6CTrain12UpdateTrainsEv
000000000039987c T _Z25ProcessTrainAnnouncementsv
0000000000399880 T _Z16PlayAnnouncementhh
0000000000399884 T _ZN6CTrain14ProcessControlEv
0000000000399888 T _ZN6CTrain13TrainHitStuffER8CPtrList
000000000039988c T _ZN6CTrain13OpenTrainDoorEf
0000000000399890 T _ZN6CTrain12AddPassengerEP4CPed
0000000000399894 T _ZN6CTrain15RemovePassengerEP4CPed
0000000000399898 T _ZN13cTransmissionC1Ev
0000000000399898 T _ZN13cTransmissionC2Ev
000000000039989c T _ZN13cTransmission14InitGearRatiosEv
0000000000399990 T _ZN13cTransmission26CalculateDriveAccelerationERKfRhRfS1_b
0000000000399c1c T _ZN13cTransmission25CalculateGearForSimpleCarEfRh
0000000000399c70 T _ZN13cTransmission17DisplayGearRatiosEv
0000000000399dac T _ZN8CVehicleC1Eh
0000000000399dac T _ZN8CVehicleC2Eh
000000000039a164 T _ZN8CVehicleD1Ev
000000000039a164 T _ZN8CVehicleD2Ev
000000000039a2c8 T _ZN8CVehicleD0Ev
000000000039a330 T _ZN8CVehicledlEPv
000000000039a37c T _ZN8CVehiclenwEm
000000000039a408 T _ZN8CVehiclenwEmi
000000000039a460 T _ZN8CVehicledlEPvi
000000000039a4ac T _ZN8CVehicle20GetVehicleAppearanceEv
000000000039a4d8 T _ZN8CVehicle13SetModelIndexEj
000000000039a518 T _ZN8CVehicle12CanBeDeletedEv
000000000039a6b0 T _ZN8CVehicle20ProcessWheelRotationE11tWheelStateRK7CVectorS3_f
000000000039a710 T _ZN8CVehicle12ProcessWheelER7CVectorS1_S1_S1_ifffcPfP11tWheelStatet
000000000039acc0 T _ZN8CVehicle16ProcessBikeWheelER7CVectorS1_S1_S1_iffffcPfP11tWheelState17eBikeWheelSpecialt
000000000039b2ac T _ZN8CVehicle20FindTyreNearestPointEff
000000000039b320 T _ZN8CVehicle13InflictDamageEP7CEntity11eWeaponTypef7CVector
000000000039ba70 T _ZN8CVehicle23ProcessDelayedExplosionEv
000000000039bb2c T _ZN8CVehicle12AddPassengerEP4CPed
000000000039bc30 T _ZN8CVehicle12AddPassengerEP4CPedh
000000000039bd38 T _ZN8CVehicle15RemovePassengerEP4CPed
000000000039be1c T _ZN8CVehicle9SetDriverEP4CPed
000000000039c0ac T _ZN8CVehicle12RemoveDriverEv
000000000039c1d8 T _ZN8CVehicle11SetUpDriverEv
000000000039c290 T _ZN8CVehicle14SetupPassengerEi
000000000039c418 T _ZN8CVehicle11IsPassengerEP4CPed
000000000039c490 T _ZN8CVehicle11IsPassengerEi
000000000039c578 T _ZN8CVehicle8IsDriverEP4CPed
000000000039c594 T _ZN8CVehicle8IsDriverEi
000000000039c5b8 T _ZN8CVehicle17KillPedsInVehicleEv
000000000039c6b0 T _ZN8CVehicle9UsesSirenEv
000000000039c6f8 T _ZNK8CVehicle12IsUpsideDownEv
000000000039c714 T _ZN8CVehicle11IsOnItsSideEv
000000000039c744 T _ZN8CVehicle15CanPedOpenLocksEPK4CPed
000000000039c7a0 T _ZN8CVehicle17CanDoorsBeDamagedEv
000000000039c7c0 T _ZN8CVehicle14CanPedEnterCarEv
000000000039c854 T _ZN8CVehicle13CanPedExitCarEb
000000000039c9c4 T _ZN8CVehicle17CanPedJumpOffBikeEv
000000000039ca00 T _ZN8CVehicle16CanPedJumpOutCarEv
000000000039ca58 T _ZN8CVehicle15ProcessCarAlarmEv
000000000039cab4 T _ZN8CVehicle23IsSphereTouchingVehicleEffff
000000000039cba4 T _Z36DestroyVehicleAndDriverAndPassengersP8CVehicle
000000000039cc60 T _Z21IsVehiclePointerValidP8CVehicle
000000000039ccbc T _Z32IsVehiclePointerValid_NotInWorldP8CVehicle
000000000039ccf0 T _ZN8CVehicle15IsVehicleNormalEv
000000000039cd38 T _ZN8CVehicle22ChangeLawEnforcerStateEh
000000000039cd90 T _ZN8CVehicle23IsLawEnforcementVehicleEv
000000000039cdd4 T _ZN8CVehicle28ShufflePassengersToMakeSpaceEv
000000000039cf88 T _ZN8CVehicle17ExtinguishCarFireEv
000000000039cffc T _ZN8CVehicle15ActivateCarBombEv
000000000039d0a0 T _ZN8CVehicle23ActivateBombWhenEnteredEv
000000000039d11c T _ZN8CVehicle10CarHasRoofEv
000000000039d148 T _ZN8CVehicle13FlyingControlE12eFlightModel
000000000039e33c T _ZN8CVehicle16DoBladeCollisionE7CVectorR7CMatrixsff
000000000039e710 T _ZN8CVehicle18BladeColSectorListER8CPtrListR9CColModelR7CMatrixsf
000000000039eef8 T _Z14SetCompAlphaCBP10RpMaterialPv
000000000039ef00 T _ZN8CVehicle23SetComponentAtomicAlphaEP8RpAtomici
000000000039ef20 T _ZN8CVehicle16UpdateClumpAlphaEv
000000000039ef80 T _ZN8CVehicle18IsClearToDriveAwayEv
000000000039f080 T _ZN8CVehicle10DoSunGlareEv
000000000039f604 T _ZN8CVehicle30MakeNonDraggedPedsLeaveVehicleEP4CPedS1_RP10CPlayerPedRP7CCopPed
000000000039f950 T _ZN8CVehicle19UpdatePassengerListEv
000000000039f9a4 T _ZN8CVehicle16HeliDustGenerateEP7CEntityffi
000000000039fff4 T _ZN8CVehicle18DoFixedMachineGunsEv
00000000003a008c T _ZN8CVehicle20FireFixedMachineGunsEv
00000000003a051c T _ZN15CWaterCreatures9CreateOneERK7CVectori
00000000003a0910 T _ZN15CWaterCreatures28IsSpaceForMoreWaterCreaturesEv
00000000003a0928 T _ZN15CWaterCreatures20CalculateFishHeadingERK7CVectorS2_
00000000003a0a1c T _ZN15CWaterCreatures17CreateSeaLifeFormERK7CVectorti
00000000003a0b10 T _ZN15CWaterCreatures17GetFishStructSlotEv
00000000003a0bdc T _ZN14CWaterCreature8AllocateEP7CObjectfffj14eFishSlotState
00000000003a0bf4 T _ZN15CWaterCreatures9UpdateAllEv
00000000003a0f08 T _ZN15CWaterCreatures18FreeFishStructSlotEP14CWaterCreature
00000000003a0f1c T _ZN15CWaterCreatures9RemoveAllEv
00000000003a0fb8 T _ZN14CWaterCreature4FreeEv
00000000003a0fcc T _ZN14CWaterCreatureC1Ev
00000000003a0fcc T _ZN14CWaterCreatureC2Ev
00000000003a0fe0 T _ZN14CWaterCreatureD1Ev
00000000003a0fe0 T _ZN14CWaterCreatureD2Ev
00000000003a0fe4 T _ZN14CWaterCreatureC1EP7CObjectfffj
00000000003a0fe4 T _ZN14CWaterCreatureC2EP7CObjectfffj
00000000003a0ffc T _ZN14CWaterCreature10InitialiseEP7CObjectfffj14eFishSlotState
00000000003a1014 T _Z20WaterLevelInitialisePc
00000000003a1194 T _ZN11CWaterLevel16CreateWavyAtomicEv
00000000003a1860 T _ZN11CWaterLevel8ShutdownEv
00000000003a1900 T _ZN11CWaterLevel17DestroyWavyAtomicEv
00000000003a194c T _ZN11CWaterLevel13GetWaterLevelEfffPfb
00000000003a1a78 T _ZN11CWaterLevel20GetWaterLevelNoWavesEfffPf
00000000003a1adc T _ZN11CWaterLevel17GetWaterWavesOnlyEss
00000000003a1b68 T _ZN11CWaterLevel14GetWaterNormalEff
00000000003a1c94 T _Z10IsOnScreenRK7CVectorfb
00000000003a1d74 T _ZN11CWaterLevel11RenderWaterEv
00000000003a2bac T _ZN11CWaterLevel26RenderOneFlatHugeWaterPolyEfffRK6RwRGBA
00000000003a2d88 T _ZN11CWaterLevel31RenderOneFlatExtraHugeWaterPolyEfffRK6RwRGBA
00000000003a2f68 T _ZN11CWaterLevel26RenderAndEmptyRenderBufferEv
00000000003a2fd8 T _ZN11CWaterLevel14RenderSeaBirdsEv
00000000003a32f0 T _ZN11CWaterLevel20RenderShipsOnHorizonEv
00000000003a3664 T _ZN9CParticle25HandleShipsAtHorizonStuffEv
00000000003a36e4 T _ZN11CWaterLevel20HandleBeachToysStuffEv
00000000003a3fd0 T _ZN11CWaterLevel18HandleSeaLifeFormsEv
00000000003a42a8 T _ZN11CWaterLevel22RenderTransparentWaterEv
00000000003a4f4c T _ZN11CWaterLevel15RenderBoatWakesEv
00000000003a5288 T _ZN11CWaterLevel19RenderOneWavySectorEfffRK6RwRGBAb
00000000003a538c T _ZN11CWaterLevel34RenderOneFlatSmallWaterPolyBlendedEfffffRK6RwRGBAS2_f
00000000003a5740 W _ZN11CWaterLevel27RenderOneFlatLargeWaterPolyEfffRK6RwRGBA
00000000003a58ec T _ZN11CWaterLevel27RenderOneFlatSmallWaterPolyEfffRK6RwRGBA
00000000003a5a94 T _ZN11CWaterLevel14RenderWavyMaskEfffffffffRK6RwRGBA
00000000003a5df4 T _ZN11CWaterLevel20PreCalcWaterGeometryEv
00000000003a60c8 T _ZN11CWaterLevel17PreCalcWavySectorERK6RwRGBA
00000000003a6594 T _ZN11CWaterLevel15PreCalcWavyMaskEfffffffffRK6RwRGBA
00000000003a68f0 T _ZN11CWaterLevel29RenderOneSlopedUnderWaterPolyEfffRK6RwRGBA
00000000003a6cf0 T _ZN11CWaterLevel17RenderWakeSegmentER9CVector2DS1_S1_S1_RfS2_S2_S2_S2_
00000000003a7158 T _ZN11CWaterLevel19CalcDistanceToWaterEff
00000000003a72fc T _ZN11CWaterLevel14GetGroundLevelERK7CVectorPfP7ColDataf
00000000003a73c4 T _ZN11CWaterLevel17GetGroundLevel_WSERK7CVectorPfP7ColDataf
00000000003a74e4 T _ZN11CWaterLevel29IsLocationOutOfWorldBounds_WSERK7CVectori
00000000003a754c T _ZN11CWaterLevel13GetWaterDepthERK7CVectorPfS3_S3_
00000000003a76a4 T _ZN11CWaterLevel14CreateBeachToyERK7CVector9eBeachToy
00000000003a79b4 T _ZN11CBulletInfo10InitialiseEv
00000000003a79e4 T _ZN11CBulletInfo8ShutdownEv
00000000003a79e8 T _ZN11CBulletInfo9AddBulletEP7CEntity11eWeaponType7CVectorS3_
00000000003a7ab4 T _ZN11CBulletInfo6UpdateEv
00000000003a8834 T _ZN11CBulletInfo19TestForSniperBulletEffffff
00000000003a89d8 T _ZN10CExplosion10InitialiseEv
00000000003a8a64 T _ZN10CExplosion18ClearAllExplosionsEv
00000000003a8ab0 T _ZN10CExplosion8ShutdownEv
00000000003a8ae8 T _ZN10CExplosion25GetExplosionActiveCounterEh
00000000003a8b00 T _ZN10CExplosion27ResetExplosionActiveCounterEh
00000000003a8b18 T _ZN10CExplosion22DoesExplosionMakeSoundEh
00000000003a8b30 T _ZN10CExplosion16GetExplosionTypeEh
00000000003a8b48 T _ZN10CExplosion20GetExplosionPositionEh
00000000003a8b60 T _ZN10CExplosion12AddExplosionEP7CEntityS1_14eExplosionTypeRK7CVectorjhf
00000000003a9820 T _ZN10CExplosion6UpdateEv
00000000003aa260 T _ZN10CExplosion22TestForExplosionInAreaE14eExplosionTypeffffff
00000000003aa2e4 T _ZN10CExplosion25RemoveAllExplosionsInAreaE7CVectorf
00000000003aa36c T _ZN15CProjectileInfo10InitialiseEv
00000000003aa3cc T _ZN15CProjectileInfo8ShutdownEv
00000000003aa3d0 T _ZN15CProjectileInfo17GetProjectileInfoEi
00000000003aa3e8 T _ZN15CProjectileInfo13AddProjectileEP7CEntity11eWeaponType7CVectorf
00000000003aab2c T _ZN15CProjectileInfo26RemoveDetonatorProjectilesEv
00000000003aabd4 T _ZN15CProjectileInfo16RemoveProjectileEPS_P11CProjectile
00000000003aac9c T _ZN15CProjectileInfo12RemoveNotAddEP7CEntity11eWeaponType7CVector
00000000003aad30 T _ZN15CProjectileInfo6UpdateEv
00000000003ab268 T _ZN15CProjectileInfo19IsProjectileInRangeEffffffb
00000000003ab39c T _ZN15CProjectileInfo20RemoveAllProjectilesEv
00000000003ab418 T _ZN15CProjectileInfo25RemoveIfThisIsAProjectileEP7CObject
00000000003ab5c8 T _ZN9CShotInfo10InitialiseEv
00000000003ab644 T _ZN9CShotInfo8ShutdownEv
00000000003ab648 T _ZN9CShotInfo7AddShotEP7CEntity11eWeaponType7CVectorS3_
00000000003ab8e4 T _ZN9CShotInfo6UpdateEv
00000000003abbc4 T _ZN7CWeaponC1E11eWeaponTypei
00000000003abbc4 T _ZN7CWeaponC2E11eWeaponTypei
00000000003abc3c T _ZN7CWeapon6ReloadEv
00000000003abc94 T _ZN7CWeapon17InitialiseWeaponsEv
00000000003abcc4 T _ZN7CWeapon15ShutdownWeaponsEv
00000000003abce4 T _ZN7CWeapon13UpdateWeaponsEv
00000000003abd00 T _ZN7CWeapon10InitialiseE11eWeaponTypei
00000000003abdc8 T _ZN7CWeapon8ShutdownEv
00000000003abe2c T _ZN7CWeapon4FireEP7CEntityP7CVector
00000000003ac5c4 T _ZN7CWeapon11FireShotgunEP7CEntityP7CVector
00000000003ada64 T _ZN7CWeapon10FireSniperEP7CEntity
00000000003adc98 T _ZN7CWeapon14FireInstantHitEP7CEntityP7CVector
00000000003aefe8 T _ZN7CWeapon17FireM16_1stPersonEP7CEntity
00000000003af3fc T _ZN7CWeapon14FireProjectileEP7CEntityP7CVectorf
00000000003af7c8 T _ZN7CWeapon14FireAreaEffectEP7CEntityP7CVector
00000000003afa08 T _ZN7CWeapon14TakePhotographEP7CEntity
00000000003afccc T _ZN7CWeapon9FireMeleeEP7CEntityR7CVector
00000000003b12d0 T _ZN7CWeapon11FireFromCarEP8CVehiclebb
00000000003b13e4 T _ZN7CWeapon21FireInstantHitFromCarEP8CVehiclebb
00000000003b2000 T _ZN7CWeapon9FireMeleeEP7CEntityRK8CColLine
00000000003b2620 T _ZN7CWeapon18ProcessLineOfSightERK7CVectorS2_R9CColPointRP7CEntity11eWeaponTypeS6_bbbbbbb
00000000003b2650 T _ZN7CWeapon31CheckForShootingVehicleOccupantEPP7CEntityP9CColPoint11eWeaponTypeRK7CVectorS8_
00000000003b2ac4 T _ZN7CWeapon19DoDriveByAutoAimingEP7CEntityP8CVehicleP7CVectorS5_
00000000003b2e48 T _ZN9CParticle25HandleShootableBirdsStuffEP7CEntityRK7CVector
00000000003b3198 T _ZN7CWeapon12DoDoomAimingEP7CEntityP7CVectorS3_
00000000003b3480 T _ZN7CWeapon18MakePedsJumpAtShotEP9CPhysicalP7CVectorS3_
00000000003b35ec T _ZN7CWeapon18AddGunFlashBigGunsE7CVectorS0_
00000000003b3c94 T _ZN7CWeapon11AddGunshellEP7CEntityRK7CVectorRK9CVector2Df
00000000003b3e70 T _ZN7CWeapon14DoBulletImpactEP7CEntityS1_P7CVectorS3_P9CColPoint9CVector2D
00000000003b4fdc T _ZN7CWeapon21BlowUpExplosiveThingsEP7CEntity
00000000003b51b4 T _ZN7CWeapon29GenerateFlameThrowerParticlesE7CVectorS0_
00000000003b5350 T _ZN7CWeapon13LaserScopeDotEP7CVectorPf
00000000003b554c T _ZN7CWeapon16DoTankDoomAimingEP7CEntityS1_P7CVectorS3_
00000000003b5834 T _ZN7CWeapon6UpdateEiP4CPed
00000000003b5bd4 T _Z22FireOneInstantHitRoundP7CVectorS0_i
00000000003b60c0 T _ZN7CWeapon11IsTypeMeleeEv
00000000003b60e4 T _ZN7CWeapon13IsType2HandedEv
00000000003b6104 T _ZN7CWeapon10HitsGroundEP7CEntityP7CVectorS1_
00000000003b629c T _ZN7CWeapon21HasWeaponAmmoToBeUsedEv
00000000003b62c0 T _ZN4CPed25IsPedDoingDriveByShootingEv
00000000003b633c T _ZN14CWeaponEffectsC1Ev
00000000003b633c T _ZN14CWeaponEffectsC2Ev
00000000003b6348 T _ZN14CWeaponEffectsD1Ev
00000000003b6348 T _ZN14CWeaponEffectsD2Ev
00000000003b634c T _ZN14CWeaponEffects4InitEv
00000000003b63b4 T _ZN14CWeaponEffects8ShutdownEv
00000000003b63e0 T _ZN14CWeaponEffects10MarkTargetE7CVectorhhhhf
00000000003b6400 T _ZN14CWeaponEffects14ClearCrossHairEv
00000000003b6410 T _ZN14CWeaponEffects6RenderEv
00000000003b6528 T _ZN14CWeaponEffects13DrawCrossHairEjf
00000000003b6568 T _ZN11CWeaponInfo10InitialiseEv
00000000003b65c8 T _ZN11CWeaponInfo14LoadWeaponDataEv
00000000003b6b00 T _ZN11CWeaponInfo8ShutdownEv
00000000003b6b04 T _ZN11CWeaponInfo13GetWeaponInfoE11eWeaponType
00000000003b6b18 T _ZN11CWeaponInfo13GetWeaponNameE11eWeaponType
00000000003b6b28 T _ZN11CWeaponInfo14FindWeaponTypeEPc
00000000003b6b7c T _ZN11CWeaponInfo18FindWeaponFireTypeEPc
00000000003b6c40 T _Z16_rwCPUGetCPUNamePc
00000000003b6c48 T _Z13_rwCPUHaveMMXv
00000000003b6c50 T _Z13_rwCPUHaveSSEv
00000000003b6c58 T _Z14_rwCPUHaveSSE2v
00000000003b6c60 T _Z15_rwCPUHave3DNowv
00000000003b6c68 T _Z21_rwDataBlockMgrCreatev
00000000003b6d00 T _Z22_rwDataBlockMgrDestroyP14RwDataBlockMgr
00000000003b6d70 T _Z26_rwDataBlockMgrCreateBlockP14RwDataBlockMgrjPFvPvE
00000000003b6ee4 T _Z27_rwDataBlockMgrRecallBlocksP14RwDataBlockMgr17RwRecallDirection
00000000003b6f6c T _Z26_rwDataBlockMgrEmptyBlocksP14RwDataBlockMgr
00000000003b7014 T _Z17_rwRGBAFromImage8P6RwRGBAPKhPK7RwImagei
00000000003b70e4 T _Z18_rwRGBAFromImage32P6RwRGBAPKhPK7RwImagei
00000000003b73b0 T _Z21_rwImageFindAlphaTypeP7RwImage
00000000003b74bc T _Z31_rwImageFindNearestPaletteColorP6RwRGBAS0_i
00000000003b7538 T _Z25_rwImageSetFromRaster8888P7RwImagePhi
00000000003b7718 T _Z24_rwImageSetFromRaster888P7RwImagePhi
00000000003b78dc T _Z25_rwImageSetFromRaster4444P7RwImagePhi
00000000003b7ae4 T _Z25_rwImageSetFromRaster1555P7RwImagePhi
00000000003b7cd0 T _Z24_rwImageSetFromRaster565P7RwImagePhi
00000000003b7ef4 T _Z31_rwMipmapRasterSetFromImage8888PhiP7RwImagei
00000000003b803c T _Z30_rwMipmapRasterSetFromImage888PhiP7RwImagei
00000000003b8180 T _Z31_rwMipmapRasterSetFromImage4444PhiP7RwImagei
00000000003b82d4 T _Z31_rwMipmapRasterSetFromImage1555PhiP7RwImagei
00000000003b8424 T _Z30_rwMipmapRasterSetFromImage565PhiP7RwImagei
00000000003b856c T _Z25_rwRasterSetFromImage8888PhiP7RwImage
00000000003b8894 T _Z24_rwRasterSetFromImage888PhiP7RwImage
00000000003b8b8c T _Z25_rwRasterSetFromImage4444PhiP7RwImage
00000000003b8e58 T _Z25_rwRasterSetFromImage1555PhiP7RwImage
00000000003b9130 T _Z24_rwRasterSetFromImage565PhiP7RwImage
00000000003b93c0 T _Z19_rwPalQuantAddImageP10rwPalQuantP7RwImagef
00000000003b9934 T _Z25_rwPalQuantResolvePaletteP6RwRGBAiP10rwPalQuant
00000000003ba178 T _Z21_rwPalQuantMatchImagePhiiiP10rwPalQuantP7RwImage
00000000003ba518 T _Z15_rwPalQuantInitP10rwPalQuant
00000000003ba640 T _Z15_rwPalQuantTermP10rwPalQuant
00000000003bb02c T _Z23_rwOpenGLImageSetRasterPvS_i
00000000003bb948 T _Z23_rwOpenGLRasterSetImagePvS_i
00000000003bc0f4 T _Z19_rwOpenGLRGBToPixelPvS_i
00000000003bc1a4 T _Z19_rwOpenGLPixelToRGBPvS_i
00000000003bc25c T _Z30_rwOpenGLImageFindRasterFormatPvS_i
00000000003bcfb4 T _Z27_rwOpenGLIm2DSetSubmitFuncsii
00000000003bcff8 T _Z27_rwOpenGLIm2DSetVertexFuncsiii
00000000003bcffc T _Z17_rwOpenGLIm2DOpenP8RwDevice
00000000003bd148 T _Z18_rwOpenGLIm2DClosev
00000000003bd14c T _Z20GetRQFormatForRasterP8RwRaster
00000000003bd160 T _Z18_rwDeviceGetHandlev
00000000003bd16c T _Z26_rwOpenGLCameraBeginUpdatePvS_i
00000000003bd3d8 T _Z24_rwOpenGLCameraEndUpdatePvS_i
00000000003bd408 T _Z20_rwOpenGLCameraClearPvS_i
00000000003bd67c T _Z19_rwOpenGLRasterLockPvS_i
00000000003bda40 T _Z21_rwOpenGLRasterUnlockPvS_i
00000000003bdec4 T _Z26_rwOpenGLRasterLockPalettePvS_i
00000000003bdecc T _Z28_rwOpenGLRasterUnlockPalettePvS_i
00000000003bded4 T _Z27_rwOpenGLRasterGetMipLevelsPvS_i
00000000003bdf08 T _Z24_rwOpenGLGetRasterFormatPvS_i
00000000003be070 T _Z21_rwOpenGLNextPowerOf2j
00000000003be090 T _Z21_rwOpenGLRasterCreatePvS_i
00000000003be248 T _Z22_rwOpenGLRasterDestroyPvS_i
00000000003be334 T _Z25_rwOpenGLTextureSetRasterPvS_i
00000000003be344 T _Z24_rwOpenGLRasterSubRasterPvS_i
00000000003be3a4 T _Z13_rwOpenGLOpenv
00000000003be3ac T _Z14_rwOpenGLClosev
00000000003be3b0 T _Z29_rwOpenGLNativeTextureGetSizePvS_i
00000000003be444 T _Z20_rwSetES2TextureType12RwPlatformID
00000000003be474 T _Z20_rwGetES2TextureTypev
00000000003be484 T _Z27_rwOpenGLNativeTextureWritePvS_i
00000000003be5dc T _Z26_rwOpenGLNativeTextureReadPvS_i
00000000003be764 T _Z16rwIsDepthWriteOnv
00000000003be778 T _Z16rwIsAlphaBlendOnv
00000000003be784 T _Z25_rwOpenGLRenderStateClosev
00000000003be814 T _Z38_rwOpenGLInvalidateRStateCachedTexturev
00000000003be824 T _Z29_rwOpenGLSetActiveTextureUnith
00000000003be82c T _Z29_rwOpenGLGetActiveTextureUnitv
00000000003be834 T _Z31_rwOpenGLSetRenderStateNoExtras13RwRenderStatePv
00000000003beb90 T _Z23_rwOpenGLSetRenderState13RwRenderStatePv
00000000003bf5b4 T _Z23_rwOpenGLGetRenderState13RwRenderStatePv
00000000003bf6b8 T _Z30_rwOpenGLSetInitialRenderStatev
00000000003bfb28 T _Z23RwOpenGLSetStencilClearj
00000000003bfb44 T _Z23RwOpenGLGetStencilClearv
00000000003bfb50 T _Z27_rwOpenGLRasterRenderScaledPvS_i
00000000003bff74 T _Z21_rwOpenGLRasterRenderPvS_i
00000000003bff8c T _Z25_rwOpenGLRasterRenderFastPvS_i
00000000003bff98 T _Z24_rwOpenGLRasterClearRectPvS_i
00000000003c046c T _Z20_rwOpenGLRasterClearPvS_i
00000000003c04c8 T _Z25_rwOpenGLSetRasterContextPvS_i
00000000003c0718 T _Z21_rwOpenGLSetStandardsPPFiPvS_iEi
00000000003c07c0 T _Z35_rwOpenGLGetMaxSupportedTextureSizev
00000000003c07dc T _Z38_rwOpenGLGetMaxSupportedHardwareLightsv
00000000003c07f8 T _Z22_rwOpenGLApplyRwMatrixP11RwMatrixTag
00000000003c0894 T _Z25_rwOpenGLMatrixToRwMatrixPv
00000000003c0924 T _Z25_rwOpenGLDescribeMipLeveliiiiPiS_S_
00000000003c0974 T _Z29_rwOpenGLDetermineMaxMipLevelii
00000000003c0990 T _Z23_rwDeviceRegisterPluginv
00000000003c09d8 T _Z15_rwOpenGLSystemiPvS_i
00000000003c0b98 T _Z25_rwOpenGLRasterShowRasterPvS_i
00000000003c0bf8 T _Z30_rwOpenGLGetEngineWindowHeightv
00000000003c0bfc T _Z30_rwOpenGLGetEngineZBufferDepthv
00000000003c0c04 T _Z33_rwOpenGLSelectStencilBufferDepthh
00000000003c0c0c T _Z30_rwOpenGLGetStencilBufferDepthPh
00000000003c0c20 T _Z30_rwD3D8FindCorrectRasterFormat12RwRasterTypei
00000000003c0d20 T _Z17_rwD3D8PixelToRGBPvS_i
00000000003c0ef4 T _Z30_rwOpenGLNativeTextureReadD3D8PvS_
00000000003c1918 T _Z27dxtSwizzler_GetNativeFormatv
00000000003c194c T _Z28dxtSwizzler_InlineSwizzleATCjjjPKvRj
00000000003c1d1c T _Z22dxtSwizzler_SwizzlePVRjjPKv
00000000003c1ff8 T _Z37dxtSwizzler_CreateUncompressedTexturejjjPKvRj
00000000003c2678 W _Z31dxtSwizzler_DecodeDXTColorBlockPKhPtjbj
00000000003c2c44 T _Z30wrapped_glCompressedTexImage2DRP9RQTextureijiiiPKvb
00000000003c2ec8 T _Z12GetNumLevelsjj
00000000003c2f14 T _Z12GetNumPixelsjj
00000000003c2f58 T _Z15GetDataHasAlphaPhjj
00000000003c2fac T _Z13GetDataAsMipsPhjjb
00000000003c3360 T _Z17CreateTextureData12RwPlatformIDP8RwRaster
00000000003c336c T _Z21ReadTextureDataRasterjP8RwStreami
00000000003c359c T _Z10GetMipSizePK8RwRasterihjj
00000000003c35ec T _Z23CreateUncompressedImagePhhjjh
00000000003c3c1c W _Z19DecodeDXTColorBlockPKhPjjb
00000000003c4090 T _Z30_rwOpenGLNativeTextureReadXBOXPvS_
00000000003c4428 T emu_glReadPixels
00000000003c4534 T _Z22emu_CustomShaderCreatePKcS0_
00000000003c458c T _Z22emu_CustomShaderDeletePv
00000000003c45b8 T _Z19emu_CustomShaderSetPv
00000000003c45e8 T _Z19emu_GetCustomShaderv
00000000003c45f8 T _Z23emu_CustomShaderUniformPvjiPf
00000000003c4614 T _Z12emu_SetWaterh
00000000003c4634 T _Z16emu_SetWaterTimef
00000000003c4650 T _Z24emu_SetAdditionalShadingh
00000000003c4670 T _Z25emu_DebugDrawCallsEnabledh
00000000003c4680 T _Z24emu_DebugLightingEnabledh
00000000003c4690 T _Z25emu_DebugTexturingEnabledh
00000000003c46a0 T _Z25emu_DebugAlphaTestEnabledh
00000000003c46b0 T _Z29emu_DebugDrawWhenBlendEnabledh
00000000003c46d0 T _Z14SetGlobalColorffff
00000000003c4728 T _Z14GetGlobalColorv
00000000003c4734 T _Z19GetGlobalColorDirtyv
00000000003c4740 T _Z23GetImmediateVertexArrayv
00000000003c474c T _Z22GetImmediateColorArrayv
00000000003c475c T _Z25GetImmediateTexCoordArrayv
00000000003c476c T _Z23GetImmediateNormalArrayv
00000000003c477c T emu_glBegin
00000000003c47f8 T _Z15QueueImmCPUDatav
00000000003c48d0 T emu_glEnd
00000000003c4b4c T emu_glColor3b
00000000003c4c28 T emu_glColor3bv
00000000003c4d04 T emu_glColor3d
00000000003c4de8 T emu_glColor3dv
00000000003c4ecc T emu_glColor3f
00000000003c4fa4 T emu_glColor3fv
00000000003c5070 T emu_glColor3s
00000000003c5148 T emu_glColor3sv
00000000003c5220 T emu_glColor3ub
00000000003c52fc T emu_glColor3ubv
00000000003c53d8 T emu_glColor3us
00000000003c54b0 T emu_glColor3usv
00000000003c5588 T emu_glColor4b
00000000003c571c T emu_glColor4bv
00000000003c589c T emu_glColor4d
00000000003c59c8 T emu_glColor4dv
00000000003c5af8 T emu_glColor4f
00000000003c5c3c T emu_glColor4fv
00000000003c5d58 T emu_glColor4s
00000000003c5ecc T emu_glColor4sv
00000000003c6044 T emu_glColor4ub
00000000003c61d8 T emu_glColor4ubv
00000000003c6354 T emu_glColor4us
00000000003c64c8 T emu_glColor4usv
00000000003c6640 T emu_glTexCoord1d
00000000003c6704 T emu_glTexCoord1dv
00000000003c67c8 T emu_glTexCoord1f
00000000003c6888 T emu_glTexCoord1fv
00000000003c6948 T emu_glTexCoord1s
00000000003c6a04 T emu_glTexCoord1sv
00000000003c6ac0 T emu_glTexCoord2d
00000000003c6b90 T emu_glTexCoord2dv
00000000003c6c5c T emu_glTexCoord2f
00000000003c6d24 T emu_glTexCoord2fv
00000000003c6de4 T emu_glTexCoord2s
00000000003c6eb4 T emu_glTexCoord2sv
00000000003c6f84 T emu_glTexCoord3d
00000000003c7068 T emu_glTexCoord3dv
00000000003c714c T emu_glTexCoord3f
00000000003c7224 T emu_glTexCoord3fv
00000000003c72f0 T emu_glTexCoord3s
00000000003c73c8 T emu_glTexCoord3sv
00000000003c74a0 T emu_glTexCoord4d
00000000003c758c T emu_glTexCoord4dv
00000000003c765c T emu_glTexCoord4f
00000000003c7738 T emu_glTexCoord4fv
00000000003c7800 T emu_glTexCoord4s
00000000003c78e8 T emu_glTexCoord4sv
00000000003c79ac T emu_glVertex2d
00000000003c7a7c T emu_glVertex2dv
00000000003c7b48 T emu_glVertex2f
00000000003c7c10 T emu_glVertex2fv
00000000003c7cd0 T emu_glVertex2s
00000000003c7da0 T emu_glVertex2sv
00000000003c7e70 T emu_glVertex3d
00000000003c7f54 T emu_glVertex3dv
00000000003c8038 T emu_glVertex3f
00000000003c8110 T emu_glVertex3fv
00000000003c81dc T emu_glVertex3s
00000000003c82b4 T emu_glVertex3sv
00000000003c838c T emu_glVertex4d
00000000003c8478 T emu_glVertex4dv
00000000003c8548 T emu_glVertex4f
00000000003c8624 T emu_glVertex4fv
00000000003c86ec T emu_glVertex4s
00000000003c87d4 T emu_glVertex4sv
00000000003c8898 T emu_glNormal3b
00000000003c896c T emu_glNormal3bv
00000000003c8a40 T emu_glNormal3d
00000000003c8b24 T emu_glNormal3dv
00000000003c8c08 T emu_glNormal3f
00000000003c8ce0 T emu_glNormal3fv
00000000003c8dac T emu_glNormal3s
00000000003c8e84 T emu_glNormal3sv
00000000003c8f5c T _Z10GLTypeToRQj
00000000003c8f74 T emu_glColorMaterial
00000000003c8f78 T _Z15emu_ShutdownImmv
00000000003c8ff8 T _Z20GetMaterialParameterj
00000000003c9064 T _Z20GetMaterialShininessv
00000000003c9074 T _Z16GetMaterialDirtyv
00000000003c9084 T _Z16SetMaterialDirtyb
00000000003c9094 T _Z8GetLightj
00000000003c90ac T _Z14GetLightByType12EmuLightTypej
00000000003c90c4 T _Z19SetLightToTypeIndexP8EmuLightj
00000000003c9104 T _Z20GetAmbientLightColorv
00000000003c9110 T _Z20GetAmbientLightDirtyv
00000000003c911c T emu_glLightModelf
00000000003c9144 T emu_glLightModelfv
00000000003c9194 T emu_glLightModeli
00000000003c9198 T emu_glLightModeliv
00000000003c91f4 T emu_glLightf
00000000003c9250 T emu_glLightfv
00000000003c9540 T emu_glLighti
00000000003c95a0 T emu_glLightiv
00000000003c9670 T emu_glMaterialf
00000000003c96bc T emu_glMaterialfv
00000000003c97f8 T _Z24emu_LightingSetBackLighth
00000000003c9844 T _Z16GetAlphaModulatev
00000000003c9854 T _Z24emu_DisableAlphaModulatev
00000000003c986c T _Z23emu_EnableAlphaModulatef
00000000003c9a10 T _Z22GetCurrentObjectMatrixv
00000000003c9a2c T _Z26GetCurrentProjectionMatrixv
00000000003c9a48 T _Z23GetCurrentTextureMatrixv
00000000003c9a64 T emu_glMatrixMode
00000000003c9a90 T emu_glPushMatrix
00000000003c9ae4 T emu_glPushAndLoadMatrix
00000000003c9b7c T emu_glPopMatrix
00000000003c9ba8 T emu_glLoadIdentity
00000000003c9be8 T emu_glMultMatrixd
00000000003c9c8c W _ZN8RQMatrixmLERKS_
00000000003c9d64 T emu_glMultMatrixf
00000000003c9de0 T emu_glRotated
00000000003c9f30 T emu_glRotatef
00000000003ca070 T emu_glScaled
00000000003ca100 T emu_glScalef
00000000003ca18c T emu_glTranslated
00000000003ca1dc T emu_glTranslatef
00000000003ca220 T emu_glFrustum
00000000003ca310 T emu_glOrtho
00000000003ca3f4 T emu_glGetError
00000000003ca3fc T emu_glEnable
00000000003ca5c4 T emu_glDisable
00000000003ca78c T emu_glIsEnabled
00000000003ca848 T emu_glGetFloatv
00000000003ca894 T emu_glViewport
00000000003ca94c T _Z21emu_IsAltRenderTargetv
00000000003ca964 T emu_glClear
00000000003ca9a0 T emu_glClearColor
00000000003ca9b4 T emu_glClearDepth
00000000003ca9c4 T emu_glClearStencil
00000000003ca9d0 T emu_glScissor
00000000003ca9d4 T _Z16emu_IsAltDrawingv
00000000003ca9fc T _Z22emu_SetAltRenderTargetii
00000000003caae0 T _Z23emu_SetAltTargetTexturev
00000000003cab00 T _Z24emu_FlushAltRenderTargetv
00000000003cad80 T _Z20emu_SetAltRTContrastffffff
00000000003cae18 T _Z23emu_SwapAltRenderTargetv
00000000003cae48 T _Z23emu_BindAltRenderTargetv
00000000003caedc T _Z27emu_ShutdownAltRenderTargetv
00000000003caf44 T _Z25emu_TexturingSetTrilinearh
00000000003caf5c T _Z30emu_TexturingSetEnhancedDetailh
00000000003caf7c T _Z30emu_TexturingGetEnhancedDetailv
00000000003caf90 T _Z27emu_TextureSetDetailTexturePvj
00000000003cb014 T _Z30emu_TexturingSet4444Conversionh
00000000003cb030 T _Z30emu_TexturingGet4444Conversionv
00000000003cb040 T _Z14GLDrawModeToRQj
00000000003cb064 T _Z22emu_ArraysProcessQueueh
00000000003cb068 T _ZN17SharedGPUResource9ConstructEv
00000000003cb224 T _Z15emu_ArraysResetv
00000000003cb250 T _Z17emu_ArraysIndicesPvjj
00000000003cb298 T _Z16emu_ArraysVertexPvjjj
00000000003cb2cc T _Z22emu_ArraysVertexAttribjijhi
00000000003cb334 T _Z15emu_ArraysStorehh
00000000003cb394 T _Z14emu_ArraysLocky
00000000003cb3e4 T _Z16emu_ArraysUnlocky
00000000003cb430 T _Z20emu_ArraysDrawStoredyj
00000000003cb434 T _ZN10ArrayState4DrawEj
00000000003cb5d0 T _Z28emu_ArraysDrawStoredSeparateyyjjj
00000000003cb5e0 T _ZN10ArrayState13DrawWithIndexEPS_jjj
00000000003cb7a0 T _Z21emu_ArraysDrawCurrentj
00000000003cb7b4 T _Z16emu_ArraysDeletey
00000000003cb7e0 T _Z19emu_ArraysSetUseGPUh
00000000003cb7f0 T _Z23emu_ArraysShareResourceh
00000000003cb840 T _Z26emu_ArraysGetShareResourcev
00000000003cb850 T _ZN10ArrayStateC1ERKS_hh
00000000003cb850 T _ZN10ArrayStateC2ERKS_hh
00000000003cba74 W _ZN17SharedGPUResourceC2Ev
00000000003cbb68 T _ZN10ArrayStateD1Ev
00000000003cbb68 T _ZN10ArrayStateD2Ev
00000000003cbbcc W _ZN17SharedGPUResource11DecRefCountEv
00000000003cbcc8 T _ZN10ArrayState16SetupVertexStateEPS_b
00000000003cbdf0 T _ZN10ArrayState14SetupDrawStateEv
00000000003cbe9c W _ZN19PreallocatedBuffers15ForceDeallocateEP13RQIndexBufferP14RQVertexBuffer
00000000003cbfbc T _Z15IgnoredFunctionPKcS0_i
00000000003cbfc0 T _Z21UnimplementedFunctionPKcS0_i
00000000003cbfc4 T _Z12TodoFunctionPKcS0_i
00000000003cbfc8 T _Z12AssertFailedPKcS0_i
00000000003cbfcc T _Z14FunctionCalledPKcS0_
00000000003cbfd0 T _Z18PerformanceWarningPKciS0_
00000000003cbfe8 T _Z10EnumStringj
00000000003ce068 T _Z24emu_GetEnvMapCoefficientv
00000000003ce078 T _Z13emu_SetEnvMapPvf
00000000003ce0f8 T _Z15emu_ResetEnvMapv
00000000003ce110 T _Z25emu_SetCameraBasedNormalsh
00000000003ce130 T _Z21emu_SetCameraPositionPf
00000000003ce18c T _Z21emu_GetCameraPositionv
00000000003ce198 T _Z25emu_CameraPositionIsDirtyv
00000000003ce1a8 T _Z26emu_CameraPositionSetDirtyh
00000000003ce1b8 T _Z20emu_DistanceFogSetupfffff
00000000003ce228 T _Z25emu_DistanceFogSetEnabledh
00000000003ce248 T _Z23emu_DistanceFogGetColorv
00000000003ce254 T _Z28emu_DistanceFogGetParametersv
00000000003ce260 T _Z22emu_DistanceFogIsDirtyv
00000000003ce270 T _Z23emu_DistanceFogSetDirtyh
00000000003ce280 T _Z12emu_Shutdownv
00000000003ce298 T _Z22InitializeShaderClosetv
00000000003ce2d8 T _ZN9EmuShader12AssignShaderEv
00000000003ce5f4 T _ZN9EmuShader23ReevaluateLightingFlagsEv
00000000003ce7a0 T _ZN9EmuShader19EvaluateRenderFlagsEv
00000000003ce89c T _ZN9EmuShader6SelectEb
00000000003cee14 T _ZN9EmuShader16RecompileShadersEv
00000000003cee6c T _ZN9EmuShader9RecompileEv
00000000003cef38 T _ZN9EmuShaderC1Ej
00000000003cef38 T _ZN9EmuShaderC2Ej
00000000003cefd0 T _ZN9EmuShader16BuildPixelSourceEPcj
00000000003cf744 T _ZN9EmuShader17BuildVertexSourceEPcj
00000000003d0178 T _ZN9EmuShaderC1EPKcS1_
00000000003d0178 T _ZN9EmuShaderC2EPKcS1_
00000000003d01d4 T _ZN9EmuShaderD1Ev
00000000003d01d4 T _ZN9EmuShaderD2Ev
00000000003d0290 T _Z22emu_ShaderGetCurSourcePcS_
00000000003d02f0 T _Z21emu_ShaderListGetListPj
00000000003d0384 T _Z21emu_ShaderListCompilePjj
00000000003d044c T _Z19emu_ShutdownShadersv
00000000003d04b4 T _Z29emu_InternalSkinMatricesDirtyv
00000000003d04c4 T _Z26emu_InternalSkinClearDirtyv
00000000003d04d4 T _Z27emu_InternalSkinGetMatricesv
00000000003d04e0 T _Z30emu_InternalSkinGetVectorCountv
00000000003d04f4 T _Z19emu_SkinSetMatricesPfi
00000000003d0548 T _Z17_rwpathisabsolutePKc
00000000003d0584 T _Z17_rwgetcurrenttimePci
00000000003d0634 T _Z39RpHAnimHierarchySetFreeListCreateParamsii
00000000003d0648 T _Z19RpHAnimPluginAttachv
00000000003d0ea0 T _Z22RpHAnimHierarchyCreateiPjPi20RpHAnimHierarchyFlagi
00000000003d0fe8 T _Z23RpHAnimHierarchyDestroyP16RpHAnimHierarchy
00000000003d1084 T _Z34RpHAnimHierarchyCreateSubHierarchyP16RpHAnimHierarchyi20RpHAnimHierarchyFlagi
00000000003d1240 T _Z35RpHAnimHierarchyCreateFromHierarchyP16RpHAnimHierarchy20RpHAnimHierarchyFlagi
00000000003d13c0 T _Z22RpHAnimHierarchyAttachP16RpHAnimHierarchy
00000000003d14f8 T _Z22RpHAnimHierarchyDetachP16RpHAnimHierarchy
00000000003d152c T _Z32RpHAnimHierarchyAttachFrameIndexP16RpHAnimHierarchyi
00000000003d16bc T _Z32RpHAnimHierarchyDetachFrameIndexP16RpHAnimHierarchyi
00000000003d16d4 T _Z30RpHAnimHierarchyGetMatrixArrayP16RpHAnimHierarchy
00000000003d16dc T _Z24RpHAnimFrameSetHierarchyP7RwFrameP16RpHAnimHierarchy
00000000003d170c T _Z24RpHAnimFrameGetHierarchyP7RwFrame
00000000003d1724 T _Z17RpHAnimFrameSetIDP7RwFramei
00000000003d1740 T _Z17RpHAnimFrameGetIDP7RwFrame
00000000003d1754 T _Z17RpHAnimIDGetIndexP16RpHAnimHierarchyi
00000000003d1788 T _Z30RpHAnimHierarchyUpdateMatricesP16RpHAnimHierarchy
00000000003d1f04 T _Z20RpHAnimKeyFrameApplyPvS_
00000000003d1fc8 T _Z26RpHAnimKeyFrameInterpolatePvS_S_f
00000000003d24b8 T _Z20RpHAnimKeyFrameBlendPvS_S_f
00000000003d2994 T _Z25RpHAnimKeyFrameStreamReadP8RwStreamP15RtAnimAnimation
00000000003d2a90 T _Z26RpHAnimKeyFrameStreamWriteP15RtAnimAnimationP8RwStream
00000000003d2b4c T _Z28RpHAnimKeyFrameStreamGetSizeP15RtAnimAnimation
00000000003d2b5c T _Z23RpHAnimKeyFrameMulRecipPvS_
00000000003d2c28 T _Z18RpHAnimKeyFrameAddPvS_S_
00000000003d2d30 T _Z23_rpMatFXPipelinesCreatev
00000000003d2e20 T _Z34_rpMatFXOpenGLAtomicPipelineCreatev
00000000003d3470 T _Z24_rpMatFXPipelinesDestroyv
00000000003d34d8 T _Z27_rpMatFXPipelineAtomicSetupP8RpAtomic
00000000003d34e8 T _Z32_rpMatFXPipelineWorldSectorSetupP13RpWorldSector
00000000003d34f8 T _Z27_rpMatFXSetupBumpMapTexturePK9RwTextureS1_
00000000003d34fc T _Z28_rpMatFXSetupDualRenderStateP13MatFXDualData13RwRenderState
00000000003d3504 T _Z24RpMatFXGetOpenGLPipeline21RpMatFXOpenGLPipeline
00000000003d3534 T _Z30_rpMatFXOpenGLAllInOneRenderCBP10RwResEntryPvhj
00000000003d36cc T _Z27_rpMatFXOpenGLDefaultRenderP24RxOpenGLMeshInstanceDataP9RwTexturej
00000000003d3750 T _Z27_rpMultiTexturePluginAttachv
00000000003d382c T _Z37_rpMaterialRegisterMultiTexturePlugin12RwPlatformIDjj
00000000003d3f3c T _Z28RpMultiTextureGetNumTexturesPK14RpMultiTexture
00000000003d3f44 T _Z23RpMultiTextureSetEffectP14RpMultiTextureP10RpMTEffect
00000000003d3f84 T _Z23RpMultiTextureGetEffectPK14RpMultiTexture
00000000003d3f8c T _Z24RpMultiTextureSetTextureP14RpMultiTexturejP9RwTexture
00000000003d3fe0 T _Z24RpMultiTextureGetTexturePK14RpMultiTexturej
00000000003d3fec T _Z23RpMultiTextureSetCoordsP14RpMultiTexturejj
00000000003d3ff8 T _Z23RpMultiTextureGetCoordsPK14RpMultiTexturej
00000000003d4004 T _Z28RpMaterialCreateMultiTextureP10RpMaterial12RwPlatformIDj
00000000003d41f8 T _Z29RpMaterialDestroyMultiTextureP10RpMaterial12RwPlatformID
00000000003d42a4 T _Z25RpMaterialGetMultiTexturePK10RpMaterial12RwPlatformID
00000000003d42d4 T _Z35RpMaterialQueryMultiTexturePlatform12RwPlatformID
00000000003d42f0 T _Z21_rpMTEffectSystemInitv
00000000003d4334 T _Z27_rpMTEffectRegisterPlatform12RwPlatformIDPFP10RpMTEffectP8RwStreamS_jjEPFPKS0_S7_S3_EPFiS7_EPFvS1_E
00000000003d4358 T _Z15_rpMTEffectOpenv
00000000003d453c T _Z20RpMTEffectDictCreatev
00000000003d45f8 T _Z21RpMTEffectDictDestroyP14RpMTEffectDict
00000000003d4684 T _Z16_rpMTEffectClosev
00000000003d4788 T _Z15_rpMTEffectInitP10RpMTEffect12RwPlatformID
00000000003d47f4 T _Z23RpMTEffectDictAddEffectP14RpMTEffectDictP10RpMTEffect
00000000003d48ac T _Z17RpMTEffectSetPathPKc
00000000003d49dc T _Z17RpMTEffectGetPathv
00000000003d4a00 T _Z27RpMTEffectDictStreamGetSizePK14RpMTEffectDict
00000000003d4a98 T _Z23RpMTEffectStreamGetSizePK10RpMTEffect
00000000003d4ae4 T _Z25RpMTEffectDictStreamWritePK14RpMTEffectDictP8RwStream
00000000003d4c4c T _Z21RpMTEffectStreamWritePK10RpMTEffectP8RwStream
00000000003d4d64 T _Z24RpMTEffectDictStreamReadP8RwStream
00000000003d4fd4 T _Z20RpMTEffectStreamReadP8RwStream
00000000003d50e0 T _Z17RpMTEffectDestroyP10RpMTEffect
00000000003d5140 T _Z26RpMTEffectDictRemoveEffectP10RpMTEffect
00000000003d51cc T _Z32RpMTEffectDictForAllDictionariesPFP14RpMTEffectDictS0_PvES1_
00000000003d523c T _Z27RpMTEffectDictForAllEffectsPK14RpMTEffectDictPFP10RpMTEffectS3_PvES4_
00000000003d5290 T _Z16RpMTEffectAddRefP10RpMTEffect
00000000003d52a0 T _Z29RpMTEffectDictFindNamedEffectPK14RpMTEffectDictPKc
00000000003d5304 T _Z24RpMTEffectDictSetCurrentP14RpMTEffectDict
00000000003d5328 T _Z24RpMTEffectDictGetCurrentv
00000000003d534c T _Z21RpMTEffectCreateDummyv
00000000003d53f4 T _Z17RpMTEffectSetNameP10RpMTEffectPc
00000000003d5430 T _Z14RpMTEffectFindPc
00000000003d55a0 T _Z15RpMTEffectWritePK10RpMTEffect
00000000003d55f8 T _Z17RpMTEffectGetNameP10RpMTEffect
00000000003d5600 T _Z42RpMatFXMaterialDataSetFreeListCreateParamsii
00000000003d5614 T _Z26_rpMatFXStreamWriteTextureP8RwStreamPK9RwTexture
00000000003d56a0 T _Z25_rpMatFXStreamReadTextureP8RwStreamPP9RwTexture
00000000003d5770 T _Z25_rpMatFXStreamSizeTexturePK9RwTexture
00000000003d5794 T _Z25_rpMatFXTextureMaskCreatePK9RwTextureS1_
00000000003d5a24 T _Z19RpMatFXPluginAttachv
00000000003d6b98 T _Z26RpMatFXAtomicEnableEffectsP8RpAtomic
00000000003d6bd8 T _Z25RpMatFXAtomicQueryEffectsP8RpAtomic
00000000003d6be8 T _Z31RpMatFXWorldSectorEnableEffectsP13RpWorldSector
00000000003d6c28 T _Z30RpMatFXWorldSectorQueryEffectsP13RpWorldSector
00000000003d6c38 T _Z25RpMatFXMaterialSetEffectsP10RpMaterial20RpMatFXMaterialFlags
00000000003d6e6c T _Z32RpMatFXMaterialSetDualBlendModesP10RpMaterial15RwBlendFunctionS1_
00000000003d6eec T _Z27RpMatFXMaterialSetupBumpMapP10RpMaterialP9RwTextureP7RwFramef
00000000003d6fc0 T _Z32RpMatFXMaterialSetBumpMapTextureP10RpMaterialP9RwTexture
00000000003d71b8 T _Z30RpMatFXMaterialSetBumpMapFrameP10RpMaterialP7RwFrame
00000000003d7208 T _Z36RpMatFXMaterialSetBumpMapCoefficientP10RpMaterialf
00000000003d7258 T _Z26RpMatFXMaterialSetupEnvMapP10RpMaterialP9RwTextureP7RwFrameif
00000000003d73c0 T _Z31RpMatFXMaterialSetEnvMapTextureP10RpMaterialP9RwTexture
00000000003d7450 T _Z29RpMatFXMaterialSetEnvMapFrameP10RpMaterialP7RwFrame
00000000003d74a0 T _Z40RpMatFXMaterialSetEnvMapFrameBufferAlphaP10RpMateriali
00000000003d74f0 T _Z35RpMatFXMaterialSetEnvMapCoefficientP10RpMaterialf
00000000003d7540 T _Z31RpMatFXMaterialSetupDualTextureP10RpMaterialP9RwTexture15RwBlendFunctionS3_
00000000003d7650 T _Z29RpMatFXMaterialSetDualTextureP10RpMaterialP9RwTexture
00000000003d76f4 T _Z25RpMatFXMaterialGetEffectsPK10RpMaterial
00000000003d7718 T _Z38RpMatFXMaterialGetBumpMapBumpedTexturePK10RpMaterial
00000000003d7768 T _Z32RpMatFXMaterialGetBumpMapTexturePK10RpMaterial
00000000003d77b8 T _Z30RpMatFXMaterialGetBumpMapFramePK10RpMaterial
00000000003d7808 T _Z36RpMatFXMaterialGetBumpMapCoefficientPK10RpMaterial
00000000003d7858 T _Z31RpMatFXMaterialGetEnvMapTexturePK10RpMaterial
00000000003d78a8 T _Z29RpMatFXMaterialGetEnvMapFramePK10RpMaterial
00000000003d78f8 T _Z40RpMatFXMaterialGetEnvMapFrameBufferAlphaPK10RpMaterial
00000000003d7948 T _Z35RpMatFXMaterialGetEnvMapCoefficientPK10RpMaterial
00000000003d7998 T _Z29RpMatFXMaterialGetDualTexturePK10RpMaterial
00000000003d79e8 T _Z32RpMatFXMaterialGetDualBlendModesPK10RpMaterialP15RwBlendFunctionS3_
00000000003d7a40 T _rpSkinGetMeshBoneRemapIndices
00000000003d7a48 T _rpSkinGetMeshBoneRLECount
00000000003d7a50 T _rpSkinGetMeshBoneRLE
00000000003d7a58 T _rpSkinSplitDataCreate
00000000003d7b20 T _rpSkinSplitDataDestroy
00000000003d7b70 T _Z27_rpSkinSplitDataStreamWriteP8RwStreamPK6RpSkin
00000000003d7bf8 T _Z26_rpSkinSplitDataStreamReadP8RwStreamP6RpSkin
00000000003d7d54 T _Z29_rpSkinSplitDataStreamGetSizePK6RpSkin
00000000003d7d7c T _Z11UseSkinningPK10RpGeometry
00000000003d7dcc T _Z23_rpSkinPipelinesDestroyv
00000000003d7e30 T _rpSkinInitialize
00000000003d7f80 T _rpSkinDeinitialize
00000000003d7fc8 T _Z25_rpSkinGeometryNativeSizePK10RpGeometry
00000000003d7fe8 T _Z26_rpSkinGeometryNativeWriteP8RwStreamPK10RpGeometry
00000000003d80c0 T _Z25_rpSkinGeometryNativeReadP8RwStreamP10RpGeometry
00000000003d8214 T _Z27_rpSkinOpenGLPipelineCreate10RpSkinTypePFvP10RwResEntryPvhjE
00000000003d8b84 T _Z32_rpSkinOpenGLPrepareAtomicMatrixP8RpAtomicP6RpSkinP16RpHAnimHierarchy
00000000003d8c20 T _Z38_rpSkinOpenGLSkinPlatformGetMaxWeightsPK6RpSkin
00000000003d8ccc T _Z22_rpSkinPipelinesCreatej
00000000003d8d24 T _Z22_rpSkinPipelinesAttachP8RpAtomic10RpSkinType
00000000003d8d90 T RpSkinGetOpenGLPipeline
00000000003d8da8 T _Z26_rpSkinPrepareAtomicMatrixP8RpAtomicP6RpSkinP16RpHAnimHierarchy
00000000003d8f54 T _Z36_rpSkinPrepareAtomicMatrixWorldSpaceP8RpAtomicP6RpSkinP16RpHAnimHierarchy
00000000003d90d0 T _Z25_rpSkinGenericMatrixBlendiPK15RwMatrixWeightsPKjPK11RwMatrixTagPhPK5RwV3dS7_SA_j
00000000003d96c0 T RpSkinSetFreeListCreateParams
00000000003d96d4 T _Z28_rpSkinGetAlignedMatrixCachev
00000000003d96e4 T RpSkinPluginAttach
00000000003da19c T RpSkinAtomicSetHAnimHierarchy
00000000003da1b0 T RpSkinAtomicGetHAnimHierarchy
00000000003da1c4 T RpSkinGeometryGetSkin
00000000003da1d8 T RpSkinGeometrySetSkin
00000000003da244 T RpSkinCreate
00000000003da590 T RpSkinDestroy
00000000003da5e8 T RpSkinGetNumBones
00000000003da5f0 T RpSkinGetVertexBoneWeights
00000000003da5f8 T RpSkinGetVertexBoneIndices
00000000003da600 T RpSkinGetSkinToBoneMatrices
00000000003da608 T RpSkinIsSplit
00000000003da618 T RpSkinAtomicSetType
00000000003da670 T RpSkinAtomicGetType
00000000003da734 T _Z18ATCConvertFromDXT1iiPv
00000000003da87c T _Z19ATCConvertFromDXT1AiiPv
00000000003dab00 T _Z18ATCConvertFromDXT3iiPv
00000000003dac48 T _Z18ATCConvertFromDXT5iiPv
00000000003dad90 T _Z22RQVertexAttrFormatToGL23RQVertexAttributeFormat
00000000003dadb0 T _ZN14RQVertexBuffer6CreateEPKvj
00000000003dae78 T _ZN14RQVertexBuffer7SetSafeEv
00000000003daf20 T _Z31RQ_Command_rqVertexBufferCreateRPc
00000000003daf58 T _Z31RQ_Command_rqVertexBufferSelectRPc
00000000003daf9c T _Z31RQ_Command_rqVertexBufferUpdateRPc
00000000003dafd8 T _Z28RQ_Command_rqVertexBufferCPURPc
00000000003db004 T _Z31RQ_Command_rqVertexBufferDeleteRPc
00000000003db054 T _ZN13RQIndexBuffer6CreateE19RQIndexBufferFormatPKvj
00000000003db124 T _ZN13RQIndexBuffer7SetSafeEv
00000000003db1cc T _Z30RQ_Command_rqIndexBufferCreateRPc
00000000003db204 T _Z30RQ_Command_rqIndexBufferSelectRPc
00000000003db244 T _Z30RQ_Command_rqIndexBufferUpdateRPc
00000000003db280 T _Z27RQ_Command_rqIndexBufferCPURPc
00000000003db2ac T _Z30RQ_Command_rqIndexBufferDeleteRPc
00000000003db2fc T _ZN13RQVertexState6CreateEP14RQVertexBufferP13RQIndexBufferP25RQVertexBufferDescription
00000000003db3d0 T _Z30RQ_Command_rqVertexStateCreateRPc
00000000003db3e0 T _Z29RQ_Command_rqVertexStateApplyRPc
00000000003db3f0 T _Z30RQ_Command_rqVertexStateDeleteRPc
00000000003db414 T _Z33RQ_Command_rqSetVertexDescriptionRPc
00000000003db584 T _Z24RQ_Command_rqDrawIndexedRPc
00000000003db7ec T _Z27RQ_Command_rqDrawNonIndexedRPc
00000000003db8c8 W _ZN14RQVertexBufferD2Ev
00000000003db8cc W _ZN15ES2VertexBufferD0Ev
00000000003db8d0 W _ZN13RQIndexBufferD2Ev
00000000003db8d4 W _ZN14ES2IndexBufferD0Ev
00000000003db8d8 W _ZN13RQVertexStateD2Ev
00000000003db8dc W _ZN14ES2VertexStateD0Ev
00000000003db8e0 T _Z16GetGLErrorStringj
00000000003db954 T _Z13RQ_CheckErrorPKcS0_i
00000000003db97c T _Z17RQ_Command_rqInitRPc
00000000003dbc78 T _Z21RQ_Command_rqShutdownRPc
00000000003dbca4 T _Z11RQGetVendorv
00000000003dbcb4 T _Z13RQGetRendererv
00000000003dbcc4 T _Z23RQ_Command_rqReadPixelsRPc
00000000003dbd14 T _Z24RQ_Command_rqSwapBuffersRPc
00000000003dbd18 T _Z24RQ_Command_rqDebugMarkerRPc
00000000003dbd24 T _ZN18ES2RQShaderBinding5SetupEjPKc
00000000003dbd50 W _ZN8TDBArrayI16RQCompiledShaderED2Ev
00000000003dbd84 T _Z25GetCompiledShaderWithCodePKcR8TDBArrayI16RQCompiledShaderE
00000000003dbdd0 T _Z16OutputShaderCodePKc
00000000003dbecc T _ZN9ES2Shader12CheckCompileEjjPKc
00000000003dc058 T _ZN9ES2Shader22InitializeAfterCompileEv
00000000003dc2fc T _ZN9ES2Shader9SetActiveEv
00000000003dc344 T _ZN9ES2ShaderD1Ev
00000000003dc344 T _ZN9ES2ShaderD2Ev
00000000003dc3bc T _ZN9ES2ShaderD0Ev
00000000003dc3e0 T _ZN9ES2Shader5BuildEPKcS1_
00000000003dc910 T _ZN9ES2Shader17SetVectorConstantE24RQShaderVectorConstantIDPKfi
00000000003dcad8 T _ZN9ES2Shader17SetColorAttributeEPKf
00000000003dcaf4 T _ZN9ES2Shader17SetMatrixConstantE24RQShaderMatrixConstantIDPKf
00000000003dcb68 T _ZN9ES2Shader16SetBonesConstantEiPKf
00000000003dcc5c T _ZN9ES2Shader6SelectEv
00000000003dcf38 W _ZN16ES2VectorBinding5ApplyEj
00000000003dd08c T _Z14RQCreateShaderPKcS0_
00000000003dd318 T _Z14RQDeleteShaderP8RQShader
00000000003dd398 T _Z10strreplacePcPKcS1_
00000000003dd3fc T _Z24RQ_Command_rqBuildShaderRPc
00000000003dd54c T _Z25RQ_Command_rqSelectShaderRPc
00000000003dd808 T _Z25RQ_Command_rqDeleteShaderRPc
00000000003dd898 T _Z20GLFactorFromRQFactor13RQBlendFactor
00000000003dd8bc T _Z17GLDepthFuncFromRQ11RQDepthFunc
00000000003dd8d0 T _Z24RQ_Command_rqEnableBlendRPc
00000000003dd8ec T _Z28RQ_Command_rqEnableDepthReadRPc
00000000003dd908 T _Z29RQ_Command_rqEnableDepthWriteRPc
00000000003dd924 T _Z22RQ_Command_rqBlendFuncRPc
00000000003dd984 T _Z22RQ_Command_rqDepthFuncRPc
00000000003dd9a8 T _Z20RQ_Command_rqSetCullRPc
00000000003dda30 T _Z25RQ_Command_rqSetAlphaTestRPc
00000000003ddb74 T _Z18GetES2TargetFormatP14RQRenderTarget
00000000003ddb88 T _ZN9RQTexture6CreateE15RQTextureFormatjjb
00000000003ddc58 T _ZN9RQTexture6DeleteEPS_
00000000003ddd1c T _Z24RQ_Command_rqInitTextureRPc
00000000003dde00 T _Z26RQ_Command_rqDeleteTextureRPc
00000000003dde24 T _Z26RQ_Command_rqSelectTextureRPc
00000000003ddeac T _Z27RQ_Command_rqTextureMipModeRPc
00000000003ddf70 T _Z25RQ_Command_rqTextureAnisoRPc
00000000003de028 T _Z24RQ_Command_rqTextureWrapRPc
00000000003de110 T _Z23RQ_Command_rqTextureMipRPc
00000000003de478 T _Z13DXTDecompressjjjPKvPvRj
00000000003deb68 T _ZN14RQRenderTarget6CreateEjj17RQTargetColorType17RQTargetDepthType
00000000003dec88 T _ZN14RQRenderTarget6SelectEPS_
00000000003ded20 T _ZN14RQRenderTarget6DeleteEPS_
00000000003deddc T _Z25RQ_Command_rqTargetCreateRPc
00000000003df068 T _Z25RQ_Command_rqTargetSelectRPc
00000000003df144 T _Z25RQ_Command_rqTargetDeleteRPc
00000000003df1b4 T _Z27RQ_Command_rqTargetViewportRPc
00000000003df1f0 T _Z26RQ_Command_rqTargetScissorRPc
00000000003df288 T _Z24RQ_Command_rqTargetClearRPc
00000000003df38c W _ZN10ES2TextureD2Ev
00000000003df634 W _ZN10ES2TextureD0Ev
00000000003df658 W _ZN10ES2Texture9UploadMipEjPKv
00000000003df7d0 W _ZN10ES2Texture6SelectEj
00000000003df874 T _ZN11RenderQueueC1Ev
00000000003df874 T _ZN11RenderQueueC2Ev
00000000003dfed0 T _Z17RQ_Command_rqFreeRPc
00000000003dfee4 T _Z17RQ_Command_rqCopyRPc
00000000003dff14 T _Z33RQ_Command_rqAndroidCreateSurfaceRPc
00000000003dff18 T _Z34RQ_Command_rqAndroidDestroySurfaceRPc
00000000003dff1c T _ZN11RenderQueueD1Ev
00000000003dff1c T _ZN11RenderQueueD2Ev
00000000003dff6c T _ZN11RenderQueue14ProcessCommandEPc
00000000003dffc8 T _ZN11RenderQueue5ResetEv
00000000003e002c T _ZN11RenderQueue7ProcessEv
00000000003e00d8 T _ZN11RenderQueue5FlushEv
00000000003e00f4 T _ZN11RenderQueue10InitializeEv
00000000003e0364 T _ZN11RenderQueue4KillEv
00000000003e03cc T _ZN11RenderQueue11ApplyQueuedEv
00000000003e0434 T _ZN11RenderQueue12QueueCommandE9RQCommand
00000000003e045c T _ZN11RenderQueue9QueueDataEPKvj
00000000003e049c T _ZN11RenderQueue11QueueMallocEj
00000000003e04b0 T _ZN11RenderQueue10PrepareForEj
00000000003e04e0 T _ZN11RenderQueue7HasFreeEj
00000000003e04fc T _Z14RQ_CheckThreadv
00000000003e0500 T _Z35AND_RenderThread_OnCreateEglSurfacev
00000000003e05b8 T _Z36AND_RenderThread_OnDestroyEglSurfacev
00000000003e0670 T _ZN14RQVertexBuffer6UpdateEPKvj
00000000003e0734 T _ZN14RQVertexBuffer3SetEPS_
00000000003e0814 T _ZN13RQVertexState5ApplyEPS_
00000000003e08d8 T _ZN14RQVertexBuffer3SetEPKvjPFvvE
00000000003e0a14 T _ZN14RQVertexBuffer6DeleteEPS_
00000000003e0ad0 T _ZN13RQIndexBuffer6UpdateEPKvj
00000000003e0b98 T _ZN13RQIndexBuffer3SetEPS_
00000000003e0c68 T _ZN13RQIndexBuffer3SetEPKvj
00000000003e0d88 T _ZN13RQIndexBuffer6DeleteEPS_
00000000003e0e44 T _Z16RQSetDescriptionRK25RQVertexBufferDescription
00000000003e0f70 T _ZN13RQVertexState6DeleteEPS_
00000000003e1030 T _Z13RQDrawIndexedP8RQShader10RQDrawModejPv
00000000003e10f0 T _Z16RQDrawNonIndexedP8RQShader10RQDrawModejj
00000000003e11b0 T _ZeqRK8RQMatrixS1_
00000000003e11f8 T _ZneRK8RQMatrixS1_
00000000003e1240 T _ZN9RQTexture8SetAnisoE11RQAnisoMode
00000000003e12f8 T _ZN9RQTexture7SetWrapE10RQWrapModeS0_
00000000003e13c0 T _ZN9RQTexture10SetMipModeE9RQMipMode
00000000003e1474 T _ZNK9RQTexture16GetMipDimensionsEjRiS0_
00000000003e151c T _ZNK9RQTexture10GetMipSizeEj
00000000003e16a0 T _ZNK9RQTexture16GetNumComponentsEv
00000000003e16c4 T _ZN14RQRenderTarget8ViewportEiijj
00000000003e1794 T _ZN14RQRenderTarget5ClearEjPffi
00000000003e1870 W _ZN9RQTextureD2Ev
00000000003e1874 W _ZN9RQTextureD0Ev
00000000003e1878 T _Z15RwBBoxCalculateP6RwBBoxPK5RwV3di
00000000003e1944 T _Z16RwBBoxInitializeP6RwBBoxPK5RwV3d
00000000003e1968 T _Z14RwBBoxAddPointP6RwBBoxPK5RwV3d
00000000003e19e4 T _Z19RwBBoxContainsPointPK6RwBBoxPK5RwV3d
00000000003e1a64 T _Z28RwCameraRegisterPluginStreamjPFP8RwStreamS0_iPviiEPFS0_S0_iPKviiEPFiS5_iiE
00000000003e1a84 T _Z31RwCameraSetStreamAlwaysCallBackjPFiPviiE
00000000003e1a9c T _Z21RwCameraStreamGetSizePK8RwCamera
00000000003e1ac0 T _Z19RwCameraStreamWritePK8RwCameraP8RwStream
00000000003e1c00 T _Z18RwCameraStreamReadP8RwStream
00000000003e1d7c T _Z21RwCameraChunkInfoReadP8RwStreamP14rwStreamCameraPi
00000000003e1e70 T _Z27RwFrameRegisterPluginStreamjPFP8RwStreamS0_iPviiEPFS0_S0_iPKviiEPFiS5_iiE
00000000003e1e90 T _Z30RwFrameSetStreamAlwaysCallBackjPFiPviiE
00000000003e1ea8 T _Z22_rwFrameListInitializeP11rwFrameListP7RwFrame
00000000003e1fc4 T _Z21_rwFrameListFindFramePK11rwFrameListPK7RwFramePi
00000000003e2004 T _Z24_rwFrameListDeinitializeP11rwFrameList
00000000003e204c T _Z25_rwFrameListStreamGetSizePK11rwFrameList
00000000003e20c0 T _Z23_rwFrameListStreamWritePK11rwFrameListP8RwStream
00000000003e2320 T _Z22_rwFrameListStreamReadP8RwStreamP11rwFrameList
00000000003e25f4 T _Z16_rwStringDestroyPc
00000000003e261c T _Z22_rwStringStreamGetSizePKc
00000000003e2658 T _Z20_rwStringStreamWritePKcP8RwStream
00000000003e26e0 T _Z26_rwStringStreamFindAndReadPcP8RwStream
00000000003e2a6c T _Z29RwTextureRegisterPluginStreamjPFP8RwStreamS0_iPviiEPFS0_S0_iPKviiEPFiS5_iiE
00000000003e2a8c T _Z32RwTextureSetStreamAlwaysCallBackjPFiPviiE
00000000003e2aa4 T _Z22RwTextureStreamGetSizePK9RwTexture
00000000003e2b14 T _Z20RwTextureStreamWritePK9RwTextureP8RwStream
00000000003e2ce8 T _Z19RwTextureStreamReadP8RwStream
00000000003e2eb8 T _Z35RwTexDictionaryRegisterPluginStreamjPFP8RwStreamS0_iPviiEPFS0_S0_iPKviiEPFiS5_iiE
00000000003e2ed8 T _Z38RwTexDictionarySetStreamAlwaysCallBackjPFiPviiE
00000000003e2ef0 T _Z28RwTexDictionaryStreamGetSizePK15RwTexDictionary
00000000003e3038 T _Z26RwTexDictionaryStreamWritePK15RwTexDictionaryP8RwStream
00000000003e3290 T _Z25RwTexDictionaryStreamReadP8RwStream
00000000003e34c0 T _Z23_rwTextureChunkInfoReadP8RwStreamP18rpTextureChunkInfoPi
00000000003e359c T _Z14_rwCameraClosePvii
00000000003e3604 T _Z31RwCameraSetFreeListCreateParamsii
00000000003e3618 T _Z13_rwCameraOpenPvii
00000000003e36a8 T _Z17RwCameraEndUpdateP8RwCamera
00000000003e36b0 T _Z19RwCameraBeginUpdateP8RwCamera
00000000003e36b8 T _Z21RwCameraSetViewOffsetP8RwCameraPK5RwV2d
00000000003e36f0 T _Z24RwCameraSetNearClipPlaneP8RwCameraf
00000000003e379c T _Z23RwCameraSetFarClipPlaneP8RwCameraf
00000000003e3848 T _Z25RwCameraFrustumTestSpherePK8RwCameraPK8RwSphere
00000000003e3954 T _Z13RwCameraClearP8RwCameraP6RwRGBAi
00000000003e398c T _Z18RwCameraShowRasterP8RwCameraPvj
00000000003e39b8 T _Z21RwCameraSetProjectionP8RwCamera18RwCameraProjection
00000000003e3ac8 T _Z21RwCameraSetViewWindowP8RwCameraPK5RwV2d
00000000003e3b3c T _Z22RwCameraRegisterPluginijPFPvS_iiES1_PFS_S_PKviiE
00000000003e3b60 T _Z23RwCameraGetPluginOffsetj
00000000003e3b74 T _Z23RwCameraValidatePluginsPK8RwCamera
00000000003e3b7c T _Z15RwCameraDestroyP8RwCamera
00000000003e3bd8 T _Z14RwCameraCreatev
00000000003e49b0 T _Z13RwCameraCloneP8RwCamera
00000000003e4ae8 T _Z16_rwCameraValOpenv
00000000003e4c64 T _Z17_rwCameraValClosev
00000000003e4c90 T _Z18_rwCameraValRenderP8RwCamera
00000000003e4f98 T _Z22_rwDeviceSystemRequestP8RwDeviceiPvS1_i
00000000003e50b8 T _Z24_rwGetNumEngineInstancesv
00000000003e50c4 T _Z18RwEngineGetVersionv
00000000003e50d0 T _Z22RwEngineRegisterPluginijPFPvS_iiES1_
00000000003e50f0 T _Z23RwEngineGetPluginOffsetj
00000000003e5100 T _Z24RwEngineGetNumSubSystemsv
00000000003e5178 T _Z24RwEngineGetSubSystemInfoP15RwSubSystemInfoi
00000000003e5238 T _Z27RwEngineGetCurrentSubSystemv
00000000003e52a8 T _Z20RwEngineSetSubSystemi
00000000003e5344 T _Z24RwEngineGetNumVideoModesv
00000000003e53d8 T _Z24RwEngineGetVideoModeInfoP11RwVideoModei
00000000003e546c T _Z27RwEngineGetCurrentVideoModev
00000000003e5500 T _Z20RwEngineSetVideoModei
00000000003e5590 T _Z28RwEngineGetTextureMemorySizev
00000000003e5624 T _Z25RwEngineGetMaxTextureSizev
00000000003e56b8 T _Z16RwEngineSetFocusi
00000000003e5748 T _Z18RwEngineGetMetricsv
00000000003e575c T _Z12RwEngineStopv
00000000003e582c T _Z13RwEngineStartv
00000000003e5944 T _Z13RwEngineClosev
00000000003e5a2c T _Z12RwEngineOpenP18RwEngineOpenParams
00000000003e5c48 T _Z12RwEngineTermv
00000000003e5c90 T _Z12RwEngineInitPK17RwMemoryFunctionsjj
00000000003e5fe4 T _Z30RwFrameSetFreeListCreateParamsii
00000000003e5ff8 T _Z12_rwFrameOpenPvii
00000000003e6090 T _Z13_rwFrameClosePvii
00000000003e60f8 T _Z26_rwFrameCloneAndLinkClonesP7RwFrame
00000000003e6290 T _Z20RwFrameUpdateObjectsP7RwFrame
00000000003e62f8 T _Z18_rwFramePurgeCloneP7RwFrame
00000000003e636c T _Z21RwFrameCloneHierarchyP7RwFrame
00000000003e6424 T _Z12RwFrameDirtyPK7RwFrame
00000000003e6434 T _Z12_rwFrameInitP7RwFrame
00000000003e64c4 T _Z13RwFrameCreatev
00000000003e6598 T _Z11RwFrameInitP7RwFrame
00000000003e6654 T _Z14_rwFrameDeInitP7RwFrame
00000000003e6764 T _Z18RwFrameRemoveChildP7RwFrame
00000000003e6828 T _Z14RwFrameDestroyP7RwFrame
00000000003e6870 T _Z13RwFrameDeInitP7RwFrame
00000000003e6888 T _Z23RwFrameDestroyHierarchyP7RwFrame
00000000003e6928 T _Z13RwFrameGetLTMP7RwFrame
00000000003e6958 T _Z14RwFrameGetRootPK7RwFrame
00000000003e6960 T _Z15RwFrameAddChildP7RwFrameS0_
00000000003e6ad4 T _Z21RwFrameForAllChildrenP7RwFramePFS0_S0_PvES1_
00000000003e6b24 T _Z12RwFrameCountP7RwFrame
00000000003e6b68 T _Z16RwFrameTranslateP7RwFramePK5RwV3d15RwOpCombineType
00000000003e6bf4 T _Z12RwFrameScaleP7RwFramePK5RwV3d15RwOpCombineType
00000000003e6c80 T _Z16RwFrameTransformP7RwFramePK11RwMatrixTag15RwOpCombineType
00000000003e6d0c T _Z13RwFrameRotateP7RwFramePK5RwV3df15RwOpCombineType
00000000003e6d98 T _Z18RwFrameSetIdentityP7RwFrame
00000000003e6e48 T _Z21RwFrameOrthoNormalizeP7RwFrame
00000000003e6ed8 T _Z20RwFrameForAllObjectsP7RwFramePFP8RwObjectS2_PvES3_
00000000003e6f38 T _Z27RwFrameSetStaticPluginsSizei
00000000003e6f50 T _Z21RwFrameRegisterPluginijPFPvS_iiES1_PFS_S_PKviiE
00000000003e6f74 T _Z22RwFrameGetPluginOffsetj
00000000003e6f88 T _Z22RwFrameValidatePluginsPK7RwFrame
00000000003e6f90 T _Z30RwImageSetFreeListCreateParamsii
00000000003e6fa4 T _Z36RwImageFormatSetFreeListCreateParamsii
00000000003e6fb0 T _Z12_rwImageOpenPvii
00000000003e71fc T _Z15RwImageSetGammaf
00000000003e72ec T _Z13_rwImageClosePvii
00000000003e7440 T _Z33_rwImageGammaUnCorrectArrayOfRGBAP6RwRGBAS0_i
00000000003e74a0 T _Z31_rwImageGammaCorrectArrayOfRGBAP6RwRGBAS0_i
00000000003e7500 T _Z13RwImageCreateiii
00000000003e7578 T _Z14RwImageDestroyP7RwImage
00000000003e75f4 T _Z17RwImageFreePixelsP7RwImage
00000000003e763c T _Z21RwImageAllocatePixelsP7RwImage
00000000003e774c T _Z13RwImageResizeP7RwImageii
00000000003e7918 T _Z15RwImageMakeMaskP7RwImage
00000000003e79e8 T _Z16RwImageApplyMaskP7RwImagePKS_
00000000003e7dd4 T _Z11RwImageCopyP7RwImagePKS_
00000000003e7ff8 T _Z14RwImageSetPathPKc
00000000003e80fc T _Z14RwImageGetPathv
00000000003e811c T _Z16_rwImageSwapPathPPcPi
00000000003e8170 T _Z11RwImageReadPKc
00000000003e85dc T _Z19RwImageFindFileTypePKc
00000000003e8708 T _Z26RwImageRegisterImageFormatPKcPFP7RwImageS0_EPFS2_S2_S0_E
00000000003e887c T _Z12RwImageWriteP7RwImagePKc
00000000003e8950 T _Z22RwImageReadMaskedImagePKcS0_
00000000003e8b50 T _Z13RwRGBAToPixelP6RwRGBAi
00000000003e8bb4 T _Z18RwRGBASetFromPixelP6RwRGBAji
00000000003e8c18 T _Z21RwImageRegisterPluginijPFPvS_iiES1_PFS_S_PKviiE
00000000003e8c38 T _Z22RwImageGetPluginOffsetj
00000000003e8c48 T _Z22RwImageValidatePluginsPK7RwImage
00000000003e8c50 T _Z20RwImageStreamGetSizePK7RwImage
00000000003e8c74 T _Z17RwImageStreamReadP8RwStream
00000000003e8eb0 T _Z18RwImageStreamWritePK7RwImageP8RwStream
00000000003e8fc4 T _Z18RwRGBAGammaCorrectP6RwRGBA
00000000003e9020 T _Z19RwImageGammaCorrectP7RwImage
00000000003e91b4 T _Z15RwImageGetGammav
00000000003e91d4 T _Z20RwImageSetFromRasterP7RwImageP8RwRaster
00000000003e9210 T _Z20RwRasterSetFromImageP8RwRasterP7RwImage
00000000003e924c T _Z23RwImageFindRasterFormatP7RwImageiPiS1_S1_S1_
00000000003e9304 T _Z20RwRGBAGetRasterPixelP6RwRGBAP8RwRasterii
00000000003e93f8 T _Z12RwRasterReadPKc
00000000003e9510 T _Z24RwRasterReadMaskedRasterPKcS0_
00000000003e9584 T _Z23RwRasterGetPluginOffsetj
00000000003e9594 T _Z25RwRasterGetCurrentContextv
00000000003e95b8 T _Z20RwRasterRenderScaledP8RwRasterP6RwRect
00000000003e95f0 T _Z17RwRasterGetOffsetP8RwRasterPsS1_
00000000003e9604 T _Z14RwRasterUnlockP8RwRaster
00000000003e9644 T _Z13RwRasterCleari
00000000003e96e4 T _Z23RwRasterValidatePluginsPK8RwRaster
00000000003e96ec T _Z18RwRasterRenderFastP8RwRasterii
00000000003e9754 T _Z17RwRasterClearRectP6RwRecti
00000000003e9788 T _Z14RwRasterRenderP8RwRasterii
00000000003e97f0 T _Z21RwRasterUnlockPaletteP8RwRaster
00000000003e9830 T _Z15RwRasterDestroyP8RwRaster
00000000003e98a0 T _Z19RwRasterPushContextP8RwRaster
00000000003e9914 T _Z22RwRasterRegisterPluginijPFPvS_iiES1_PFS_S_PKviiE
00000000003e9934 T _Z19RwRasterLockPaletteP8RwRasteri
00000000003e99a0 T _Z18RwRasterPopContextv
00000000003e9a08 T _Z20RwRasterGetNumLevelsP8RwRaster
00000000003e9a84 T _Z18RwRasterShowRasterP8RwRasterPvj
00000000003e9adc T _Z17RwRasterSubRasterP8RwRasterS0_P6RwRect
00000000003e9b6c T _Z14RwRasterCreateiiii
00000000003e9c4c T _Z12RwRasterLockP8RwRasterhi
00000000003e9cbc T _Z14_rwRasterClosePvii
00000000003e9d2c T _Z31RwRasterSetFreeListCreateParamsii
00000000003e9d40 T _Z13_rwRasterOpenPvii
00000000003e9e74 T _Z15RwImageResampleP7RwImagePKS_
00000000003ea11c T _Z21RwImageCreateResamplePK7RwImageii
00000000003ea378 T _Z17_rwFrameSyncDirtyv
00000000003ea46c T _Z24_rwFrameSyncHierarchyLTMP7RwFrame
00000000003ea644 T _Z24RwTextureSetReadCallBackPFP9RwTexturePKcS2_E
00000000003ea66c T _Z24RwTextureGetReadCallBackv
00000000003ea68c T _Z22RwTextureSetMipmappingi
00000000003ea6b4 T _Z22RwTextureGetMipmappingv
00000000003ea6d4 T _Z26RwTextureSetAutoMipmappingi
00000000003ea6fc T _Z26RwTextureGetAutoMipmappingv
00000000003ea71c T _Z28_rwTextureSetAutoMipMapStatei
00000000003ea750 T _Z28_rwTextureGetAutoMipMapStatev
00000000003ea770 T _Z18RwTextureSetRasterP9RwTextureP8RwRaster
00000000003ea7bc T _Z21RwTexDictionaryCreatev
00000000003ea858 T _Z22RwTexDictionaryDestroyP15RwTexDictionary
00000000003ea914 T _Z29RwTexDictionaryForAllTexturesPK15RwTexDictionaryPFP9RwTextureS3_PvES4_
00000000003ea974 T _Z16RwTextureDestroyP9RwTexture
00000000003eaa38 T _Z36RwTexDictionaryForAllTexDictionariesPFP15RwTexDictionaryS0_PvES1_
00000000003eaaa4 T _Z15RwTextureCreateP8RwRaster
00000000003eab34 T _Z16RwTextureSetNameP9RwTexturePKc
00000000003eabf0 T _Z20RwTextureSetMaskNameP9RwTexturePKc
00000000003eacac T _Z25RwTexDictionaryAddTextureP15RwTexDictionaryP9RwTexture
00000000003eacf0 T _Z28RwTexDictionaryRemoveTextureP9RwTexture
00000000003ead10 T _Z31RwTexDictionaryFindNamedTextureP15RwTexDictionaryPKc
00000000003ead94 T _Z29RwTexDictionaryGetNumTexturesP15RwTexDictionary
00000000003eadb8 T _Z32RwTexDictionaryGetTextureByIndexP15RwTexDictionaryi
00000000003eadec T _Z25RwTexDictionarySetCurrentP15RwTexDictionary
00000000003eae0c T _Z25RwTexDictionaryGetCurrentv
00000000003eae2c T _Z27RwTextureGenerateMipmapNamePcS_hi
00000000003eae58 T _Z13RwTextureReadPKcS0_
00000000003eb09c T _Z23RwTextureRegisterPluginijPFPvS_iiES1_PFS_S_PKviiE
00000000003eb0c0 T _Z24RwTextureGetPluginOffsetj
00000000003eb0d4 T _Z24RwTextureValidatePluginsPK9RwTexture
00000000003eb0dc T _Z29RwTexDictionaryRegisterPluginijPFPvS_iiES1_PFS_S_PKviiE
00000000003eb100 T _Z30RwTexDictionaryGetPluginOffsetj
00000000003eb114 T _Z30RwTexDictionaryValidatePluginsPK15RwTexDictionary
00000000003eb11c T _Z36RwTextureSetMipmapGenerationCallBackPFP8RwRasterS0_P7RwImageE
00000000003eb144 T _Z36RwTextureGetMipmapGenerationCallBackv
00000000003eb164 T _Z30RwTextureSetMipmapNameCallBackPFiPcS_hiE
00000000003eb18c T _Z30RwTextureGetMipmapNameCallBackv
00000000003eb1ac T _Z30RwTextureRasterGenerateMipmapsP8RwRasterP7RwImage
00000000003eb1e4 T _Z15_rwTextureClosePvii
00000000003eb374 T _Z32RwTextureSetFreeListCreateParamsii
00000000003eb388 T _Z38RwTexDictionarySetFreeListCreateParamsii
00000000003eb39c T _Z14_rwTextureOpenPvii
00000000003ec868 T _Z25_rwObjectHasFrameSetFramePvP7RwFrame
00000000003ec8b0 T _Z29_rwObjectHasFrameReleaseFramePv
00000000003ec8cc T _Z15RwIm3DTransformP18RxObjSpace3DVertexjP11RwMatrixTagj
00000000003ec9cc T _Z9RwIm3DEndv
00000000003eca18 T _Z28RwIm3DRenderIndexedPrimitive15RwPrimitiveTypePti
00000000003ecbc0 T _Z21RwIm3DRenderPrimitive15RwPrimitiveType
00000000003ecd70 T _Z20RwIm3DRenderTriangleiii
00000000003ece90 T _Z16RwIm3DRenderLineii
00000000003ecf94 T _Z26RwIm3DGetTransformPipelinev
00000000003ecfb4 T _Z23RwIm3DGetRenderPipeline15RwPrimitiveType
00000000003ed128 T _Z26RwIm3DSetTransformPipelineP10RxPipeline
00000000003ed160 T _Z23RwIm3DSetRenderPipelineP10RxPipeline15RwPrimitiveType
00000000003ed458 T _Z14_rwIm3DGetPoolv
00000000003ed47c T _Z12_rwIm3DClosePvii
00000000003ed4e8 T _Z11_rwIm3DOpenPvii
00000000003ed5d4 T _Z21_rwRenderPipelineOpenPvii
00000000003ed608 T _Z22_rwRenderPipelineClosePvii
00000000003ed62c T _Z13_rwPipeAttachv
00000000003ed634 T _Z20_rwPipeInitForCameraPK8RwCamera
00000000003ed638 T _Z38_rwIm3DCreatePlatformTransformPipelinePP10RxPipeline
00000000003ed6bc T _Z36_rwIm3DCreatePlatformRenderPipelinesP21rwIm3DRenderPipelines
00000000003ed780 T _Z39_rwIm3DDestroyPlatformTransformPipelinePP10RxPipeline
00000000003ed7b4 T _Z37_rwIm3DDestroyPlatformRenderPipelinesP21rwIm3DRenderPipelines
00000000003ed828 T _Z36RxNodeDefinitionGetOpenGLImmInstancev
00000000003ed848 T _Z38RxNodeDefinitionGetOpenGLSubmitNoLightv
00000000003eddcc T _Z33_rxEmbeddedPacketBetweenPipelinesP10RxPipelineS0_
00000000003edf74 T _Z16_rxPacketDestroyP8RxPacket
00000000003edff8 T _Z29_rxEmbeddedPacketBetweenNodesP10RxPipelineP14RxPipelineNodej
00000000003ee124 T _Z16_rxPipelineClosev
00000000003ee19c T _Z33RxPipelineSetFreeListCreateParamsii
00000000003ee1b0 T _Z15_rxPipelineOpenv
00000000003ee2bc T _Z19PipelineNodeDestroyP14RxPipelineNodeP10RxPipeline
00000000003ee5b4 T _Z19RxHeapGetGlobalHeapv
00000000003ee5c4 T _Z14RxPacketCreateP14RxPipelineNode
00000000003ee5fc T _Z18RxClusterSetStrideP9RxClusteri
00000000003ee604 T _Z24RxClusterSetExternalDataP9RxClusterPvii
00000000003ee688 T _Z16RxClusterSetDataP9RxClusterPvii
00000000003ee70c T _Z23RxClusterInitializeDataP9RxClusterjt
00000000003ee788 T _Z19RxClusterResizeDataP9RxClusterj
00000000003ee7f0 T _Z20RxClusterDestroyDataP9RxCluster
00000000003ee838 T _Z18RxClusterLockWriteP8RxPacketjP14RxPipelineNode
00000000003ee96c T _Z15RxClusterUnlockP9RxCluster
00000000003ee970 T _Z27RxPipelineNodeSendConfigMsgP14RxPipelineNodejjPv
00000000003ee994 T _Z36RxPipelineNodeForAllConnectedOutputsP14RxPipelineNodeP10RxPipelinePFS0_S0_S0_PvES3_
00000000003eea64 T _Z46_rwPipelineCheckForTramplingOfNodePrivateSpaceP10RxPipeline
00000000003eea68 T _Z32RxPipelineNodeGetPipelineClusterP14RxPipelineNodej
00000000003eeaa0 T _Z38RxPipelineClusterGetCreationAttributesP17RxPipelineCluster
00000000003eeab4 T _Z38RxPipelineClusterSetCreationAttributesP17RxPipelineClusterj
00000000003eeac0 T _Z22RxClusterGetAttributesP9RxCluster
00000000003eead4 T _Z22RxClusterSetAttributesP9RxClusterj
00000000003eeae0 T _Z17RxPipelineExecuteP10RxPipelinePvi
00000000003eeb98 T _Z16RxPipelineCreatev
00000000003eec44 T _Z18_rxPipelineDestroyP10RxPipeline
00000000003eeccc T _Z15StalacTiteAllocj
00000000003eed5c T _Z15StalacMiteAllocj
00000000003eedec T _Z29PipelineCalcNumUniqueClustersP10RxPipeline
00000000003eee70 T _Z29RxPipelineNodeCloneDefinitionP14RxPipelineNodeP19RxClusterDefinition
00000000003ef230 T _Z30RxPipelineNodeFindOutputByNameP14RxPipelineNodePKc
00000000003ef2cc T _Z31RxPipelineNodeFindOutputByIndexP14RxPipelineNodej
00000000003ef2f8 T _Z23RxPipelineNodeFindInputP14RxPipelineNode
00000000003ef310 T _Z28RxPipelineNodeRequestClusterP10RxPipelineP14RxPipelineNodeP19RxClusterDefinition
00000000003ef3a8 T _Z28RxPipelineNodeReplaceClusterP10RxPipelineP14RxPipelineNodeP19RxClusterDefinitionS4_
00000000003ef460 T _Z28RxPipelineNodeCreateInitDataP14RxPipelineNodej
00000000003ef520 T _Z25RxPipelineNodeGetInitDataP14RxPipelineNode
00000000003ef528 T _Z18RxLockedPipeUnlockP10RxPipeline
00000000003efebc T _Z14RxPipelineLockP10RxPipeline
00000000003f0100 T _Z15RxPipelineCloneP10RxPipeline
00000000003f03c0 T _Z24RxPipelineFindNodeByNameP10RxPipelinePKcP14RxPipelineNodePi
00000000003f04a0 T _Z25RxPipelineFindNodeByIndexP10RxPipelinej
00000000003f04cc T _Z23RxLockedPipeAddFragmentP10RxPipelinePjP16RxNodeDefinitionz
00000000003f09d4 T _Z19RxLockedPipeAddPathP10RxPipelinePjP14RxPipelineNode
00000000003f0a54 T _Z23RxLockedPipeReplaceNodeP10RxPipelineP14RxPipelineNodeP16RxNodeDefinition
00000000003f0bd8 T _Z22RxLockedPipeDeleteNodeP10RxPipelineP14RxPipelineNode
00000000003f0c28 T _Z25RxLockedPipeSetEntryPointP10RxPipelineP14RxPipelineNode
00000000003f0c94 T _Z25RxLockedPipeGetEntryPointP10RxPipeline
00000000003f0cd4 T _Z22RxLockedPipeDeletePathP10RxPipelinePjP14RxPipelineNode
00000000003f0d24 T _Z25RxPipelineInsertDebugNodeP10RxPipelineP14RxPipelineNodeS2_P16RxNodeDefinition
00000000003f149c T _Z20_rxChaseDependenciesP10RxPipeline
00000000003f2498 T _Z10RxHeapFreeP6RxHeapPv
00000000003f270c T _Z11RxHeapAllocP6RxHeapj
00000000003f2a10 T _Z13RxHeapReallocP6RxHeapPvji
00000000003f2bf8 T _Z12_rxHeapResetP6RxHeap
00000000003f2d70 T _Z13RxHeapDestroyP6RxHeap
00000000003f2de8 T _Z12RxHeapCreatej
00000000003f2ec0 T _Z17_rxNotAFunction17i
00000000003f2ec8 T _Z46RxRenderStateVectorSetDefaultRenderStateVectorP19RxRenderStateVector
00000000003f2fb8 T _Z46RxRenderStateVectorGetDefaultRenderStateVectorv
00000000003f304c T _Z25RxRenderStateVectorCreatei
00000000003f313c T _Z34RxRenderStateVectorLoadDriverStateP19RxRenderStateVector
00000000003f32c4 T _Z26RxRenderStateVectorDestroyP19RxRenderStateVector
00000000003f3358 T _Z23_rx_rxRadixExchangeSortPvjjjjj
00000000003f3804 T _Z16_rxSelectionSortPvjjjjj
00000000003f3968 T _Z24_rwStreamReadChunkHeaderP8RwStreamPjS1_S1_S1_
00000000003f3a68 T _Z13RwMemNative32Pvj
00000000003f3a6c T _Z34_rwStreamWriteVersionedChunkHeaderP8RwStreamiijj
00000000003f3ad8 T _Z19RwMemLittleEndian32Pvj
00000000003f3adc T _Z17RwStreamFindChunkP8RwStreamjPjS1_
00000000003f3c20 T _Z19RwMemLittleEndian16Pvj
00000000003f3c24 T _Z13RwMemNative16Pvj
00000000003f3c28 T _Z18RwMemRealToFloat32Pvj
00000000003f3c2c T _Z18RwMemFloat32ToRealPvj
00000000003f3c30 T _Z17RwStreamWriteRealP8RwStreamPKfj
00000000003f3cdc T _Z18RwStreamWriteInt32P8RwStreamPKij
00000000003f3d00 T _Z18RwStreamWriteInt16P8RwStreamPKsj
00000000003f3d24 T _Z17RwStreamReadInt16P8RwStreamPsj
00000000003f3d98 T _Z16RwStreamReadRealP8RwStreamPfj
00000000003f3e0c T _Z17RwStreamReadInt32P8RwStreamPij
00000000003f3e80 T _Z27RwStreamReadChunkHeaderInfoP8RwStreamP17RwChunkHeaderInfo
00000000003f3f70 T _Z21RwMatrixStreamGetSizePK11RwMatrixTag
00000000003f3f78 T _Z19RwMatrixStreamWritePK11RwMatrixTagP8RwStream
00000000003f412c T _Z21RwMatrixChunkInfoReadP8RwStreamP14rwStreamMatrixPi
00000000003f4250 T _Z18RwMatrixStreamReadP8RwStreamP11RwMatrixTag
00000000003f440c T _Z12_rwColorOpenPvii
00000000003f4420 T _Z13_rwColorClosePvii
00000000003f4434 T _Z12_rwErrorOpenPvii
00000000003f4474 T _Z13_rwErrorClosePvii
00000000003f4488 T _Z10RwErrorSetP7RwError
00000000003f44e8 T _Z10RwErrorGetP7RwError
00000000003f4520 T _Z8_rwerroriz
00000000003f454c T _Z20RwOsGetFileInterfacev
00000000003f4560 T _Z12_rwES2fclosePv
00000000003f457c T _Z11_rwES2freadPvmmS_
00000000003f45bc T _Z12_rwES2fwritePKvmmPv
00000000003f45f0 T _Z11_rwES2fgetsPciPv
00000000003f468c T _Z11_rwES2fputsPKcPv
00000000003f4694 T _Z10_rwES2feofPv
00000000003f46a8 T _Z11_rwES2fseekPvli
00000000003f4704 T _Z11_rwES2ftellPv
00000000003f4708 T _Z12_rwES2fflushPv
00000000003f4710 T _Z17_rwFileSystemOpenv
00000000003f4860 T _Z18_rwFileSystemClosev
00000000003f4864 T _Z20RwIm2DGetNearScreenZv
00000000003f4878 T _Z19RwIm2DGetFarScreenZv
00000000003f488c T _Z16RwRenderStateSet13RwRenderStatePv
00000000003f4924 T _Z16RwRenderStateGet13RwRenderStatePv
00000000003f4938 T _Z16RwIm2DRenderLineP14RwOpenGLVertexiii
00000000003f494c T _Z20RwIm2DRenderTriangleP14RwOpenGLVertexiiii
00000000003f4960 T _Z21RwIm2DRenderPrimitive15RwPrimitiveTypeP14RwOpenGLVertexi
00000000003f4974 T _Z28RwIm2DRenderIndexedPrimitive15RwPrimitiveTypeP14RwOpenGLVertexiPti
00000000003f4988 T _Z14_rwSListCreatei
00000000003f4a98 T _Z13_rwSListEmptyP7RwSList
00000000003f4aa0 T _Z19_rwSListGetNewEntryP7RwSList
00000000003f4b98 T _Z21_rwSListGetNewEntriesP7RwSListi
00000000003f4cac T _Z20_rwSListDestroyEntryP7RwSListi
00000000003f4d2c T _Z25_rwSListDestroyEndEntriesP7RwSListi
00000000003f4d3c T _Z16_rwSListGetArrayP7RwSList
00000000003f4d54 T _Z20_rwSListReleaseArrayP7RwSList
00000000003f4d5c T _Z15_rwSListDestroyP7RwSList
00000000003f4dbc T _Z20_rwSListDestroyArrayPh
00000000003f4de4 T _Z21_rwSListGetNumEntriesPK7RwSList
00000000003f4dec T _Z15_rwSListToArrayP7RwSList
00000000003f4e54 T _Z16_rwSListGetEntryP7RwSListi
00000000003f4e68 T _Z18_rwMatrixSetMultFnPFvP11RwMatrixTagPKS_S2_E
00000000003f5098 T _Z25_rwMatrixSetOptimizationsi
00000000003f50c0 T _Z20_rwMatrixDeterminantPK11RwMatrixTag
00000000003f5104 T _Z24_rwMatrixOrthogonalErrorPK11RwMatrixTag
00000000003f5150 T _Z20_rwMatrixNormalErrorPK11RwMatrixTag
00000000003f51b4 T _Z22_rwMatrixIdentityErrorPK11RwMatrixTag
00000000003f5228 T _Z14_rwMatrixClosePvii
00000000003f5290 T _Z31RwMatrixSetFreeListCreateParamsii
00000000003f52a4 T _Z13_rwMatrixOpenPvii
00000000003f5370 T _Z27RwEngineSetMatrixTolerancesPK17RwMatrixTolerance
00000000003f53a0 T _Z27RwEngineGetMatrixTolerancesP17RwMatrixTolerance
00000000003f53d4 T _Z16RwMatrixOptimizeP11RwMatrixTagPK17RwMatrixTolerance
00000000003f5528 T _Z14RwMatrixUpdateP11RwMatrixTag
00000000003f553c T _Z16RwMatrixMultiplyP11RwMatrixTagPKS_S2_
00000000003f558c T _Z22RwMatrixOrthoNormalizeP11RwMatrixTagPKS_
00000000003f5970 T _Z32RwMatrixRotateOneMinusCosineSineP11RwMatrixTagPK5RwV3dff15RwOpCombineType
00000000003f5b28 T _Z14RwMatrixRotateP11RwMatrixTagPK5RwV3df15RwOpCombineType
00000000003f5bf4 T _Z14RwMatrixInvertP11RwMatrixTagPKS_
00000000003f5eac T _Z13RwMatrixScaleP11RwMatrixTagPK5RwV3d15RwOpCombineType
00000000003f60d8 T _Z17RwMatrixTranslateP11RwMatrixTagPK5RwV3d15RwOpCombineType
00000000003f6274 T _Z17RwMatrixTransformP11RwMatrixTagPKS_15RwOpCombineType
00000000003f6398 T _Z19RwMatrixQueryRotatePK11RwMatrixTagP5RwV3dPfS3_
00000000003f66f0 T _Z15RwMatrixDestroyP11RwMatrixTag
00000000003f672c T _Z14RwMatrixCreatev
00000000003f67a0 T _Z17_rwFreeListEnablei
00000000003f67ac T _Z16RwFreeListCreateiii
00000000003f696c T _Z35RwFreeListCreateAndPreallocateSpaceiiiiP10RwFreeList
00000000003f6970 T _Z17RwFreeListDestroyP10RwFreeList
00000000003f6a24 T _Z18RwFreeListSetFlagsP10RwFreeListj
00000000003f6a38 T _Z18RwFreeListGetFlagsP10RwFreeList
00000000003f6a40 T _Z20_rwFreeListAllocRealP10RwFreeList
00000000003f6c7c T _Z19_rwFreeListFreeRealP10RwFreeListPv
00000000003f6e98 T _Z15RwFreeListPurgeP10RwFreeList
00000000003f70ac T _Z20RwFreeListForAllUsedP10RwFreeListPFvPvS1_ES1_
00000000003f7328 T _Z27RwFreeListPurgeAllFreeListsv
00000000003f7588 T _Z13_rwMemoryOpenPK17RwMemoryFunctions
00000000003f7678 T _Z14_rwMemoryClosev
00000000003f77d4 T _Z22RwOsGetMemoryInterfacev
00000000003f77e8 T _Z16_rwResourcesOpenPvii
00000000003f7904 T _Z17_rwResourcesClosePvii
00000000003f7988 T _Z21RwResourcesEmptyArenav
00000000003f7ad4 T _Z23RwResourcesFreeResEntryP10RwResEntry
00000000003f7b70 T _Z17_rwResourcesPurgev
00000000003f7c10 T _Z27RwResourcesAllocateResEntryPvPP10RwResEntryiPFvS1_E
00000000003f7e10 T _Z23RwResourcesSetArenaSizej
00000000003f7f28 T _Z23RwResourcesGetArenaSizev
00000000003f7f48 T _Z24RwResourcesGetArenaUsagev
00000000003f7f90 T _Z31RwStreamSetFreeListCreateParamsii
00000000003f7fa4 T _Z19_rwStreamModuleOpenPvii
00000000003f802c T _Z20_rwStreamModuleClosePvii
00000000003f8080 T _Z19_rwStreamInitializeP8RwStreami12RwStreamType18RwStreamAccessTypePKv
00000000003f8240 T _Z12RwStreamReadP8RwStreamPvj
00000000003f83f8 T _Z13RwStreamWriteP8RwStreamPKvj
00000000003f85f4 T _Z12RwStreamSkipP8RwStreamj
00000000003f8718 T _Z13RwStreamCloseP8RwStreamPv
00000000003f8844 T _Z12RwStreamOpen12RwStreamType18RwStreamAccessTypePKv
00000000003f88d8 T _Z32_rwPluginRegistryAddPluginStreamP16RwPluginRegistryjPFP8RwStreamS2_iPviiEPFS2_S2_iPKviiEPFiS7_iiE
00000000003f890c T _Z34_rwPluginRegistryAddPlgnStrmlwysCBP16RwPluginRegistryjPFiPviiE
00000000003f893c T _Z36_rwPluginRegistryAddPlgnStrmRightsCBP16RwPluginRegistryjPFiPviijE
00000000003f896c T _Z31_rwPluginRegistryReadDataChunksPK16RwPluginRegistryP8RwStreamPv
00000000003f8af0 T _Z29_rwPluginRegistryInvokeRightsPK16RwPluginRegistryjPvj
00000000003f8b5c T _Z24_rwPluginRegistryGetSizePK16RwPluginRegistryPKv
00000000003f8bc8 T _Z32_rwPluginRegistryWriteDataChunksPK16RwPluginRegistryP8RwStreamPKv
00000000003f8cd8 T _Z31_rwPluginRegistrySkipDataChunksPK16RwPluginRegistryP8RwStream
00000000003f8d94 T _Z39RwPluginRegistrySetFreeListCreateParamsii
00000000003f8da8 T _Z21_rwPluginRegistryOpenv
00000000003f8df4 T _Z22_rwPluginRegistryClosev
00000000003f8f44 T _Z37_rwPluginRegistrySetStaticPluginsSizeP16RwPluginRegistryi
00000000003f8f84 T _Z32_rwPluginRegistryGetPluginOffsetPK16RwPluginRegistryj
00000000003f8fb0 T _Z26_rwPluginRegistryAddPluginP16RwPluginRegistryijPFPvS1_iiES3_PFS1_S1_PKviiE
00000000003f92ac T _Z27_rwPluginRegistryInitObjectPK16RwPluginRegistryPv
00000000003f9324 T _Z29_rwPluginRegistryDeInitObjectPK16RwPluginRegistryPv
00000000003f9370 T _Z27_rwPluginRegistryCopyObjectPK16RwPluginRegistryPvPKv
00000000003f93c4 T _Z18_rwVectorSetMultFnPFP5RwV3dS0_PKS_iPK11RwMatrixTagES7_
00000000003f96b4 T _Z15_rwV3dNormalizeP5RwV3dPKS_
00000000003f9750 T _Z10_rwInvSqrtf
00000000003f97b8 T _Z14RwV3dNormalizeP5RwV3dPKS_
00000000003f9904 T _Z7_rwSqrtf
00000000003f9968 T _Z11RwV3dLengthPK5RwV3d
00000000003f99e0 T _Z11RwV2dLengthPK5RwV2d
00000000003f9a50 T _Z14RwV2dNormalizeP5RwV2dPKS_
00000000003f9b88 T _Z20RwV3dTransformPointsP5RwV3dPKS_iPK11RwMatrixTag
00000000003f9ba8 T _Z21RwV3dTransformVectorsP5RwV3dPKS_iPK11RwMatrixTag
00000000003f9bc8 T _Z14_rwVectorClosePvii
00000000003f9c5c T _Z13_rwVectorOpenPvii
00000000003f9e94 T _Z14_rwResHeapInitPvj
00000000003f9ed8 T _Z15_rwResHeapClosePv
00000000003f9ee0 T _Z14_rwResHeapFreePv
00000000003f9f68 T _Z15_rwResHeapAllocPvj
00000000003fa068 T _Z16_rwResHeapCallocPvjj
00000000003fa0a4 T _Z17_rwResHeapReallocPvj
00000000003fa340 T _Z18_rwResHeapGetStatsPvPjS0_S0_S0_S0_S0_
00000000003fa3f0 T _Z13_rwStringOpenv
00000000003fa5c0 T _Z14_rwStringClosev
00000000003fa5c4 T _ZNK23TextureListingContainer12CreateRasterERK20TextureDatabaseEntry
00000000003fa718 T _ZN20TextureDatabaseEntry12LoadInstanceERK23TextureListingContainer
00000000003fa804 T _ZN20TextureDatabaseEntry7LoadPNGEPKc
00000000003fa8dc T _ZN20TextureDatabaseEntry6DeleteEv
00000000003fa938 W _ZN8TDBArrayIP22TextureDatabaseRuntimeED2Ev
00000000003fa96c W _ZN8TDBArrayIP9RwTextureED2Ev
00000000003fa9a0 T _ZN22TextureDatabaseRuntime8GetEntryEPKc
00000000003faa68 T _ZN22TextureDatabaseRuntime12GetRWTextureEi
00000000003fab90 T _ZN22TextureDatabaseRuntime15LoadFullTextureEj
00000000003fadd0 T _ZN22TextureDatabaseRuntime17StreamFullTextureEj
00000000003faf24 T _ZN22TextureDatabaseRuntime14CancelDeletionEj
00000000003faf7c T _ZN22TextureDatabaseRuntime9FullyLoadEv
00000000003fb024 W _ZN8TDBArrayIjE6InsertERKjj
00000000003fb0fc T _ZN22TextureDatabaseRuntime15UpdateStreamingEfb
00000000003fb418 T _ZN22TextureDatabaseRuntime14DeleteTexturesEj
00000000003fb508 T _ZN22TextureDatabaseRuntime22UpdateTextureStreamingEjj
00000000003fb5d0 T _ZN22TextureDatabaseRuntime24MarkTexturesAsUnrenderedEv
00000000003fb63c W _ZN8TDBArrayIjE8AddArrayEPKjj
00000000003fb6f8 T _ZN22TextureDatabaseRuntime13SetAsRenderedEj
00000000003fb7e8 T _ZN22TextureDatabaseRuntime13StopStreamingEj
00000000003fb8e8 T _ZN22TextureDatabaseRuntime16QueueForDeletionEj
00000000003fb988 T _ZN22TextureDatabaseRuntime8RegisterEPS_
00000000003fba74 T _ZN22TextureDatabaseRuntime10UnregisterEPS_
00000000003fbaec T _ZN22TextureDatabaseRuntime10GetTextureEPKc
00000000003fbdfc T _ZN22TextureDatabaseRuntime14GetDatabaseForEP20TextureDatabaseEntryPj
00000000003fbe8c T _ZN22TextureDatabaseRuntime21RenderingTextureEntryEP20TextureDatabaseEntry
00000000003fbf24 T _ZN22TextureDatabaseRuntime21CanUnloadTextureEntryEP20TextureDatabaseEntry
00000000003fc08c T _ZN22TextureDatabaseRuntime11SortEntriesEb
00000000003fc6f4 W _ZN10EntryIndex4sortEPKvS1_
00000000003fc704 T _ZN22TextureDatabaseRuntime13ReloadEntriesEv
00000000003fc8d8 T _ZN22TextureDatabaseRuntimeD1Ev
00000000003fc8d8 T _ZN22TextureDatabaseRuntimeD2Ev
00000000003fca5c T _ZN22TextureDatabaseRuntimeD0Ev
00000000003fca80 T _ZN22TextureDatabaseRuntime4LoadEPKcb
00000000003fcce4 W _ZN8TDBArrayIP9RwTextureE9AddZeroedEj
00000000003fcd8c T _ZN22TextureDatabaseRuntime6UnloadEv
00000000003fcdf8 T _ZN22TextureDatabaseRuntime11GetDatabaseEPKc
00000000003fce58 T _ZN22TextureDatabaseRuntime11ListOverrunEv
00000000003fcfe8 T _Z7HashMemPKhj
00000000003fd010 T _Z10HashStringPKc
00000000003fd054 T _Z9MakeUpperPc
00000000003fd08c T _Z16HashStringNoCasePKc
00000000003fd130 T _Z8HashFilePKc
00000000003fd1e4 T _ZNK20TextureDatabaseEntryeqERKS_
00000000003fd278 T _ZNK14TextureListing12GetTotalSizeEv
00000000003fd328 T _ZNK14TextureListing11GetMipCountEv
00000000003fd380 T _ZNK14TextureListing10GetMipSizeEj
00000000003fd528 T _ZNK14TextureListing11GetRQFormatEv
00000000003fd6a0 T _ZN23TextureListingContainerD1Ev
00000000003fd6a0 T _ZN23TextureListingContainerD2Ev
00000000003fd6d4 T _ZN15TextureDatabaseD1Ev
00000000003fd6d4 T _ZN15TextureDatabaseD2Ev
00000000003fd920 T _ZN15TextureDatabaseD0Ev
00000000003fd944 T _ZN15TextureDatabase9LoadEntryEPcb
00000000003fdf50 W _Z13ParseIntParamPKcS0_Pj
00000000003fdfb4 T _ZN15TextureDatabase11LoadEntriesEbb
00000000003fe3ac T _ZN15TextureDatabase12LoadDataFileEPKcR8TDBArrayI23TextureListingContainerE
00000000003fe6c0 W _ZN8TDBArrayI23TextureListingContainerE9AddZeroedEj
00000000003fe774 T _ZN15TextureDatabase10LoadThumbsE21TextureDatabaseFormatb
00000000003fe804 T _ZN15TextureDatabase14GetPNGFilenameEPcPKc
00000000003fe820 T _ZN15TextureDatabase15LoadDataOffsetsE21TextureDatabaseFormatR8TDBArrayIjERPvb
00000000003fec9c W _ZN8TDBArrayIjE9AddZeroedEj
00000000003fed44 T _Z35RtAnimAnimationFreeListCreateParamsii
00000000003fed58 T _Z16RtAnimInitializev
00000000003fee2c T _Z33RtAnimRegisterInterpolationSchemeP22RtAnimInterpolatorInfo
00000000003fef20 T _Z25RtAnimGetInterpolatorInfoi
00000000003fefb8 T _Z21RtAnimAnimationCreateiiif
00000000003ff0cc T _Z22RtAnimAnimationDestroyP15RtAnimAnimation
00000000003ff128 T _Z19RtAnimAnimationReadPKc
00000000003ff190 T _Z25RtAnimAnimationStreamReadP8RwStream
00000000003ff320 T _Z20RtAnimAnimationWriteP15RtAnimAnimationPKc
00000000003ff370 T _Z26RtAnimAnimationStreamWriteP15RtAnimAnimationP8RwStream
00000000003ff46c T _Z28RtAnimAnimationStreamGetSizeP15RtAnimAnimation
00000000003ff48c T _Z26RtAnimAnimationGetNumNodesP15RtAnimAnimation
00000000003ff4d0 T _Z24RtAnimInterpolatorCreateii
00000000003ff544 T _Z25RtAnimInterpolatorDestroyP18RtAnimInterpolator
00000000003ff558 T _Z32RtAnimInterpolatorSetCurrentAnimP18RtAnimInterpolatorP15RtAnimAnimation
00000000003ff62c T _Z38RtAnimInterpolatorSetKeyFrameCallBacksP18RtAnimInterpolatori
00000000003ff6ec T _Z37RtAnimInterpolatorSetAnimLoopCallBackP18RtAnimInterpolatorPFS0_S0_PvES1_
00000000003ff6f4 T _Z33RtAnimInterpolatorSetAnimCallBackP18RtAnimInterpolatorPFS0_S0_PvEfS1_
00000000003ff700 T _Z22RtAnimInterpolatorCopyP18RtAnimInterpolatorS0_
00000000003ff72c T _Z29RtAnimInterpolatorSubAnimTimeP18RtAnimInterpolatorf
00000000003ff91c T _Z29RtAnimInterpolatorAddAnimTimeP18RtAnimInterpolatorf
00000000003ffc00 T _Z32RtAnimInterpolatorSetCurrentTimeP18RtAnimInterpolatorf
00000000003ffc34 T _Z24RtAnimAnimationMakeDeltaP15RtAnimAnimationif
00000000003ffe78 T _Z23RtAnimInterpolatorBlendP18RtAnimInterpolatorS0_S0_f
00000000003fff20 T _Z29RtAnimInterpolatorAddTogetherP18RtAnimInterpolatorS0_S0_
00000000003fffb8 T _Z39RtAnimInterpolatorCreateSubInterpolatorP18RtAnimInterpolatoriii
000000000040004c T _Z38RtAnimInterpolatorBlendSubInterpolatorP18RtAnimInterpolatorS0_S0_f
000000000040028c T _Z36RtAnimInterpolatorAddSubInterpolatorP18RtAnimInterpolatorS0_S0_
0000000000400344 T _Z14RtBMPImageReadPKc
00000000004013c4 T _Z15RtBMPImageWriteP7RwImagePKc
000000000040180c T RtCharsetBufferFlush
0000000000401980 T RtCharsetPrintBuffered
0000000000401e40 T RtCharsetPrint
000000000040210c T _Z22_rtCharsetAtariFontGetP13RtCharsetDescPi
0000000000402140 T RtCharsetGetDesc
00000000004021d0 T RtCharsetSetColors
0000000000402374 T RtCharsetDestroy
0000000000402410 T RtCharsetCreate
00000000004024f0 T RtCharsetClose
0000000000402544 T RtCharsetOpen
00000000004025cc T RtPNGImageWrite
0000000000402a20 T RtPNGImageRead
0000000000402f38 T _Z23RtQuatConvertFromMatrixP6RtQuatPK11RwMatrixTag
00000000004031d0 T _Z12RtQuatRotateP6RtQuatPK5RwV3df15RwOpCombineType
000000000040343c T _Z17RtQuatQueryRotatePK6RtQuatP5RwV3dPf
0000000000403584 T _Z22RtQuatTransformVectorsP5RwV3dPKS_iPK6RtQuat
000000000040374c T _Z13RtQuatModulusP6RtQuat
0000000000403768 T RtSlerpCreate
0000000000403834 T RtSlerpInitialize
0000000000403944 T RtSlerpDestroy
0000000000403994 T RtSlerpGetMatrix
0000000000403c1c T RtSlerpSetLerp
0000000000403c24 T RtQuatSetupSlerpCache
0000000000404080 T RtQuatSetupSlerpArgandCache
00000000004041a0 T _Z12RtTileRenderP8RwCameraiiiiPFS0_S0_iiPvEPFP7RwImageS5_iiS1_ES1_
0000000000404700 T _Z20RtTileDefaultArchiveP7RwImageiiPv
000000000040498c T _Z18_rpReadWorldRightsP8RwStreamiPvii
00000000004049e8 T _Z19_rpWriteWorldRightsP8RwStreamiPKvii
0000000000404a38 T _Z18_rpSizeWorldRightsPKvii
0000000000404a58 T _Z17_rpReadSectRightsP8RwStreamiPvii
0000000000404ab4 T _Z18_rpWriteSectRightsP8RwStreamiPKvii
0000000000404b04 T _Z17_rpSizeSectRightsPKvii
0000000000404b24 T _Z20RpWorldStreamGetSizePK7RpWorld
0000000000404d1c T _Z18RpWorldStreamWritePK7RpWorldP8RwStream
0000000000405344 T _Z17RpWorldStreamReadP8RwStream
0000000000405f30 T _Z27_rpWorldSectorChunkInfoReadP8RwStreamP22RpWorldChunkInfoSectorPi
0000000000406004 T _Z27_rpPlaneSectorChunkInfoReadP8RwStreamP22RpPlaneSectorChunkInfoPi
00000000004060e4 T _Z21_rpWorldChunkInfoReadP8RwStreamP16RpWorldChunkInfoPi
0000000000406244 T _Z19_rpBinaryWorldClosePvii
0000000000406258 T _Z18_rpBinaryWorldOpenPvii
00000000004063f0 T _Z19_rpReadAtomicRightsP8RwStreamiPvii
000000000040644c T _Z20_rpWriteAtomicRightsP8RwStreamiPKvii
000000000040649c T _Z19_rpSizeAtomicRightsPKvii
00000000004064bc T _Z27AtomicDefaultRenderCallBackP8RpAtomic
0000000000406514 T _Z33_rpAtomicResyncInterpolatedSphereP8RpAtomic
0000000000406630 T _Z30RpAtomicGetWorldBoundingSphereP8RpAtomic
000000000040671c T _Z13_rpClumpClosePvii
00000000004067e4 T _Z31RpAtomicSetFreeListCreateParamsii
00000000004067f8 T _Z30RpClumpSetFreeListCreateParamsii
000000000040680c T _Z12_rpClumpOpenPvii
0000000000406904 T _Z26_rpClumpRegisterExtensionsv
00000000004069b8 T _Z20RpClumpGetNumAtomicsP7RpClump
00000000004069e4 T _Z20RpClumpForAllAtomicsP7RpClumpPFP8RpAtomicS2_PvES3_
0000000000406a44 T _Z19RpClumpGetNumLightsP7RpClump
0000000000406a80 T _Z19RpClumpForAllLightsP7RpClumpPFP7RpLightS2_PvES3_
0000000000406ae8 T _Z20RpClumpGetNumCamerasP7RpClump
0000000000406b24 T _Z20RpClumpForAllCamerasP7RpClumpPFP8RwCameraS2_PvES3_
0000000000406b8c T _Z18RpClumpCreateSpacePK5RwV3df
0000000000406d98 T _Z14RpAtomicCreatev
0000000000406e58 T _Z13RpClumpCreatev
0000000000406ee0 T _Z15RpAtomicDestroyP8RpAtomic
0000000000406f74 T _Z16RpAtomicSetFrameP8RpAtomicP7RwFrame
0000000000406fa4 T _Z19RpAtomicSetGeometryP8RpAtomicP10RpGeometryj
000000000040702c T _Z16RpClumpAddAtomicP7RpClumpP8RpAtomic
000000000040704c T _Z13RpClumpRenderP7RpClump
00000000004070f4 T _Z15RpLightGetClumpPK7RpLight
0000000000407104 T _Z16RwCameraGetClumpPK8RwCamera
0000000000407114 T _Z13RpAtomicCloneP8RpAtomic
00000000004072d4 T _Z12RpClumpCloneP7RpClump
0000000000407488 T _Z14RpClumpDestroyP7RpClump
00000000004075b0 T _Z18RpClumpSetCallBackP7RpClumpPFS0_S0_PvE
00000000004075cc T _Z18RpClumpGetCallBackPK7RpClump
00000000004075e4 T _Z19RpClumpRemoveAtomicP7RpClumpP8RpAtomic
00000000004075fc T _Z15RpClumpAddLightP7RpClumpP7RpLight
0000000000407630 T _Z18RpClumpRemoveLightP7RpClumpP7RpLight
0000000000407658 T _Z16RpClumpAddCameraP7RpClumpP8RwCamera
000000000040768c T _Z19RpClumpRemoveCameraP7RpClumpP8RwCamera
00000000004076b4 T _Z21RpAtomicStreamGetSizeP8RpAtomic
00000000004076f4 T _Z20RpClumpStreamGetSizeP7RpClump
0000000000407a88 T _Z19RpAtomicStreamWriteP8RpAtomicP8RwStream
0000000000407c90 T _Z18RpClumpStreamWriteP7RpClumpP8RwStream
0000000000408134 T _Z18RpAtomicStreamReadP8RwStream
00000000004084c0 T _Z17RpClumpStreamReadP8RwStream
0000000000408ae0 T _Z21_rpClumpChunkInfoReadP8RwStreamP16RpClumpChunkInfoPi
0000000000408ba8 T _Z22RpAtomicRegisterPluginijPFPvS_iiES1_PFS_S_PKviiE
0000000000408bc8 T _Z21RpClumpRegisterPluginijPFPvS_iiES1_PFS_S_PKviiE
0000000000408be8 T _Z28RpAtomicRegisterPluginStreamjPFP8RwStreamS0_iPviiEPFS0_S0_iPKviiEPFiS5_iiE
0000000000408c08 T _Z31RpAtomicSetStreamAlwaysCallBackjPFiPviiE
0000000000408c1c T _Z31RpAtomicSetStreamRightsCallBackjPFiPviijE
0000000000408c30 T _Z27RpClumpRegisterPluginStreamjPFP8RwStreamS0_iPviiEPFS0_S0_iPKviiEPFiS5_iiE
0000000000408c50 T _Z30RpClumpSetStreamAlwaysCallBackjPFiPviiE
0000000000408c64 T _Z23RpAtomicGetPluginOffsetj
0000000000408c74 T _Z22RpClumpGetPluginOffsetj
0000000000408c84 T _Z23RpAtomicValidatePluginsPK8RpAtomic
0000000000408c8c T _Z22RpClumpValidatePluginsPK7RpClump
0000000000408c94 T _Z16RpAtomicInstanceP8RpAtomic
0000000000408d0c T _Z15_rpGeometryOpenPvii
0000000000408d20 T _Z16_rpGeometryClosePvii
0000000000408d34 T _Z33_rpGeometryGetTKListFirstRegEntryv
0000000000408d40 T _Z19RpGeometryTransformP10RpGeometryPK11RwMatrixTag
0000000000408e38 T _Z14RpGeometryLockP10RpGeometryi
0000000000408e7c T _Z31RpMorphTargetCalcBoundingSpherePK13RpMorphTargetP8RwSphere
0000000000408f94 T _Z16RpGeometryUnlockP10RpGeometry
000000000040906c T _Z17RpGeometryDestroyP10RpGeometry
0000000000409144 T _Z21RpGeometryCreateSpacef
00000000004091ac T _Z16RpGeometryCreateiij
00000000004093e4 T _Z25RpGeometryAddMorphTargetsP10RpGeometryi
00000000004096b8 T _Z24RpGeometryAddMorphTargetP10RpGeometry
00000000004096c0 T _Z27RpGeometryRemoveMorphTargetP10RpGeometryi
0000000000409904 T _Z34RpGeometryTriangleSetVertexIndicesPK10RpGeometryP10RpTrianglettt
0000000000409914 T _Z29RpGeometryTriangleSetMaterialP10RpGeometryP10RpTriangleP10RpMaterial
0000000000409978 T _Z34RpGeometryTriangleGetVertexIndicesPK10RpGeometryPK10RpTrianglePtS5_S5_
00000000004099a0 T _Z29RpGeometryTriangleGetMaterialPK10RpGeometryPK10RpTriangle
00000000004099c0 T _Z25RpGeometryForAllMaterialsP10RpGeometryPFP10RpMaterialS2_PvES3_
0000000000409a34 T _Z22RpGeometryForAllMeshesPK10RpGeometryPFP6RpMeshS3_P12RpMeshHeaderPvES6_
0000000000409a74 T _Z17_rpGeometryAddRefP10RpGeometry
0000000000409a84 T _Z24RpGeometryRegisterPluginijPFPvS_iiES1_PFS_S_PKviiE
0000000000409aa4 T _Z30RpGeometryRegisterPluginStreamjPFP8RwStreamS0_iPviiEPFS0_S0_iPKviiEPFiS5_iiE
0000000000409ac4 T _Z33RpGeometrySetStreamAlwaysCallBackjPFiPviiE
0000000000409ad8 T _Z25RpGeometryGetPluginOffsetj
0000000000409ae8 T _Z25RpGeometryValidatePluginsPK10RpGeometry
0000000000409af0 T _Z23RpGeometryStreamGetSizePK10RpGeometry
0000000000409cd8 T _Z21RpGeometryStreamWritePK10RpGeometryP8RwStream
000000000040a13c T _Z20RpGeometryStreamReadP8RwStream
000000000040a4d8 T _Z24_rpGeometryChunkInfoReadP8RwStreamP19RpGeometryChunkInfoPi
000000000040a594 T _Z16RpLightSetRadiusP7RpLightf
000000000040a5c8 T _Z15RpLightSetColorP7RpLightPK10RwRGBAReal
000000000040a5fc T _Z19RpLightGetConeAnglePK7RpLight
000000000040a914 T _Z19RpLightSetConeAngleP7RpLightf
000000000040a960 T _Z21RpLightRegisterPluginijPFPvS_iiES1_PFS_S_PKviiE
000000000040a980 T _Z27RpLightRegisterPluginStreamjPFP8RwStreamS0_iPviiEPFS0_S0_iPKviiEPFiS5_iiE
000000000040a9a0 T _Z30RpLightSetStreamAlwaysCallBackjPFiPviiE
000000000040a9b4 T _Z22RpLightGetPluginOffsetj
000000000040a9c4 T _Z22RpLightValidatePluginsPK7RpLight
000000000040a9cc T _Z20RpLightStreamGetSizePK7RpLight
000000000040a9f0 T _Z18RpLightStreamWritePK7RpLightP8RwStream
000000000040ab2c T _Z17RpLightStreamReadP8RwStream
000000000040ad70 T _Z13RpLightCreatei
000000000040ae30 T _Z21_rpLightChunkInfoReadP8RwStreamP16RpLightChunkInfoPi
000000000040af28 T _Z14RpLightDestroyP7RpLight
000000000040af88 T _Z13_rpLightClosePvii
000000000040b05c T _Z30RpLightSetFreeListCreateParamsii
000000000040b070 T _Z12_rpLightOpenPvii
000000000040b0fc T _Z38_rpMaterialSetDefaultSurfacePropertiesPK19RwSurfaceProperties
000000000040b138 T _Z33RpMaterialSetFreeListCreateParamsii
000000000040b14c T _Z15_rpMaterialOpenPvii
000000000040b1d8 T _Z16_rpMaterialClosePvii
000000000040b240 T _Z16RpMaterialCreatev
000000000040b2c0 T _Z17RpMaterialDestroyP10RpMaterial
000000000040b338 T _Z20RpMaterialSetTextureP10RpMaterialP9RwTexture
000000000040b38c T _Z15RpMaterialCloneP10RpMaterial
000000000040b4e8 T _Z24RpMaterialRegisterPluginijPFPvS_iiES1_PFS_S_PKviiE
000000000040b508 T _Z30RpMaterialRegisterPluginStreamjPFP8RwStreamS0_iPviiEPFS0_S0_iPKviiEPFiS5_iiE
000000000040b528 T _Z33RpMaterialSetStreamAlwaysCallBackjPFiPviiE
000000000040b53c T _Z33RpMaterialSetStreamRightsCallBackjPFiPviijE
000000000040b550 T _Z25RpMaterialGetPluginOffsetj
000000000040b560 T _Z25RpMaterialValidatePluginsPK10RpMaterial
000000000040b568 T _Z24_rpMaterialChunkInfoReadP8RwStreamP19RpMaterialChunkInfoPi
000000000040b650 T _Z20RpMaterialStreamReadP8RwStream
000000000040b8e4 T _Z23RpMaterialStreamGetSizePK10RpMaterial
000000000040b92c T _Z21RpMaterialStreamWritePK10RpMaterialP8RwStream
000000000040ba70 T _Z27_rpMaterialListDeinitializeP14RpMaterialList
000000000040bae4 T _Z25_rpMaterialListInitializeP14RpMaterialList
000000000040baec T _Z20_rpMaterialListAllocj
000000000040bb04 T _Z19_rpMaterialListCopyP14RpMaterialListPKS_
000000000040bc44 T _Z26_rpMaterialListGetMaterialPK14RpMaterialListi
000000000040bc50 T _Z22_rpMaterialListSetSizeP14RpMaterialListi
000000000040bd24 T _Z29_rpMaterialListAppendMaterialP14RpMaterialListP10RpMaterial
000000000040be34 T _Z32_rpMaterialListFindMaterialIndexPK14RpMaterialListPK10RpMaterial
000000000040be70 T _Z28_rpMaterialListStreamGetSizePK14RpMaterialList
000000000040bf08 T _Z26_rpMaterialListStreamWritePK14RpMaterialListP8RwStream
000000000040c140 T _Z25_rpMaterialListStreamReadP8RwStreamP14RpMaterialList
000000000040c430 T _Z20_rpMeshHeaderDestroyP12RpMeshHeader
000000000040c474 T _Z19_rpMeshHeaderCreatej
000000000040c4a0 T _Z12_rpMeshClosePvii
000000000040c4f4 T _Z11_rpMeshOpenPvii
000000000040c644 T _Z18_rpBuildMeshCreatej
000000000040c75c T _Z19_rpBuildMeshDestroyP11RpBuildMesh
000000000040c7b4 T _Z14_rpMeshDestroyP12RpMeshHeader
000000000040c828 T _Z23_rpBuildMeshAddTriangleP11RpBuildMeshP10RpMaterialiii
000000000040c974 T _Z25_rpMeshHeaderForAllMeshesP12RpMeshHeaderPFP6RpMeshS2_S0_PvES3_
000000000040c9e8 T _Z12_rpMeshWritePK12RpMeshHeaderPKvP8RwStreamPK14RpMaterialList
000000000040cbec T _Z15GetMeshPriorityPK6RpMesh
000000000040cc54 T _Z10MeshSorterPKvS0_
000000000040cd30 T _Z11_rpMeshReadP8RwStreamPKvPK14RpMaterialList
000000000040d1c4 T _Z11_rpMeshSizePK12RpMeshHeaderPKv
000000000040d228 T _Z26_rpMeshGetNextSerialNumberv
000000000040d250 T _Z34RpBuildMeshGenerateTrivialTriStripP11RpBuildMeshPv
000000000040d318 T _Z34RpBuildMeshGenerateDefaultTriStripP11RpBuildMeshPv
000000000040e2b8 T _Z47RpBuildMeshGenerateDefaultIgnoreWindingTriStripP11RpBuildMeshPv
000000000040e2c4 T _Z37RpBuildMeshGeneratePreprocessTriStripP11RpBuildMeshPv
000000000040e2d0 T _Z50RpBuildMeshGeneratePreprocessIgnoreWindingTriStripP11RpBuildMeshPv
000000000040e2dc T _Z37RpBuildMeshGenerateExhaustiveTriStripP11RpBuildMeshPv
000000000040f06c T _Z50RpBuildMeshGenerateExhaustiveIgnoreWindingTriStripP11RpBuildMeshPv
000000000040f074 T _Z21RpTriStripDefaultCostP17RpTriStripPolygonjPv
000000000040f30c T _Z28RpTriStripPolygonFollowStripP17RpTriStripPolygonS0_
000000000040f368 T _Z20RpTriStripMeshTunnelP14RpTriStripMeshPv
000000000040f960 T _Z19RpTriStripMeshQuickP14RpTriStripMeshPv
00000000004101e4 T _Z27RpBuildMeshGenerateTriStripP11RpBuildMeshPv
00000000004113f0 T _Z23RpMeshSetTriStripMethodPFP12RpMeshHeaderP11RpBuildMeshPvES3_
000000000041141c T _Z23RpMeshGetTriStripMethodPPFP12RpMeshHeaderP11RpBuildMeshPvEPS3_
0000000000411444 T _Z22_rpTriListMeshGenerateP11RpBuildMeshPv
00000000004119e8 T _Z15_rpMeshOptimiseP11RpBuildMeshj
0000000000412908 T _Z13_rpSectorOpenPvii
000000000041291c T _Z14_rpSectorClosePvii
0000000000412930 T _Z27RpWorldSectorGetNumVerticesPK13RpWorldSector
0000000000412938 T _Z27RpWorldSectorGetNumPolygonsPK13RpWorldSector
0000000000412940 T _Z19RpWorldSectorRenderP13RpWorldSector
0000000000412958 T _Z25RpWorldSectorForAllMeshesPK13RpWorldSectorPFP6RpMeshS3_P12RpMeshHeaderPvES6_
0000000000412998 T _Z27RpWorldSectorRegisterPluginijPFPvS_iiES1_PFS_S_PKviiE
00000000004129bc T _Z33RpWorldSectorRegisterPluginStreamjPFP8RwStreamS0_iPviiEPFS0_S0_iPKviiEPFiS5_iiE
00000000004129dc T _Z36RpWorldSectorSetStreamAlwaysCallBackjPFiPviiE
00000000004129f4 T _Z36RpWorldSectorSetStreamRightsCallBackjPFiPviijE
0000000000412a0c T _Z28RpWorldSectorGetPluginOffsetj
0000000000412a20 T _Z28RpWorldSectorValidatePluginsPK13RpWorldSector
0000000000412a28 T _Z30_rpSectorDefaultRenderCallBackP13RpWorldSector
0000000000412a98 T _Z26_rpWorldForAllGlobalLightsPFP7RpLightS0_PvES1_
0000000000412b04 T _Z31_rpWorldSectorForAllLocalLightsP13RpWorldSectorPFP7RpLightS2_PvES3_
0000000000412b70 T _Z16_rpWorldFindBBoxP7RpWorldP6RwBBox
0000000000412c2c T _Z32_rpWorldSetupSectorBoundingBoxesP7RpWorld
0000000000412d1c T _Z21_rpWorldRegisterWorldP7RpWorldj
0000000000412d94 T _Z23_rpWorldUnregisterWorldP7RpWorld
0000000000412df4 T _Z11RpWorldLockP7RpWorld
0000000000412e94 T _Z13RpWorldUnlockP7RpWorld
0000000000412fcc T _Z21RpWorldSectorGetWorldPK13RpWorldSector
00000000004130b8 T _Z25RpWorldForAllWorldSectorsP7RpWorldPFP13RpWorldSectorS2_PvES3_
0000000000413164 T _Z13RpWorldRenderP7RpWorld
00000000004132d4 T _Z14RpWorldDestroyP7RpWorld
0000000000413708 T _Z30RpWorldSetSectorRenderCallBackP7RpWorldPFP13RpWorldSectorS2_E
0000000000413720 T _Z30RpWorldGetSectorRenderCallBackPK7RpWorld
0000000000413728 T _Z13RpWorldCreateP6RwBBox
00000000004139ac T _Z15RpWorldInstanceP7RpWorld
0000000000413a74 T _Z19RpWorldForAllClumpsP7RpWorldPFP7RpClumpS2_PvES3_
0000000000413adc T _Z22RpWorldForAllMaterialsP7RpWorldPFP10RpMaterialS2_PvES3_
0000000000413b50 T _Z19RpWorldForAllLightsP7RpWorldPFP7RpLightS2_PvES3_
0000000000413bec T _Z21RpWorldRegisterPluginijPFPvS_iiES1_PFS_S_PKviiE
0000000000413c10 T _Z27RpWorldRegisterPluginStreamjPFP8RwStreamS0_iPviiEPFS0_S0_iPKviiEPFiS5_iiE
0000000000413c30 T _Z30RpWorldSetStreamAlwaysCallBackjPFiPviiE
0000000000413c48 T _Z30RpWorldSetStreamRightsCallBackjPFiPviijE
0000000000413c60 T _Z22RpWorldGetPluginOffsetj
0000000000413c74 T _Z22RpWorldValidatePluginsP7RpWorld
0000000000413c7c T _Z19RpWorldPluginAttachv
0000000000413ed0 T _Z28RpTieSetFreeListCreateParamsii
0000000000413ee4 T _Z33RpLightTieSetFreeListCreateParamsii
0000000000413ef8 T _Z18_rpLightTieDestroyP10RpLightTie
0000000000413f54 T _Z13_rpTieDestroyP5RpTie
0000000000413fbc T _Z29_rpWorldObjRegisterExtensionsv
0000000000414988 T _Z16RpWorldAddCameraP7RpWorldP8RwCamera
00000000004149d4 T _Z19RpWorldRemoveCameraP7RpWorldP8RwCamera
0000000000414a38 T _Z16RwCameraGetWorldPK8RwCamera
0000000000414a4c T _Z16RpWorldAddAtomicP7RpWorldP8RpAtomic
0000000000414a94 T _Z19RpWorldRemoveAtomicP7RpWorldP8RpAtomic
0000000000414b64 T _Z16RpAtomicGetWorldPK8RpAtomic
0000000000414b74 T _Z26RpAtomicForAllWorldSectorsP8RpAtomicPFP13RpWorldSectorS2_PvES3_
0000000000414bd4 T _Z26RpWorldSectorForAllAtomicsP13RpWorldSectorPFP8RpAtomicS2_PvES3_
0000000000414d00 T _Z35RpWorldSectorForAllCollisionAtomicsP13RpWorldSectorPFP8RpAtomicS2_PvES3_
0000000000414dd0 T _Z25RpWorldSectorForAllLightsP13RpWorldSectorPFP7RpLightS2_PvES3_
0000000000414f04 T _Z15RpWorldAddClumpP7RpWorldP7RpClump
0000000000415128 T _Z18RpWorldRemoveClumpP7RpWorldP7RpClump
0000000000415428 T _Z30RwCameraForAllSectorsInFrustumP8RwCameraPFP13RpWorldSectorS2_PvES3_
0000000000415498 T _Z15RpClumpGetWorldPK7RpClump
00000000004154a8 T _Z29RwCameraForAllClumpsInFrustumP8RwCameraPv
0000000000415694 T _Z32RwCameraForAllClumpsNotInFrustumP8RwCameraiPv
000000000041574c T _Z15RpWorldAddLightP7RpWorldP7RpLight
00000000004157cc T _Z18RpWorldRemoveLightP7RpWorldP7RpLight
000000000041587c T _Z15RpLightGetWorldPK7RpLight
000000000041588c T _Z25RpLightForAllWorldSectorsP7RpLightPFP13RpWorldSectorS2_PvES3_
000000000041628c T _Z27RpGeometryIsCorrectlySortedPK10RpGeometryPi
00000000004164e0 T _Z24RpGeometrySortByMaterialPK10RpGeometryPFvS1_PS_PttE
0000000000416cc8 T _Z31RpWorldSetDefaultSectorPipelineP10RxPipeline
0000000000416cf8 T _Z26RpAtomicSetDefaultPipelineP10RxPipeline
0000000000416d28 T _Z28RpMaterialSetDefaultPipelineP10RxPipeline
0000000000416d58 T _Z21_rpWorldPipelineClosev
0000000000416d70 T _Z20_rpWorldPipelineOpenv
0000000000416db4 T _Z18_rpWorldPipeAttachv
0000000000416dbc W _ZN8TDBArrayI24_rpGeometryStreamBuilderED2Ev
0000000000416df0 T _Z14RegisterStream21RQVertexAttributeTypej23RQVertexAttributeFormatbjPvb
0000000000416ec0 W _ZN8TDBArrayI24_rpGeometryStreamBuilderE9AddZeroedEj
0000000000416f74 T _Z26_rpGeometryNeedsPrecideUVsPK10RpGeometryi
0000000000416ffc T _Z27_rpGeometryNeedsPreciseSkinPK10RpGeometryP6RpSkin
0000000000417074 T _Z31_rpGeometryNativeCompressNormalf
00000000004170b8 T _Z33_rpGeometryNativeCompressTexCoordf
00000000004170d8 T _Z22_rpGeometryNativeWriteP8RwStreamPK10RpGeometry
000000000041836c W _ZNK24_rpGeometryStreamBuilder15WriteStreamInfoEP8RwStream
0000000000418470 T _Z21_rpGeometryNativeReadP8RwStreamP10RpGeometry
000000000041861c T _Z21_rpGeometryNativeSizePK10RpGeometry
000000000041879c T _Z25_rpWorldSectorNativeWriteP8RwStreamPK13RpWorldSector
00000000004187c4 T _Z24_rpWorldSectorNativeReadP8RwStreamP13RpWorldSector
00000000004187cc T _Z24_rpWorldSectorNativeSizePK13RpWorldSector
0000000000418804 T _Z39RxNodeDefinitionGetOpenGLAtomicAllInOnev
0000000000418810 T _Z34_rxOpenGLDefaultAtomicAllInOneNodeP14RxPipelineNodePK19RxPipelineNodeParam
0000000000418b08 T _Z42_rxOpenGLAllInOneAtomicInstanceVertexArrayP24RxOpenGLMeshInstanceDataPK8RpAtomicPK10RpGeometry14RpGeometryFlagiiPh
0000000000418ea8 T _Z40_rxOpenGLDefaultAllInOneAtomicLightingCBPv
0000000000419218 T _Z44RxNodeDefinitionGetOpenGLWorldSectorAllInOnev
0000000000419824 T _Z26_rpOpenGLLightPluginAttachv
00000000004198b4 T _Z19_rwOpenGLLightsOpenv
0000000000419a3c T _Z20_rwOpenGLLightsClosev
0000000000419bc8 T _Z21_rwOpenGLLightsEnablei
0000000000419ca4 T _Z33_rwOpenGLLightsGlobalLightsEnable11RpLightFlag
0000000000419eac T _Z31_rwOpenGLLightsLocalLightEnablePK7RpLight
000000000041a0e4 T _Z36_rwOpenGLLightsSetMaterialPropertiesPK10RpMaterialj
000000000041a290 T _Z33RpOpenGLLightSetAttenuationParamsPvPK25RpOpenGLLightAttentuation
000000000041a2b0 T _Z33RpOpenGLLightGetAttenuationParamsPKv
000000000041a2c8 T _Z32RpOpenGLLightSetSoftSpotExponentPvf
000000000041a2e4 T _Z32RpOpenGLLightGetSoftSpotExponentPKv
000000000041a304 T _Z17_rxOpenGLInstancePvS_PP10RwResEntryP12RpMeshHeaderiPFiS_P24RxOpenGLMeshInstanceDataiiE
000000000041a714 T _Z38_rxOpenGLMeshGetNumVerticesAndMinIndexPtjPjS0_
000000000041a824 T _ZN24RxOpenGLMeshInstanceData10DrawStoredEv
000000000041a860 T _Z19_rxOpenGLReinstancePvPK12RpMeshHeaderP24RxOpenGLMeshInstanceDataiPFiS_S4_iiE
000000000041a8d8 T _Z32_rxOpenGLDefaultAllInOneRenderCBP10RwResEntryPvhj
000000000041aa68 T _Z29_rxOpenGLAllInOnePipelineInitP14RxPipelineNode
000000000041ab60 T _Z29_rxOpenGLAllInOnePipelineTermP14RxPipelineNode
000000000041ac08 T _Z35RxOpenGLAllInOneSetInstanceCallBackP14RxPipelineNodePFiPvP24RxOpenGLMeshInstanceDataiiE
000000000041ac14 T _Z35RxOpenGLAllInOneGetInstanceCallBackP14RxPipelineNode
000000000041ac20 T _Z37RxOpenGLAllInOneSetReinstanceCallBackP14RxPipelineNodePFiPvP10RwResEntryPK12RpMeshHeaderiPFiS1_P24RxOpenGLMeshInstanceDataiiEE
000000000041ac2c T _Z37RxOpenGLAllInOneGetReinstanceCallBackP14RxPipelineNode
000000000041ac38 T _Z35RxOpenGLAllInOneSetLightingCallBackP14RxPipelineNodePFvPvE
000000000041ac44 T _Z35RxOpenGLAllInOneGetLightingCallBackP14RxPipelineNode
000000000041ac50 T _Z33RxOpenGLAllInOneSetRenderCallBackP14RxPipelineNodePFvP10RwResEntryPvhjE
000000000041ac5c T _Z33RxOpenGLAllInOneGetRenderCallBackP14RxPipelineNode
000000000041ac68 T _Z34RxOpenGLAllInOneSetInstanceDLandVAP14RxPipelineNodei
000000000041ac74 T _Z34RxOpenGLAllInOneGetInstanceDLandVAP14RxPipelineNode
000000000041ac80 T _Z26_rxWorldDevicePluginAttachv
000000000041ac84 T _Z34_rpCreatePlatformMaterialPipelinesv
000000000041ac8c T _Z35_rpDestroyPlatformMaterialPipelinesv
000000000041ac90 T _Z37_rpCreatePlatformWorldSectorPipelinesv
000000000041ad24 T _Z38_rpDestroyPlatformWorldSectorPipelinesv
000000000041ad7c T _Z32_rpCreatePlatformAtomicPipelinesv
000000000041ae18 T _Z33_rpDestroyPlatformAtomicPipelinesv
000000000041ae70 T _Z21LoadAllGamesFromCloudv
000000000041ae74 T _Z17LoadGameFromCloudjPib
000000000041ae7c T _Z15SaveGameToCloudjPKcj
000000000041ae80 T _Z16IsCloudAvailablev
000000000041ae88 T _Z21NewCloudSaveAvailablei
000000000041ae90 T _Z16SetBaseCloudNamePKc
000000000041ae94 T _Z16AddCloudObserverv
000000000041ae98 T _Z19RemoveCloudObserverv
000000000041ae9c T _Z19SetBaseCloudNameNewPKc
000000000041aea0 T _Z16CloudGetSettingsPKc
000000000041aea4 T _Z17CloudSaveSettingsPKcS0_
000000000041aea8 T _Z20CloudGetDataSettingsPKcPi
000000000041aeac T _Z21CloudSaveDataSettingsPKcPKvi
000000000041aeb0 T _Z19HasClouddataChangedv
000000000041aeb8 T png_set_sig_bytes
000000000041aee4 T png_sig_cmp
000000000041af30 T png_zalloc
000000000041af40 T png_zfree
000000000041af44 T png_reset_crc
000000000041af74 T png_calculate_crc
000000000041aff4 T png_user_version_check
000000000041b1e4 T png_create_png_struct
000000000041b35c T png_create_info_struct
000000000041b3b0 T png_destroy_info_struct
000000000041b438 T png_free_data
000000000041b87c T png_info_init_3
000000000041b8fc T png_data_freer
000000000041b944 T png_get_io_ptr
000000000041b950 T png_init_io
000000000041b95c T png_save_int_32
000000000041b960 T png_convert_to_rfc1123_buffer
000000000041bbb4 T png_convert_to_rfc1123
000000000041bbfc T png_get_copyright
000000000041bc08 T png_get_libpng_ver
000000000041bc14 T png_get_header_ver
000000000041bc20 T png_get_header_version
000000000041bc2c T png_build_grayscale_palette
000000000041bdac T png_handle_as_unknown
000000000041be00 T png_chunk_unknown_handling
000000000041be84 T png_reset_zstream
000000000041be98 T png_access_version_number
000000000041bea0 T png_zstream_error
000000000041bee0 T png_colorspace_set_gamma
000000000041c008 T png_colorspace_sync_info
000000000041c0b8 T png_colorspace_sync
000000000041c18c T png_colorspace_set_chromaticities
000000000041cb0c T png_colorspace_set_endpoints
000000000041d034 T png_colorspace_set_sRGB
000000000041d594 T png_icc_check_length
000000000041d5ec T png_icc_check_header
000000000041d92c T png_icc_check_tag_table
000000000041da18 T png_icc_set_sRGB
000000000041dbf4 T png_colorspace_set_ICC
000000000041dc9c T png_colorspace_set_rgb_coefficients
000000000041dec8 T png_muldiv
000000000041df30 T png_check_IHDR
000000000041e170 T png_check_fp_number
000000000041e2f4 T png_check_fp_string
000000000041e37c T png_ascii_from_fp
000000000041e968 T png_ascii_from_fixed
000000000041ec1c T png_fixed
000000000041ec68 T png_muldiv_warn
000000000041ece4 T png_reciprocal
000000000041ed28 T png_gamma_significant
000000000041ed40 T png_reciprocal2
000000000041ed9c T png_gamma_8bit_correct
000000000041edf4 T png_gamma_16bit_correct
000000000041ee50 T png_gamma_correct
000000000041ef00 T png_destroy_gamma_table
000000000041f070 T png_build_gamma_table
000000000041fcac T png_set_option
000000000041fcf8 T png_image_free
000000000041fde8 T png_image_error
0000000000420158 T png_error
00000000004201d8 T png_safecat
0000000000420224 T png_format_number
000000000042034c T png_warning
00000000004204c8 T png_warning_parameter
0000000000420524 T png_warning_parameter_unsigned
00000000004206cc T png_warning_parameter_signed
0000000000420898 T png_formatted_warning
00000000004209d0 T png_benign_error
0000000000420a84 T png_chunk_warning
0000000000420b24 T png_chunk_error
0000000000420b5c T png_app_warning
0000000000420b74 T png_app_error
0000000000420d54 T png_chunk_benign_error
0000000000420dc0 T png_chunk_report
0000000000420e90 T png_fixed_error
0000000000420efc T png_set_longjmp_fn
0000000000420fbc T png_free_jmpbuf
0000000000421068 T png_longjmp
000000000042108c T png_set_error_fn
000000000042109c T png_get_error_ptr
00000000004210a8 T png_safe_error
0000000000421188 T png_safe_warning
00000000004211e8 T png_safe_execute
00000000004212b0 T png_get_valid
00000000004212cc T png_get_rowbytes
00000000004212e4 T png_get_rows
00000000004212fc T png_get_image_width
0000000000421314 T png_get_image_height
000000000042132c T png_get_bit_depth
0000000000421344 T png_get_color_type
000000000042135c T png_get_filter_type
0000000000421374 T png_get_interlace_type
000000000042138c T png_get_compression_type
00000000004213a4 T png_get_x_pixels_per_meter
00000000004213d8 T png_get_y_pixels_per_meter
000000000042140c T png_get_pixels_per_meter
000000000042143c T png_get_pixel_aspect_ratio
000000000042146c T png_get_pixel_aspect_ratio_fixed
00000000004214f4 T png_get_x_offset_microns
0000000000421528 T png_get_y_offset_microns
000000000042155c T png_get_x_offset_pixels
0000000000421594 T png_get_y_offset_pixels
00000000004215cc T png_get_pixels_per_inch
0000000000421664 T png_get_x_pixels_per_inch
00000000004216f0 T png_get_y_pixels_per_inch
000000000042177c T png_get_x_offset_inches_fixed
00000000004217b8 T png_get_y_offset_inches_fixed
00000000004217f4 T png_get_x_offset_inches
0000000000421830 T png_get_y_offset_inches
000000000042186c T png_get_pHYs_dpi
0000000000421920 T png_get_channels
0000000000421938 T png_get_signature
000000000042194c T png_get_bKGD
000000000042197c T png_get_cHRM
0000000000421a78 T png_get_cHRM_XYZ
0000000000421b90 T png_get_cHRM_XYZ_fixed
0000000000421c30 T png_get_cHRM_fixed
0000000000421cc0 T png_get_gAMA_fixed
0000000000421cf0 T png_get_gAMA
0000000000421d30 T png_get_sRGB
0000000000421d60 T png_get_iCCP
0000000000421db0 T png_get_sPLT
0000000000421dd4 T png_get_eXIf
0000000000421df4 T png_get_eXIf_1
0000000000421e2c T png_get_hIST
0000000000421e5c T png_get_IHDR
0000000000421ef4 T png_get_oFFs
0000000000421f38 T png_get_pCAL
0000000000421fb0 T png_get_sCAL_fixed
000000000042204c T png_get_sCAL
00000000004220bc T png_get_sCAL_s
00000000004220f8 T png_get_pHYs
0000000000422158 T png_get_PLTE
0000000000422190 T png_get_sBIT
00000000004221c0 T png_get_text
0000000000422204 T png_get_tIME
0000000000422234 T png_get_tRNS
00000000004222c4 T png_get_unknown_chunks
00000000004222e8 T png_get_rgb_to_gray_status
00000000004222f4 T png_get_user_chunk_ptr
0000000000422300 T png_get_compression_buffer_size
0000000000422320 T png_get_user_width_max
000000000042232c T png_get_user_height_max
0000000000422338 T png_get_chunk_cache_max
0000000000422344 T png_get_chunk_malloc_max
0000000000422350 T png_get_io_state
0000000000422358 T png_get_io_chunk_type
0000000000422360 T png_get_palette_max
0000000000422378 T png_destroy_png_struct
0000000000422410 T png_free
0000000000422430 T png_calloc
00000000004224b8 T png_malloc
000000000042250c T png_malloc_base
0000000000422530 T png_malloc_array
0000000000422588 T png_realloc_array
0000000000422680 T png_malloc_default
00000000004226c0 T png_malloc_warn
0000000000422728 T png_free_default
000000000042273c T png_set_mem_fn
0000000000422750 T png_get_mem_ptr
000000000042275c T png_create_read_struct
00000000004227b8 T png_create_read_struct_2
0000000000422808 T png_read_info
0000000000422cdc T png_read_update_info
0000000000422d24 T png_start_read_image
0000000000422d44 T png_read_row
0000000000423184 T png_read_rows
0000000000423224 T png_read_image
0000000000423328 T png_read_end
000000000042382c T png_destroy_read_struct
0000000000423974 T png_set_read_status_fn
0000000000423980 T png_read_png
0000000000423bcc T png_image_begin_read_from_stdio
0000000000423ed8 T png_image_begin_read_from_file
0000000000423fa8 T png_image_begin_read_from_memory
00000000004240cc T png_image_finish_read
0000000000427330 T png_read_data
0000000000427350 T png_default_read_data
000000000042739c T png_set_read_fn
00000000004273f0 T png_set_crc_action
00000000004274f0 T png_set_background_fixed
0000000000427578 T png_set_background
000000000042765c T png_set_scale_16
000000000042768c T png_set_strip_16
00000000004276bc T png_set_strip_alpha
00000000004276ec T png_set_alpha_mode_fixed
00000000004278d4 T png_set_alpha_mode
0000000000427948 T png_set_quantize
0000000000428208 T png_set_gamma_fixed
0000000000428324 T png_set_gamma
00000000004283f0 T png_set_expand
0000000000428428 T png_set_palette_to_rgb
0000000000428460 T png_set_expand_gray_1_2_4_to_8
0000000000428490 T png_set_tRNS_to_alpha
00000000004284c8 T png_set_expand_16
0000000000428500 T png_set_gray_to_rgb
0000000000428534 T png_set_rgb_to_gray_fixed
000000000042866c T png_set_rgb_to_gray
00000000004286d4 T png_set_read_user_transform_fn
00000000004286e8 T png_init_read_transformations
000000000042930c T png_read_transform_info
0000000000429540 T png_do_read_transformations
000000000042c4f0 T png_get_uint_31
000000000042c518 T png_get_uint_32
000000000042c524 T png_get_int_32
000000000042c558 T png_get_uint_16
000000000042c568 T png_read_sig
000000000042c62c T png_read_chunk_header
000000000042c81c T png_check_chunk_name
000000000042c8a4 T png_check_chunk_length
000000000042c964 T png_crc_read
000000000042c9ac T png_crc_finish
000000000042cad4 T png_crc_error
000000000042cb6c T png_zlib_inflate
000000000042cbac T png_handle_IHDR
000000000042cd20 T png_handle_PLTE
000000000042cfcc T png_handle_IEND
000000000042d03c T png_handle_gAMA
000000000042d170 T png_handle_sBIT
000000000042d404 T png_handle_cHRM
000000000042d61c T png_handle_sRGB
000000000042d780 T png_handle_iCCP
000000000042e000 T png_handle_sPLT
000000000042e394 T png_handle_tRNS
000000000042e62c T png_handle_bKGD
000000000042e8d0 T png_handle_eXIf
000000000042eb18 T png_handle_hIST
000000000042ecb0 T png_handle_pHYs
000000000042ee08 T png_handle_oFFs
000000000042effc T png_handle_pCAL
000000000042f384 T png_handle_sCAL
000000000042f684 T png_handle_tIME
000000000042f7d0 T png_handle_tEXt
000000000042f9fc T png_handle_zTXt
000000000042fedc T png_handle_iTXt
0000000000430278 T png_handle_unknown
0000000000430534 T png_combine_row
0000000000430bbc T png_do_read_interlace
0000000000430f88 T png_read_filter_row
0000000000431004 T png_read_IDAT_data
0000000000431270 T png_read_finish_IDAT
00000000004312f8 T png_read_finish_row
0000000000431454 T png_read_start_row
0000000000432130 T png_set_bKGD
000000000043215c T png_set_cHRM_fixed
00000000004321fc T png_set_cHRM_XYZ_fixed
00000000004322a4 T png_set_cHRM
0000000000432444 T png_set_cHRM_XYZ
0000000000432608 T png_set_eXIf
0000000000432614 T png_set_eXIf_1
00000000004326d8 T png_set_gAMA_fixed
0000000000432714 T png_set_gAMA
000000000043276c T png_set_hIST
0000000000432830 T png_set_IHDR
00000000004328f8 T png_set_oFFs
0000000000432918 T png_set_pCAL
0000000000432ba4 T png_set_sCAL_s
0000000000432d2c T png_set_sCAL
0000000000432e28 T png_set_sCAL_fixed
0000000000432f1c T png_set_pHYs
0000000000432f3c T png_set_PLTE
000000000043305c T png_set_sBIT
0000000000433088 T png_set_sRGB
00000000004330c4 T png_set_sRGB_gAMA_and_cHRM
0000000000433110 T png_set_iCCP
0000000000433274 T png_set_text
00000000004332a8 T png_set_text_2
00000000004335ec T png_set_tIME
0000000000433668 T png_set_tRNS
00000000004337c4 T png_set_sPLT
0000000000433964 T png_set_unknown_chunks
0000000000433b0c T png_set_unknown_chunk_location
0000000000433c18 T png_permit_mng_features
0000000000433c30 T png_set_keep_unknown_chunks
0000000000433e4c T png_set_read_user_chunk_fn
0000000000433e5c T png_set_rows
0000000000433ebc T png_set_compression_buffer_size
0000000000433f54 T png_set_invalid
0000000000433f6c T png_set_user_limits
0000000000433f7c T png_set_chunk_cache_max
0000000000433f88 T png_set_chunk_malloc_max
0000000000433f94 T png_set_benign_errors
0000000000433fb4 T png_set_check_for_invalid_index
0000000000433fc4 T png_check_keyword
0000000000434140 T png_set_bgr
0000000000434154 T png_set_swap
0000000000434174 T png_set_packing
000000000043419c T png_set_packswap
00000000004341bc T png_set_shift
00000000004341e4 T png_set_interlace_handling
000000000043420c T png_set_filler
0000000000434294 T png_set_add_alpha
000000000043434c T png_set_swap_alpha
0000000000434360 T png_set_invert_alpha
0000000000434374 T png_set_invert_mono
0000000000434388 T png_do_invert
000000000043451c T png_do_swap
00000000004345fc T png_do_packswap
0000000000434678 T png_do_strip_channel
000000000043483c T png_do_bgr
00000000004349c8 T png_do_check_palette_indexes
0000000000434d7c T png_set_user_transform_info
0000000000434dac T png_get_user_transform_ptr
0000000000434db8 T png_get_current_row_number
0000000000434dcc T png_get_current_pass_number
0000000000434de0 T png_write_data
0000000000434e00 T png_default_write_data
0000000000434e4c T png_flush
0000000000434e5c T png_default_flush
0000000000434e6c T png_set_write_fn
0000000000434eb8 T png_write_info_before_PLTE
00000000004350cc T png_write_info
00000000004353c4 T png_write_end
0000000000435558 T png_convert_from_struct_tm
0000000000435588 T png_convert_from_time_t
0000000000435610 T png_create_write_struct
0000000000435684 T png_create_write_struct_2
00000000004356ec T png_write_rows
0000000000435734 T png_write_row
0000000000435ae8 T png_write_image
0000000000435b6c T png_set_flush
0000000000435b7c T png_write_flush
0000000000435bc8 T png_destroy_write_struct
0000000000435c7c T png_set_filter
0000000000435e38 T png_set_filter_heuristics
0000000000435e3c T png_set_filter_heuristics_fixed
0000000000435e40 T png_set_compression_level
0000000000435e4c T png_set_compression_mem_level
0000000000435e58 T png_set_compression_strategy
0000000000435e70 T png_set_compression_window_bits
0000000000435ecc T png_set_compression_method
0000000000435f14 T png_set_text_compression_level
0000000000435f20 T png_set_text_compression_mem_level
0000000000435f2c T png_set_text_compression_strategy
0000000000435f38 T png_set_text_compression_window_bits
0000000000435f94 T png_set_text_compression_method
0000000000435fdc T png_set_write_status_fn
0000000000435fe8 T png_set_write_user_transform_fn
0000000000436000 T png_write_png
00000000004361ac T png_image_write_to_memory
0000000000436484 T png_image_write_to_stdio
0000000000436f4c T png_image_write_to_file
0000000000437684 T png_do_write_transformations
00000000004382b0 T png_save_uint_32
00000000004382bc T png_save_uint_16
00000000004382cc T png_write_sig
000000000043835c T png_write_chunk_start
0000000000438434 T png_write_chunk_data
0000000000438480 T png_write_chunk_end
00000000004384e4 T png_write_chunk
0000000000438630 T png_free_buffer_list
0000000000438670 T png_write_IHDR
0000000000438960 T png_write_PLTE
0000000000438b50 T png_compress_IDAT
000000000043933c T png_write_IEND
0000000000439378 T png_write_gAMA_fixed
00000000004393d4 T png_write_sRGB
0000000000439454 T png_write_iCCP
00000000004398d8 T png_write_sPLT
0000000000439b88 T png_write_sBIT
0000000000439cac T png_write_cHRM_fixed
0000000000439d78 T png_write_tRNS
0000000000439f1c T png_write_bKGD
000000000043a090 T png_write_eXIf
000000000043a1d0 T png_write_hIST
000000000043a348 T png_write_tEXt
000000000043a504 T png_write_zTXt
000000000043a764 T png_write_iTXt
000000000043aabc T png_write_oFFs
000000000043ab70 T png_write_pCAL
000000000043ae48 T png_write_sCAL_s
000000000043af58 T png_write_pHYs
000000000043b020 T png_write_tIME
000000000043b0fc T png_write_start_row
000000000043b244 T png_write_finish_row
000000000043b368 T png_do_write_interlace
000000000043b778 T png_write_find_filter
000000000043cab4 T _Z19OS_SetOpenAlContextPvS_
000000000043cab8 T _Z26OS_GetCurrentOpenAlContextv
000000000043cac0 T _Z11OS_DebugOutPKc
000000000043cadc T _Z13OS_DebugBreakv
000000000043cb00 T _Z21AND_DisplayInitializeP7_JNIEnv
000000000043cc18 T _Z20OS_ThreadMakeCurrentv
000000000043cc44 T _Z22OS_ThreadUnmakeCurrentv
000000000043cc60 T _Z20OS_ScreenSwapBuffersv
000000000043cc7c T _Z17OS_ScreenGetWidthv
000000000043cc8c T _Z18OS_ScreenGetHeightv
000000000043cc9c T _Z16OS_CanGameRenderv
000000000043ccb0 T _Z19OS_ShowSplashScreenv
000000000043cce8 T _Z19OS_HideSplashScreenv
000000000043cd20 T _Z24OS_IsSplashScreenVisiblev
000000000043cd68 T _Z17OS_SetSplashImageRKNSt6__ndk112basic_stringIcNS_11char_traitsIcEENS_9allocatorIcEEEE
000000000043cde4 T _Z16OS_SetSplashTextRKNSt6__ndk112basic_stringIcNS_11char_traitsIcEENS_9allocatorIcEEEE
000000000043ce60 T _Z21AND_DestroyEglSurfacev
000000000043cec0 T _Z20AND_CreateEglSurfacev
000000000043cf58 T Java_com_rockstargames_oswrapper_GameNative_implOnSurfaceCreated
000000000043cf5c T Java_com_rockstargames_oswrapper_GameNative_implOnSurfaceChanged
000000000043d3bc T Java_com_rockstargames_oswrapper_GameNative_implOnSurfaceDestroyed
000000000043d574 W _ZN7_JNIEnv14CallVoidMethodEP8_jobjectP10_jmethodIDz
000000000043d610 W _ZN7_JNIEnv17CallBooleanMethodEP8_jobjectP10_jmethodIDz
000000000043d6ac T _Z27OS_FileSetAsyncReadMultiplei
000000000043d6bc T _Z18AND_FileInitializev
000000000043d6e0 T _Z15AND_FileCleanupv
000000000043d70c T _Z13AsyncFileLockv
000000000043d71c T _Z15AsyncFileUnlockv
000000000043d72c T _Z17AND_NormalizePathPKcbbb
000000000043d998 T _Z14AND_FileUpdated
000000000043da94 T _Z11OS_FileOpen14OSFileDataAreaPPvPKc16OSFileAccessType
000000000043dcd4 W _ZN11AndroidFileD2Ev
000000000043dd84 T _Z16OS_FileSubHandlePvii
000000000043ddc0 T _Z18OS_FileSetPositionPvi
000000000043de54 T _Z12OS_FileClosePv
000000000043dee8 T _Z11OS_FileReadPvS_i
000000000043e02c T _Z12OS_FileWritePvPKvi
000000000043e070 T _Z13OS_FileDelete14OSFileDataAreaPKc
000000000043e114 T _Z11OS_FileSizePv
000000000043e204 W _ZN11AndroidFile16SetPositionAsyncEi
000000000043e294 T _Z18OS_FileGetPositionPv
000000000043e2d8 T _Z15OS_FileGetStatePv
000000000043e2fc T _Z12OS_FileFlushPv
000000000043e358 T _Z13OS_FileRename14OSFileDataAreaPKcS1_b
000000000043e46c T _Z14OS_FileGetDate14OSFileDataAreaPKc
000000000043e524 W _ZN15GamepadProviderD2Ev
000000000043e550 W _ZN21AccelerometerProviderD2Ev
000000000043e554 T Java_com_rockstargames_oswrapper_GameNative_implOnGamepadButtonDown
000000000043e56c W _ZN15GamepadProvider15onButtonChangedEiib
000000000043e6a4 T Java_com_rockstargames_oswrapper_GameNative_implOnGamepadButtonUp
000000000043e6bc T Java_com_rockstargames_oswrapper_GameNative_implOnGamepadAxesChanged
000000000043e794 T Java_com_rockstargames_oswrapper_GameNative_implOnGamepadConnected
000000000043e7a4 W _ZN15GamepadProvider9onConnectEi
000000000043ea00 T Java_com_rockstargames_oswrapper_GameNative_implOnGamepadDisconnected
000000000043ea10 W _ZN15GamepadProvider12onDisconnectEi
000000000043ec5c T Java_com_rockstargames_oswrapper_GameNative_implOnGamepadResume
000000000043eda4 W _ZN15GamepadProvider8onResumeENSt6__ndk16vectorIiNS0_9allocatorIiEEEE
000000000043f038 T Java_com_rockstargames_oswrapper_GameNative_implOnAccelerometerChanged
000000000043f088 T _Z20AND_GamepadResetAxesv
000000000043f100 T _Z21OS_GamepadIsConnectedjP13OSGamepadType
000000000043f164 T _Z16OS_GamepadButtonjj
000000000043f1f4 T _Z14OS_GamepadAxisjj
000000000043f2a8 T _Z18OS_GamepadTouchpadjjPfS_
000000000043f2b0 T _Z23OS_GamepadAccelerometerPfS_S_
000000000043f400 W _ZN15GamepadProvider20notifyReset_UnlockedEi
000000000043fb54 W _ZNSt6__ndk13setIiNS_4lessIiEENS_9allocatorIiEEEC2B8ne180000INS_11__wrap_iterIPiEEEET_SA_RKS2_
000000000043fc74 W _ZNSt6__ndk16__treeIiNS_4lessIiEENS_9allocatorIiEEE12__find_equalIiEERPNS_16__tree_node_baseIPvEENS_21__tree_const_iteratorIiPNS_11__tree_nodeIiS8_EElEERPNS_15__tree_end_nodeISA_EESB_RKT_
000000000043fef0 T _Z22AND_LanguageInitializeP7_JNIEnv
000000000043ff4c T _Z23OS_LanguageUserSelectedv
000000000043ffa8 W _ZN7_JNIEnv13CallIntMethodEP8_jobjectP10_jmethodIDz
0000000000440044 T JNI_OnLoad
00000000004400bc T _Z23AND_GetPlatformServicesRP7_JNIEnv
00000000004400e8 T _Z23AND_GetPlatformServicesv
00000000004400f4 T _Z19AND_GameStartupDonev
0000000000440108 T _Z23AND_GameMarkStartupDonev
000000000044011c T _Z18OS_IsGameSuspendedv
0000000000440128 T _Z21OS_IsNetworkReachablev
000000000044013c T Java_com_rockstargames_oswrapper_GameNative_implIsInitialized
0000000000440150 T Java_com_rockstargames_oswrapper_GameNative_implOnInitialSetup
0000000000440250 T Java_com_rockstargames_oswrapper_GameNative_implOnActivityCreated
00000000004402b4 T Java_com_rockstargames_oswrapper_GameNative_implOnActivityDestroyed
00000000004402e8 T Java_com_rockstargames_oswrapper_GameNative_implOnPause
000000000044031c T Java_com_rockstargames_oswrapper_GameNative_implOnResume
0000000000440350 T Java_com_rockstargames_oswrapper_GameNative_implOnNetworkChanged
00000000004403b8 T Java_com_rockstargames_oswrapper_GameNative_implOnLowMemory
00000000004403c4 T Java_com_rockstargames_oswrapper_GameNative_implOnDrawFrame
0000000000440438 T _Z7OS_Quitv
0000000000440468 T _Z19AND_MovieInitializeP7_JNIEnv
0000000000440578 T _Z12OS_MoviePlayPKcbbf
00000000004405f0 T _Z20OS_MoviePlayinWindowPKciiiibbf
0000000000440668 T _Z20OS_MovieSetSkippableb
000000000044066c T _Z12OS_MovieStopv
00000000004406a4 T _Z17OS_MovieIsPlayingPi
00000000004406ec T _Z15OS_MovieSetTextPKcbb
0000000000440764 T _Z17OS_MovieClearTextb
00000000004407dc T _Z19OS_MovieDisplayTextb
00000000004407e0 T _Z17OS_MovieTextScalei
00000000004407e4 T _Z22AND_PlaylistInitializeP7_JNIEnv
0000000000440950 T _Z15OS_PlaylistOpenPKc
00000000004409c0 T _Z20OS_PlaylistAvailablev
00000000004409cc T _Z15OS_PlaylistPlayv
0000000000440a04 T _Z16OS_PlaylistPausev
0000000000440a3c T _Z15OS_PlaylistStopv
0000000000440a74 T _Z20OS_PlaylistIsPlayingv
0000000000440abc T _Z16OS_PlaylistCountv
0000000000440af4 T _Z20OS_PlaylistSetVolumef
0000000000440b3c T Java_com_rockstargames_oswrapper_GameNative_implOnPlaylistOpenComplete
0000000000440b58 T _Z19AND_TouchInitializeP7_JNIEnvP8_jobject
0000000000440bdc T _Z17OS_HasTouchScreenv
0000000000440be8 T _Z14AND_TouchEventiiii
0000000000440d78 T _Z19OS_PointerGetNumberv
0000000000440d80 T _Z14OS_PointerLockb
0000000000440d84 T _Z17OS_PointerGetTypei
0000000000440d94 T Java_com_rockstargames_oswrapper_GameNative_implOnTouchStart
0000000000440dac T Java_com_rockstargames_oswrapper_GameNative_implOnTouchMove
0000000000440dc4 T Java_com_rockstargames_oswrapper_GameNative_implOnTouchEnd
0000000000440ddc T Java_com_rockstargames_oswrapper_GameNative_implOnBackButtonPressed
0000000000440de0 T _Z22AND_RockstarInitializeP7_JNIEnv
0000000000441048 T _Z19OS_RockstarShowGatei
0000000000441090 T _Z22OS_RockstarShowInitialv
00000000004410c8 T _Z17OS_RockstarSignInv
0000000000441100 T _Z18OS_RockstarSignOutv
0000000000441138 T _Z24OS_RockstarDeleteAccountv
0000000000441170 T _Z28OS_RockstarSetLocalePriorityRKNSt6__ndk112basic_stringIcNS_11char_traitsIcEENS_9allocatorIcEEEE
00000000004411ec T _Z18OS_RockstarInTrialv
0000000000441234 T _Z28OS_RockstarShowCloudDisabledv
000000000044126c T _Z24OS_RockstarRequestReviewv
00000000004412a4 T _Z20OS_Internal_HttpHeadiRKNSt6__ndk112basic_stringIcNS_11char_traitsIcEENS_9allocatorIcEEEE
0000000000441328 T _Z19OS_Internal_HttpGetiRKNSt6__ndk112basic_stringIcNS_11char_traitsIcEENS_9allocatorIcEEEERKNS_6vectorIN2SC3hal4Http6HeaderENS3_ISC_EEEE
00000000004415a8 T _Z20OS_Internal_HttpPostiRKNSt6__ndk112basic_stringIcNS_11char_traitsIcEENS_9allocatorIcEEEEPKciRKNS_6vectorIN2SC3hal4Http6HeaderENS3_ISE_EEEE
00000000004416dc T _Z22OS_Internal_HttpCanceli
0000000000441724 T Java_com_rockstargames_oswrapper_GameNative_implOnRockstarSetup
0000000000441934 T Java_com_rockstargames_oswrapper_GameNative_implOnRockstarIdChanged
0000000000441a80 T Java_com_rockstargames_oswrapper_GameNative_implOnRockstarStateChanged
0000000000441a90 T Java_com_rockstargames_oswrapper_GameNative_implOnRockstarTicketChanged
0000000000441bdc T Java_com_rockstargames_oswrapper_GameNative_implOnRockstarGateComplete
0000000000441bf0 T Java_com_rockstargames_oswrapper_GameNative_implOnRockstarInitialComplete
0000000000441bf4 T Java_com_rockstargames_oswrapper_GameNative_implOnRockstarSignInComplete
0000000000441bf8 T Java_com_rockstargames_oswrapper_GameNative_implOnRockstarSignOutComplete
0000000000441bfc T Java_com_rockstargames_oswrapper_GameNative_implOnRockstarCloudDisabledComplete
0000000000441c00 T Java_com_rockstargames_oswrapper_GameNative_implOnRockstarAccountDeletionComplete
0000000000441c04 T Java_com_rockstargames_oswrapper_GameNative_implOnHttpRequestResponse
00000000004421bc W _ZN2SC3hal4Http6HeaderD2Ev
0000000000442288 T Java_com_rockstargames_oswrapper_GameNative_implOnHttpRequestData
000000000044233c T Java_com_rockstargames_oswrapper_GameNative_implOnHttpRequestError
0000000000442348 T Java_com_rockstargames_oswrapper_GameNative_implOnHttpRequestFinished
0000000000442350 T _Z18AND_MiscInitializeP7_JNIEnv
00000000004423dc T _Z11OS_OpenLinkPKc
0000000000442454 T _Z16OS_GetAppVersionv
000000000044256c W _ZN7_JNIEnv16CallObjectMethodEP8_jobjectP10_jmethodIDz
0000000000442608 T _Z20AND_SystemInitializeP7_JNIEnvP8_jobject
000000000044268c T _Z13OS_SystemFormv
0000000000442698 T _Z20AND_ThreadInitializev
0000000000442704 W _ZN13ANDThreadData7DestroyEPv
0000000000442710 T _Z17AND_ThreadCleanupv
0000000000442720 T _Z29AND_CurrentThreadAffinityMaskPKci
00000000004428f0 T _Z12ANDRunThreadPv
0000000000442968 T _Z15OS_ThreadLaunchPFjPvES_jPKci16OSThreadPriority
0000000000442b38 T _Z17OS_ThreadSetValuePv
0000000000442b70 T _Z17OS_ThreadGetValuev
0000000000442b98 T _Z21OS_ThreadSetStackSizej
0000000000442b9c T _Z18OS_ThreadIsRunningPv
0000000000442bb0 T _Z13OS_ThreadWaitPv
0000000000442bc4 T _Z14OS_ThreadClosePv
0000000000442bec T _Z14OS_MutexCreatePKc
0000000000442c48 T _Z14OS_MutexDeletePv
0000000000442c88 T _Z14OS_MutexObtainPv
0000000000442c8c T _Z15OS_MutexReleasePv
0000000000442c90 T _Z16AND_ThreadOnMainv
0000000000442cbc T _Z18OS_SemaphoreCreatev
0000000000442cf4 T _Z18OS_SemaphoreDeletePv
0000000000442cf8 T _Z16OS_SemaphorePostPv
0000000000442cfc T _Z16OS_SemaphoreWaitPv
0000000000442d00 T _Z19OS_SemaphoreTryWaitPv
0000000000442d3c T _Z15OS_SemaphoreGetPv
0000000000442d8c T _Z18AND_TimeInitializev
0000000000442e08 T _Z9OS_TimeMSv
0000000000442ef0 T _Z15OS_TimeAccuratev
0000000000442fc4 T _Z14OS_ThreadSleepi
0000000000442fc8 W _ZN7OSArrayIPcED2Ev
0000000000443078 T _Z9NvAPKInitP8_jobjectP13_jobjectArrayS2_
0000000000443550 T _Z9NvAPKOpenPKc
00000000004435c0 T _Z9NvAPKSizePv
00000000004435c4 T _Z9NvAPKReadPvmmS_
0000000000443600 T _Z12FindFileNamePKc
0000000000443664 T _Z17NvAPKOpenFromPackPKc
000000000044389c T _Z10NvAPKClosePv
00000000004438a0 T _Z9NvAPKGetcPv
00000000004438f0 T _Z9NvAPKGetsPciPv
000000000044396c T _Z8NvAPKEOFPv
0000000000443988 T _Z9NvAPKSeekPvli
00000000004439a4 T _Z9NvAPKTellPv
00000000004439d4 W _ZNSt6__ndk16vectorINS_12basic_stringIcNS_11char_traitsIcEENS_9allocatorIcEEEENS4_IS6_EEE24__emplace_back_slow_pathIJRKPKcEEEPS6_DpOT_
0000000000443cf8 T _Z7NvFInitv
0000000000443cfc T _Z7NvFOpenPKc
0000000000443d84 T _Z12NvFIsApkFilePv
0000000000443d94 T _Z8NvFClosePv
0000000000443dd0 T _Z7NvFGetcPv
0000000000443de8 T _Z7NvFGetsPciPv
0000000000443e00 T _Z7NvFSizePv
0000000000443e78 T _Z7NvFSeekPvli
0000000000443ea4 T _Z7NvFTellPv
0000000000443ebc T _Z7NvFReadPvmmS_
0000000000443ed4 T _Z6NvFEOFPv
0000000000443eec T _Z12NVThreadInitP7_JavaVM
0000000000443ef8 T _Z24NVThreadGetCurrentJNIEnvv
0000000000444000 T _Z22NVThreadSpawnJNIThreadPlPK14pthread_attr_tPKcPFPvS5_ES5_
00000000004441d8 T _Z13NVThreadSleepm
000000000044427c W _ZN7_JNIEnv22CallStaticObjectMethodEP7_jclassP10_jmethodIDz
0000000000444318 T _Z10NvUtilInitv
0000000000444564 T _Z22NvUtilGetLocalAppValuePciPKc
0000000000444654 T _Z22NvUtilHasLocalAppValuePKc
00000000004446b0 T _Z22NvUtilSetLocalAppValuePKcS0_
0000000000444724 T _Z18NvUtilGetParameterPciPKc
0000000000444ae0 W _ZN15ButtonContainerILi100EED2Ev
0000000000444b14 T _Z15LIB_InputUpdatei
0000000000444c30 W _ZN15ButtonContainerILi3EE6UpdateEb
0000000000444edc W _ZN15ButtonContainerILi100EE6UpdateEb
00000000004451bc W _ZN15ButtonContainerILi16EE6UpdateEb
0000000000445444 T _Z14LIB_InputEvent11OSEventTypePv
00000000004457bc T _Z25LIB_PointerGetCoordinatesiPiS_Pf
0000000000445840 T _Z20LIB_PointerGetButtonii
0000000000445894 T _Z19LIB_PointerGetWheeli
00000000004459b8 T _Z30LIB_PointerSetDoubleClickDelayf
00000000004459d4 T _Z24LIB_PointerDoubleClickedii
0000000000445a34 T _Z18LIB_KeyboardIsDown13OSKeyboardKey
0000000000445a50 T _Z17LIB_KeyboardState13OSKeyboardKey
0000000000445a60 T _Z19LIB_KeyboardPressed13OSKeyboardKey
0000000000445a78 T _Z21LIB_KeyboardUpdateKey13OSKeyboardKey
0000000000445aac T _Z24LIB_KeyboardComboPressed13OSKeyboardKeyS_
0000000000445af8 T _Z24LIB_KeyboardDoubleTapped13OSKeyboardKey
0000000000445b0c T _Z16LIB_GamepadStateii
0000000000445b28 T _Z24LIB_ClearInputNextUpdatev
0000000000445b3c T _Z20OS_NormalizeFilenameNSt6__ndk112basic_stringIcNS_11char_traitsIcEENS_9allocatorIcEEEEb
0000000000445fcc W _ZN5boost9algorithm13trim_right_ifINSt6__ndk112basic_stringIcNS2_11char_traitsIcEENS2_9allocatorIcEEEENS0_6detail14is_classifiedFEEEvRT_T0_
0000000000446144 T _Z20OS_RockstarCloudInitv
000000000044643c W _ZNSt6__ndk118basic_stringstreamIcNS_11char_traitsIcEENS_9allocatorIcEEED1Ev
00000000004464bc T _Z22OS_RockstarCloudUpdatev
0000000000446508 T _Z19OS_RockstarSignedInv
0000000000446530 T _Z16OS_RockstarGetIdv
000000000044653c T _Z25OS_RockstarCloudAvailablev
0000000000446578 T _Z26OS_RockstarHasScAuthTicketv
00000000004465a0 T _Z20OS_RockstarGetTicketv
00000000004465ac T _Z23OS_RockstarToggleSignInv
00000000004465d4 T _Z25OS_RockstarGetEnvironmentv
00000000004465e0 T _Z25OS_Internal_RockstarSetIdRKNSt6__ndk112basic_stringIcNS_11char_traitsIcEENS_9allocatorIcEEEE
0000000000446610 T _Z34OS_Internal_RockstarSetEnvironmentRKNSt6__ndk112basic_stringIcNS_11char_traitsIcEENS_9allocatorIcEEEE
0000000000446620 T _Z29OS_Internal_RockstarSetTicketRKNSt6__ndk112basic_stringIcNS_11char_traitsIcEENS_9allocatorIcEEEE
0000000000446650 T _ZN2SC3hal4Http4HEADERKNSt6__ndk112basic_stringIcNS2_11char_traitsIcEENS2_9allocatorIcEEEEPNS1_20HttpResponseDelegateE
0000000000446894 T _ZN2SC3hal4Http3GETERKNSt6__ndk112basic_stringIcNS2_11char_traitsIcEENS2_9allocatorIcEEEERKNS2_6vectorINS1_6HeaderENS6_ISC_EEEEPNS1_20HttpResponseDelegateE
00000000004468f0 T _ZN2SC3hal4Http4POSTERKNSt6__ndk112basic_stringIcNS2_11char_traitsIcEENS2_9allocatorIcEEEEPKciRKNS2_6vectorINS1_6HeaderENS6_ISE_EEEEPNS1_20HttpResponseDelegateE
0000000000446964 T _ZN2SC3hal4Http6CancelERKNSt6__ndk110shared_ptrIS1_EE
0000000000446970 T _Z33OS_Internal_HttpOnRequestResponseiiRKNSt6__ndk112basic_stringIcNS_11char_traitsIcEENS_9allocatorIcEEEERKNS_6vectorIN2SC3hal4Http6HeaderENS3_ISC_EEEE
0000000000446c9c T _Z29OS_Internal_HttpOnRequestDataiPKcm
0000000000446e60 T _Z30OS_Internal_HttpOnRequestErrorii
0000000000447080 T _Z33OS_Internal_HttpOnRequestFinishedi
0000000000447298 T _ZN2SC14cfgGetProtocolEv
00000000004472a4 T _ZN2SC9cfgGetEnvEv
00000000004472c0 T _ZN2SC13cfgGetVersionEv
00000000004472cc T _ZN2SC13cfgGetAppNameEv
00000000004472d0 T _ZN2SC13cfgGetTitleIdEv
00000000004472d4 T _ZN2SC16cfgGetSubAppNameEv
00000000004472d8 T _ZN2SC17cfgGetAppPlatformEv
00000000004472e4 T _ZN2SC17cfgGetRosPlatformEv
00000000004472f0 T _Z26OS_RockstarGetTranslationsv
000000000044732c T _Z26OS_RockstarGetTranslations14OSLanguageCode
0000000000447354 W _ZNSt6__ndk120__shared_ptr_emplaceIN2SC3hal4HttpENS_9allocatorIS3_EEED2Ev
0000000000447368 W _ZNSt6__ndk120__shared_ptr_emplaceIN2SC3hal4HttpENS_9allocatorIS3_EEED0Ev
00000000004473a4 W _ZNSt6__ndk16__treeINS_12__value_typeIiNS_10shared_ptrIN2SC3hal4HttpEEEEENS_19__map_value_compareIiS7_NS_4lessIiEELb1EEENS_9allocatorIS7_EEE14__erase_uniqueIiEEmRKT_
0000000000447b40 W _ZN2SC12localisation12KeyValuePairD2Ev
0000000000448a9c T _ZN2SC20cloudGetUploadResultEv
0000000000448aac T _ZN2SC9cloudInitEv
0000000000448b58 T _ZN2SC17cloudModListResetEv
0000000000448b84 T _ZN2SC9cloudExitEv
0000000000448bb4 T _ZN2SC11cloudIsBusyEv
0000000000448bdc T _ZN2SC17cloudGetLastErrorEv
0000000000448bfc T _ZN2SC18cloudStartDownloadEPKc
0000000000448c5c T _ZN2SC19cloudStartDoesExistEPKc
0000000000448cc0 T _ZN2SC18cloudStartCheckModEPKc
0000000000448d24 T _ZN2SC16cloudStartUploadEPKcS1_PKvi
0000000000448dd8 T _ZN2SC17cloudStartPublishEPKcS1_PKvi
0000000000448e8c T _ZN2SC11cloudUpdateEv
000000000044986c T _ZN2SC12cloudModFindEPKc
00000000004498e4 T _ZN2SC18cloudCreateContentEPcPviS0_S0_S0_
00000000004499f4 T _ZN2SC12cloudGetFreeEv
0000000000449a30 T _ZN2SC17cloudGetDoesExistEv
0000000000449a44 T _ZN2SC17cloudGetBufferPtrEv
0000000000449a58 T _ZN2SC17cloudGetBufferLenEv
0000000000449a6c T _ZN2SC18cloudGetPublishUrlEv
0000000000449a80 T _ZN2SC15cloudAddContentEPcPviS0_
0000000000449acc T _ZN2SC16cloudModAddWatchEPKc
0000000000449b38 T _ZN2SC19cloudModRemoveWatchEPKc
0000000000449bb8 T _ZN2SC18cloudModIsModifiedEPKc
0000000000449c40 T _ZN2SC19cloudModSetModifiedEPc
0000000000449d50 T _ZN2SC13cloudModResetEPKc
0000000000449dcc T _ZN2SC13eggtimerResetEPNS_11eggtimerHndE
0000000000449e28 T _ZN2SC21eggTimerGetSysSecondsEv
0000000000449e7c T _ZN2SC16eggtimerSetAlarmEPNS_11eggtimerHndEi
0000000000449ee8 T _ZN2SC15eggtimerIsAlarmEPNS_11eggtimerHndE
0000000000449f50 T _ZN2SC18eggtimerGetSecondsEPNS_11eggtimerHndE
0000000000449fb0 T _ZN2SC33httpConnectionDidReceieveResponseENSt6__ndk110shared_ptrINS_3hal4HttpEEEiPKcPPNS_7httpHdrE
000000000044a18c T _ZN2SC11httpConFindENSt6__ndk110shared_ptrINS_3hal4HttpEEE
000000000044a1ec T _ZN2SC28httpConnectionDidReceiveDataENSt6__ndk110shared_ptrINS_3hal4HttpEEEPKcm
000000000044a32c T _ZN2SC30httpConnectionDidFailWithErrorENSt6__ndk110shared_ptrINS_3hal4HttpEEEi
000000000044a4ac T _ZN2SC30httpConnectionDidFinishLoadingENSt6__ndk110shared_ptrINS_3hal4HttpEEE
000000000044a6e4 T _ZN2SC8httpInitEv
000000000044a9e0 T _ZN2SC12httpConResetEPNS_7httpConE
000000000044aa64 T _ZN2SC8httpExitEv
000000000044acb4 T _ZN2SC11httpCleanupEi
000000000044ad74 T _ZN2SC10httpUpdateEv
000000000044ad94 T _ZN2SC29httpGetServerTimeSecondsAheadEv
000000000044ada4 T _ZN2SC8httpPostEPcS0_S0_iib
000000000044af28 T _ZN2SC7httpGetEPcS0_i
000000000044b060 T _ZN2SC8httpHeadEPci
000000000044b19c T _ZN2SC10httpCancelEi
000000000044b270 T _ZN2SC8httpWaitEPcS0_S0_i
000000000044b3f4 T _ZN2SC18httpPopWaitMessageEi
000000000044b434 T _ZN2SC9httpCheckEPiS0_i
000000000044b4f0 T _ZN2SC18httpGetLocationUrlEi
000000000044b510 T _ZN2SC11httpGetDateEi
000000000044b530 T _ZN2SC22httpCalculateRosSecretEPcS0_i
000000000044b824 T _ZN2SC14httpNextHeaderEPcS0_S0_
000000000044b89c T _ZN2SC13httpIsSuccessEi
000000000044b8ac T _ZN2SC11halHttpPostEPKcS1_S1_ib
000000000044c2c8 T _ZN2SC10halHttpGetEPKcS1_
000000000044c67c T _ZN2SC11halHttpHeadEPKc
000000000044c79c T _ZN2SC13halHttpCancelERKNSt6__ndk110shared_ptrINS_3hal4HttpEEE
000000000044c7a0 T _ZN2SC21halHttpStdVectorAllocEv
000000000044c7c0 T _ZN2SC20halHttpStdVectorPushEPNSt6__ndk16vectorIcNS0_9allocatorIcEEEEPKci
000000000044c938 T _ZN2SC20halHttpStdVectorSizeEPNSt6__ndk16vectorIcNS0_9allocatorIcEEEE
000000000044c948 T _ZN2SC23halHttpStdVectorGetDataEPNSt6__ndk16vectorIcNS0_9allocatorIcEEEEPci
000000000044c980 T _ZN2SC20halHttpStdVectorFreeEPNSt6__ndk16vectorIcNS0_9allocatorIcEEEE
000000000044c9bc T _ZN2SC14halHttpDecryptEPNSt6__ndk16vectorIcNS0_9allocatorIcEEEE
000000000044cca4 W _ZN2SC22ScHttpResponseDelegate17onReceiveResponseENSt6__ndk110shared_ptrINS_3hal4HttpEEEiNS1_12basic_stringIcNS1_11char_traitsIcEENS1_9allocatorIcEEEENS1_6vectorINS4_6HeaderENS9_ISD_EEEE
000000000044cea4 W _ZN2SC22ScHttpResponseDelegate13onReceiveDataENSt6__ndk110shared_ptrINS_3hal4HttpEEEPKcm
000000000044cf70 W _ZN2SC22ScHttpResponseDelegate17onRequestFinishedENSt6__ndk110shared_ptrINS_3hal4HttpEEE
000000000044d024 W _ZN2SC22ScHttpResponseDelegate15onRequestFailedENSt6__ndk110shared_ptrINS_3hal4HttpEEEi
000000000044d0e0 W _ZNSt6__ndk16vectorIN2SC3hal4Http6HeaderENS_9allocatorIS4_EEE21__push_back_slow_pathIRKS4_EEPS4_OT_
000000000044d3f4 T _ZN2SC15repSetUserAgentEPciPKcS2_S2_
000000000044d730 T _ZN2SC10repEncryptEPKNS_10repKeySaltEPKhi
000000000044e168 T _ZN2SC20repGetCiphertextSizeEPNS_6repCtxE
000000000044e170 T _ZN2SC16repGetCiphertextEPNS_6repCtxE
000000000044e178 T _ZN2SC10repDecryptEPKNS_10repKeySaltEPKhi
000000000044ed40 T _ZN2SC13repReleaseCtxEPNS_6repCtxE
000000000044ed80 T _ZN2SC19repPrintDebugStringEPKhi
000000000044efc4 T _ZN2SC10sha1CreateEv
000000000044eff0 T _ZN2SC11sha1DestroyEPNS_7sha1CtxE
000000000044effc T _ZN2SC9sha1ResetEPNS_7sha1CtxE
000000000044f028 T _ZN2SC10sha1UpdateEPNS_7sha1CtxEPhi
000000000044f0fc T _ZN2SC23sha1ProcessMessageBlockEPNS_7sha1CtxE
000000000044f3d8 T _ZN2SC10sha1ResultEPNS_7sha1CtxEPh
000000000044f470 T _ZN2SC14sha1PadMessageEPNS_7sha1CtxE
000000000044f540 T _ZN2SC17getTelemetryPhaseEv
000000000044f55c T _ZN2SC7tlmInitEv
000000000044f590 T _ZN2SC7tlmExitEv
000000000044f5e8 T _ZN2SC18tlmSubmissionAllocEPPcPm
000000000044f850 T _ZN2SC9tlmUpdateEv
000000000044fb70 T _ZN2SC8tlmFlushEv
000000000044fbb8 T _ZN2SC6tlmCatEPKc
000000000044fcb0 T _ZN2SC12tlmAddMetricEPKcS1_
000000000044fd8c T _ZN2SC14tlmGetBaseTimeEv
000000000044fdb0 T _ZN2SC20utilCatRosServiceUrlEPcS0_S0_b
000000000044fe68 T _ZN2SC22utilCatCloudServiceUrlEPcS0_S0_S0_
000000000044ff9c T _ZN2SC21utilGetConfigFilePathEPcS0_S0_S0_
000000000045004c T _ZN2SC19utilStrCatUrlEncodeEPcS0_
0000000000450094 T _ZN2SC16utilUrlEncodeChrEPcc
00000000004501a4 T _ZN2SC18utilAddPostDataIntEPcS0_i
0000000000450254 T _ZN2SC18utilAddPostDataStrEPcPKcS2_
00000000004502c8 T _ZN2SC21utilTerminatePostDataEPc
0000000000450304 T _ZN2SC22utilTranslateErrorCodeEPc
000000000045044c T _ZN2SC18utilStringFromDataEPcPKci
0000000000450718 T _ZN2SC23utilGetFileNameFromPathEPcS0_
0000000000450778 T _ZN2SC18utilGetDirFromPathEPcS0_
00000000004507f8 T _ZN2SC16utilStrDupeAllocEPKc
0000000000450824 T _ZN2SC15utilStrDupeFreeEPc
0000000000450830 T _ZN2SC18utilReadAssignDupeEPcS0_
000000000045089c T _ZN2SC22utilIsNetworkReachableEv
00000000004508a0 T _ZN2SC18utilMsgQueueCreateEPNS_12utilMsgQueueE
00000000004508d0 T _ZN2SC19utilMsgQueueDestroyEPNS_12utilMsgQueueE
000000000045091c T _ZN2SC16utilMsgQueuePushEPNS_12utilMsgQueueEPKc
00000000004509ac T _ZN2SC15utilMsgQueuePopEPNS_12utilMsgQueueE
00000000004509fc T _ZN2SC17utilMsgQueueFlushEPNS_12utilMsgQueueE
0000000000450a48 T _ZN2SC19utilNextPresencePrmEPcS0_S0_
0000000000450b74 T _ZN2SC18utilStripCloudPathEPcS0_S0_S0_
0000000000450c30 T _ZN2SC21utilJsonHelperReadIntEPcPKc
0000000000450cc8 T _ZN2SC18utilJsonHelperNextEPcPiS0_S0_ii
0000000000450e84 T _ZN2SC23utilJsonHelperSkipWhiteEPc
0000000000450eb4 T _ZN2SC21utilJsonHelperReadKeyEPcS0_i
0000000000450f1c T _ZN2SC22utilJsonHelperReadDataEPcS0_i
0000000000450ff0 T _ZN2SC27utilBase64GetMaxEncodedSizeEi
0000000000451014 T _ZN2SC27utilBase64GetMaxDecodedSizeEPc
0000000000451030 T _ZN2SC16utilBase64EncodeEPhiiPcPi
0000000000451198 T _ZN2SC16utilBase64DecodeEPciPhPi
00000000004512c8 T _ZN2SC19utilBase64CodeToValEc
0000000000451320 T _ZN2SC9xmlCutOutEPcS0_S0_
00000000004513a8 T _ZN2SC11xmlSkipPastEPcPKc
00000000004513e0 T _ZN2SC12xmlReadInt64EPcPKc
0000000000451598 T _ZN2SC10xmlReadSegEPcS0_PKci
00000000004516c4 T _ZN2SC13xmlStripWhiteEPc
000000000045181c T _ZN2SC9xmlAtoI64EPKc
0000000000451878 T _ZN2SC10xmlReadIntEPcPKc
0000000000451a30 T _ZN2SC7xmlAtoIEPKc
0000000000451a8c T _ZN2SC13xmlReadStringEPcPKcS0_
0000000000451bf8 T _ZN2SC13xmlReadIntHexEPcPKc
0000000000451db0 T _ZN2SC8xmlAXtoIEPKc
0000000000451e0c T _ZN2SC14xmlWriteIntHexEPcPKci
0000000000451ed0 T _ZN2SC17xmlCreateStartTagEPcPKc
0000000000451f04 T _ZN2SC9xmlItoAX8EPci
0000000000451f18 T _ZN2SC15xmlCreateEndTagEPcPKc
0000000000451f50 T _ZN2SC9xmlCopyToEPcS0_PKci
0000000000451fd0 T _ZN2SC14xmlReadBetweenEPcS0_S0_S0_i
0000000000452084 T _ZN2SC14xmlReadAssignIEPcPKcPi
0000000000452110 T _ZN2SC13xmlReadAssignEPcPKcS0_i
0000000000452218 T _ZN2SC9xmlStrCatEPcPKc
0000000000452238 T _ZN2SC10xmlStrCatIEPci
00000000004522c0 T _ZN2SC7xmlItoAEPci
00000000004522d4 T _ZN2SC8xmlItoAXEPci
000000000045238c T _ZN2SC10xmlAXtoI64EPKc
00000000004523e8 T _ZN2SC9xmlI64toAEPcm
00000000004523fc T _ZN2SC10xmlI64toAXEPcm
0000000000452410 T _ZN2SC7xmlAtoFEPKc
0000000000452474 T _ZN2SC7xmlFtoAEPcf
0000000000452488 T adler32
00000000004527b8 T adler32_combine
000000000045287c T adler32_combine64
0000000000452940 T get_crc_table
000000000045294c T crc32
0000000000452c48 T crc32_combine
0000000000452f3c T crc32_combine64
0000000000452f40 T deflateInit_
0000000000452f5c T deflateInit2_
00000000004531ec T deflateEnd
00000000004532d8 T deflateReset
0000000000453380 T deflateSetDictionary
000000000045391c T deflateResetKeep
00000000004539d8 T deflateSetHeader
0000000000453a04 T deflatePending
0000000000453a38 T deflatePrime
0000000000453af0 T deflateParams
0000000000453bf0 T deflate
0000000000454904 T deflateTune
0000000000454928 T deflateBound
00000000004552dc T deflateCopy
0000000000456644 T inflateResetKeep
00000000004566b0 T inflateReset
0000000000456724 T inflateReset2
000000000045683c T inflateInit2_
0000000000456914 T inflateInit_
0000000000456a30 T inflatePrime
0000000000456a98 T inflate
00000000004588dc T inflateEnd
0000000000458950 T inflateGetDictionary
00000000004589e4 T inflateSetDictionary
0000000000458aa4 T inflateGetHeader
0000000000458ad0 T inflateSync
0000000000458d00 T inflateSyncPoint
0000000000458d38 T inflateCopy
0000000000458ea0 T inflateUndermine
0000000000458ec4 T inflateMark
0000000000458f1c T inflate_table
000000000045957c T inflate_fast
000000000045a0d8 T _tr_init
000000000045a220 T _tr_stored_block
000000000045a380 T _tr_flush_bits
000000000045a410 T _tr_align
000000000045a564 T _tr_flush_block
000000000045b8e8 T _tr_tally
000000000045bf2c T zlibVersion
000000000045bf38 T zlibCompileFlags
000000000045bf40 T zError
000000000045bf58 T zcalloc
000000000045bf60 T zcfree
0000000000475018 D _ZTV21CAnimBlendAssociation
0000000000475038 D _ZTI21CAnimBlendAssociation
0000000000475048 D _ZTV18CAnimBlendSequence
0000000000475068 D _ZTI18CAnimBlendSequence
00000000004756d8 D _ZTV13HandModelInfo
0000000000475740 D _ZTI13HandModelInfo
0000000000475758 D _ZN3xml7Element4nullE
0000000000475760 D _ZTVN3xml7ElementE
00000000004757a8 D _ZTVN3xml10ElementTagE
00000000004757f0 D _ZTVN3xml13ElementSimpleE
0000000000475838 V _ZTVN3xml14ElementCommentE
0000000000475880 D _ZTVN3xml11ElementNullE
00000000004758c8 D _ZTIN3xml7ElementE
00000000004758d8 D _ZTIN3xml13ElementSimpleE
00000000004758f0 D _ZTIN3xml11ElementNullE
0000000000475908 D _ZTIN3xml10ElementTagE
0000000000475920 V _ZTIN3xml14ElementCommentE
0000000000475938 D _ZTVN3xml6ParserE
00000000004759a8 D _ZTIN3xml6ParserE
0000000000479fd8 D _ZTV6CWaves
0000000000479ff8 D _ZTI6CWaves
000000000047a008 D _ZTV9CBuilding
000000000047a0b0 D _ZTI9CBuilding
000000000047a0c8 D _ZTV6CSolid
000000000047a168 D _ZTI6CSolid
000000000047a180 D _ZTV10CTreadable
000000000047a228 D _ZTI10CTreadable
000000000047a478 D _ZTV6CDummy
000000000047a518 D _ZTI6CDummy
000000000047a530 D _ZTV7CEntity
000000000047a5d0 V _ZTI10CPlaceable
000000000047a5e0 D _ZTI7CEntity
000000000047a608 V _ZTV4CHID
000000000047a6b0 V _ZTI4CHID
000000000047a6c0 D _ZTV12CHIDJoystick
000000000047a770 D _ZTI12CHIDJoystick
000000000047a788 D _ZTV19CHIDJoystickXbox360
000000000047a838 D _ZTI19CHIDJoystickXbox360
000000000047a850 D _ZTV12CHIDKeyboard
000000000047a900 D _ZTI12CHIDKeyboard
000000000047a918 D _ZTV14CHIDKeyboardPC
000000000047a9d0 D _ZTI14CHIDKeyboardPC
000000000047ab58 D _ZTV9CPhysical
000000000047ac00 D _ZTI9CPhysical
000000000047ae18 D _ZTV13CCutsceneHead
000000000047aec0 D _ZTI13CCutsceneHead
000000000047aed8 D _ZTV15CCutsceneObject
000000000047af80 D _ZTI15CCutsceneObject
000000000047af98 D _ZTV12CDummyObject
000000000047b038 D _ZTI12CDummyObject
000000000047b050 D _ZTV7CObject
000000000047b0f8 D _ZTI7CObject
000000000047b110 D _ZTV11CProjectile
000000000047b1b8 D _ZTI11CProjectile
000000000047b1d0 D _ZTV15CStingerSegment
000000000047b278 D _ZTI15CStingerSegment
000000000047b290 D _ZTV12CCivilianPed
000000000047b340 D _ZTI12CCivilianPed
000000000047b358 D _ZTV7CCopPed
000000000047b408 D _ZTI7CCopPed
000000000047b420 D _ZTV9CDummyPed
000000000047b4c0 D _ZTI9CDummyPed
000000000047b4d8 D _ZTV13CEmergencyPed
000000000047b588 D _ZTI13CEmergencyPed
000000000047b5a0 D _ZTV4CPed
000000000047b650 D _ZTI4CPed
000000000047b6b0 D _ZTV24CPedIceCreamVanAttractor
000000000047b708 D _ZTV13CPedAttractor
000000000047b760 D _ZTI13CPedAttractor
000000000047b770 D _ZTV16CPedAtmAttractor
000000000047b7c8 D _ZTI16CPedAtmAttractor
000000000047b7e0 D _ZTV17CPedSeatAttractor
000000000047b838 D _ZTI17CPedSeatAttractor
000000000047b850 D _ZTV17CPedStopAttractor
000000000047b8a8 D _ZTI17CPedStopAttractor
000000000047b8c0 D _ZTV18CPedPizzaAttractor
000000000047b918 D _ZTI18CPedPizzaAttractor
000000000047b930 D _ZTV20CPedShelterAttractor
000000000047b988 D _ZTI20CPedShelterAttractor
000000000047b9a0 D _ZTI24CPedIceCreamVanAttractor
000000000047b9b8 D _ZTV10CPlayerPed
000000000047ba68 D _ZTI10CPlayerPed
000000000047bb18 D _ZTV14CBaseModelInfo
000000000047bb78 D _ZTI14CBaseModelInfo
000000000047bb88 D _ZTV15CClumpModelInfo
000000000047bbf0 D _ZTI15CClumpModelInfo
000000000047bc98 V _ZTV14CTimeModelInfo
000000000047bd00 V _ZTI14CTimeModelInfo
000000000047bfb0 D _ZTV13CPedModelInfo
000000000047c018 D _ZTI13CPedModelInfo
000000000047c030 D _ZTV16CSimpleModelInfo
000000000047c098 D _ZTI16CSimpleModelInfo
000000000047c178 D _ZTV17CVehicleModelInfo
000000000047c1e0 D _ZTI17CVehicleModelInfo
000000000047c1f8 D _ZTV16CWeaponModelInfo
000000000047c260 D _ZTI16CWeaponModelInfo
000000000047c278 D _ZTV19CXtraCompsModelInfo
000000000047c2e0 D _ZTI19CXtraCompsModelInfo
000000000047c3f0 D _ZTV17TouchscreenButton
000000000047c420 D _ZTV17TouchscreenNipple
000000000047c450 D _ZTI17TouchscreenButton
000000000047c460 D _ZTI17TouchscreenNipple
000000000047c4b8 D _ZTV11CAutomobile
000000000047c608 D _ZTI11CAutomobile
000000000047c620 D _ZTV5CBike
000000000047c770 D _ZTI5CBike
000000000047c788 D _ZTV5CBoat
000000000047c8d8 D _ZTI5CBoat
000000000047c8f0 D _ZTV5CHeli
000000000047ca40 D _ZTI5CHeli
000000000047ca58 D _ZTV6CPlane
000000000047cba8 D _ZTI6CPlane
000000000047cbc0 D _ZTV6CTrain
000000000047cd10 D _ZTI6CTrain
000000000047cd28 D _ZTV8CVehicle
000000000047ce78 D _ZTI8CVehicle
000000000047d830 V _ZTV15ES2VertexBuffer
000000000047d850 V _ZTI14RQVertexBuffer
000000000047d860 V _ZTI15ES2VertexBuffer
000000000047d878 V _ZTV14ES2IndexBuffer
000000000047d898 V _ZTI13RQIndexBuffer
000000000047d8a8 V _ZTI14ES2IndexBuffer
000000000047d8c0 V _ZTV14ES2VertexState
000000000047d8e0 V _ZTI13RQVertexState
000000000047d8f0 V _ZTI14ES2VertexState
000000000047d908 D _ZTV9ES2Shader
000000000047d950 V _ZTI8RQShader
000000000047d960 D _ZTI9ES2Shader
000000000047d978 V _ZTV10ES2Texture
000000000047d9c0 V _ZTI10ES2Texture
000000000047d9d8 D _ZTV9RQTexture
000000000047da20 D _ZTI9RQTexture
000000000047da30 D _ZTV22TextureDatabaseRuntime
000000000047da50 D _ZTI22TextureDatabaseRuntime
000000000047da68 D _ZTV15TextureDatabase
000000000047da88 D _ZTI15TextureDatabase
000000000047da98 V _ZTVNSt6__ndk120__shared_ptr_emplaceIN2SC3hal4HttpENS_9allocatorIS3_EEEE
000000000047dad0 V _ZTINSt6__ndk120__shared_ptr_emplaceIN2SC3hal4HttpENS_9allocatorIS3_EEEE
000000000047db40 V _ZTVN2SC22ScHttpResponseDelegateE
000000000047db70 V _ZTIN2SC3hal4Http20HttpResponseDelegateE
000000000047db80 V _ZTIN2SC22ScHttpResponseDelegateE
000000000047dc38 D z_errmsg
000000000048f5b0 D _ZN12CAnimManager24ms_aAnimAssocDefinitionsE
000000000048ff38 D aBONETAG_ENUM_TAB
000000000048ff90 D _ZN12CutsceneHand11m_AnimationE
000000000048ffd0 D _ZN12CutsceneHand12m_AtomicNameE
0000000000490010 D _ZN12CutsceneHand16m_PropAtomicNameE
0000000000490050 D _ZN12XMLConfigure16XML_ATTRIBUTE_IDE
0000000000490058 D _ZN12XMLConfigure18XML_ATTRIBUTE_NAMEE
0000000000490060 D _ZN12XMLConfigure18XML_ATTRIBUTE_SIDEE
0000000000490068 D _ZN12XMLConfigure18XML_ATTRIBUTE_LEFTE
0000000000490070 D _ZN12XMLConfigure19XML_ATTRIBUTE_RIGHTE
0000000000490078 D _ZN12XMLConfigure18XML_ATTRIBUTE_BOTHE
0000000000490080 D _ZN12XMLConfigure19XML_ATTRIBUTE_MODELE
0000000000490088 D _ZN12XMLConfigure20XML_ATTRIBUTE_GENDERE
0000000000490090 D _ZN12XMLConfigure18XML_ATTRIBUTE_MALEE
0000000000490098 D _ZN12XMLConfigure20XML_ATTRIBUTE_FEMALEE
00000000004900a0 D _ZN12XMLConfigure18XML_ATTRIBUTE_RACEE
00000000004900a8 D _ZN12XMLConfigure19XML_ATTRIBUTE_BLACKE
00000000004900b0 D _ZN12XMLConfigure19XML_ATTRIBUTE_WHITEE
00000000004900b8 D _ZN12XMLConfigure21XML_ATTRIBUTE_SCALE_XE
00000000004900c0 D _ZN12XMLConfigure21XML_ATTRIBUTE_SCALE_YE
00000000004900c8 D _ZN12XMLConfigure21XML_ATTRIBUTE_SCALE_ZE
00000000004900d0 D _ZN12XMLConfigure22XML_ATTRIBUTE_ROTATE_XE
00000000004900d8 D _ZN12XMLConfigure22XML_ATTRIBUTE_ROTATE_YE
00000000004900e0 D _ZN12XMLConfigure22XML_ATTRIBUTE_ROTATE_ZE
00000000004900e8 D _ZN12XMLConfigure24XML_ATTRIBUTE_POSITION_XE
00000000004900f0 D _ZN12XMLConfigure24XML_ATTRIBUTE_POSITION_YE
00000000004900f8 D _ZN12XMLConfigure24XML_ATTRIBUTE_POSITION_ZE
0000000000490100 D _ZN12XMLConfigure17XML_ATTRIBUTE_REDE
0000000000490108 D _ZN12XMLConfigure19XML_ATTRIBUTE_GREENE
0000000000490110 D _ZN12XMLConfigure18XML_ATTRIBUTE_BLUEE
0000000000490118 D _ZN12XMLConfigure28XML_ATTRIBUTE_CUTSCENE_STARTE
0000000000490120 D _ZN12XMLConfigure26XML_ATTRIBUTE_CUTSCENE_ENDE
0000000000490128 D _ZN12XMLConfigure29XML_ATTRIBUTE_ANIMATION_STARTE
0000000000490130 D _ZN12XMLConfigure27XML_ATTRIBUTE_ANIMATION_ENDE
0000000000490138 D _ZN12XMLConfigure28XML_ATTRIBUTE_ANIMATION_TIMEE
0000000000490140 D _ZN12XMLConfigure28XML_ATTRIBUTE_ANIMATION_TYPEE
0000000000490148 D _ZN12XMLConfigure30XML_ATTRIBUTE_ANIMATION_STATICE
0000000000490150 D _ZN12XMLConfigure28XML_ATTRIBUTE_ANIMATION_LOOPE
0000000000490158 D _ZN12XMLConfigure12XML_TAG_ROOTE
0000000000490160 D _ZN12XMLConfigure16XML_TAG_CUTSCENEE
0000000000490168 D _ZN12XMLConfigure17XML_TAG_CHARACTERE
0000000000490170 D _ZN12XMLConfigure12XML_TAG_HANDE
0000000000490178 D _ZN12XMLConfigure17XML_TAG_ANIMATIONE
0000000000490180 D _ZN12XMLConfigure19HAND_MODEL_ORIGINALE
0000000000490188 D _ZN12XMLConfigure16HAND_MODEL_GLOVEE
0000000000490208 D ChangeMusicDirection
0000000000490210 D g_nMissionAudioSfx
0000000000490214 D g_nMissionAudioPlayingStatus
000000000049021c D Reds
000000000049021d D Greens
000000000049021e D Blues
0000000000490220 D _ZN8CCarCtrl20CarDensityMultiplierE
0000000000490224 D _ZN8CCarCtrl20MaxNumberOfCarsInUseE
0000000000490228 D PCCheatString5
000000000049023b D PCCheatString6
0000000000490248 D PCCheatString7
0000000000490255 D PCCheatString8
0000000000490260 D PCCheatString9
000000000049026a D PCCheatString10
0000000000490276 D PCCheatString42
0000000000490283 D PCCheatString43
0000000000490292 D PCCheatString44
00000000004902a2 D PCCheatString45
00000000004902b1 D PCCheatString46
00000000004902c0 D gaCarsToCollectInCraigsGarages
0000000000490320 D gaCarsToCollectIn60Seconds
0000000000490338 D AmmoForWeapon
0000000000490382 D AmmoForWeapon_OnStreet
00000000004903cc D CostOfWeapon
000000000049041c D aRacePoints1
0000000000490464 D _ZN7CReplay14bReplayEnabledE
0000000000490465 D PCCheatString11
0000000000490473 D PCCheatString12
000000000049047a D PCCheatString13
000000000049048c D PCCheatString14
0000000000490494 D PCCheatString15
00000000004904a8 D PCCheatString16
00000000004904b8 D PCCheatString17
00000000004904c6 D nonameScript
00000000004904cd D s_rstrtScript
00000000004904d5 D MissionScripts
0000000000490705 D nonMissionScripts
00000000004908d2 D DbgLineColour
00000000004908d4 D fRangePlayerRadius
00000000004908d8 D fCloseNearClipLimit
00000000004908dc D PLAYERPED_LEVEL_SMOOTHING_CONST_INV
00000000004908e0 D PLAYERPED_TREND_SMOOTHING_CONST_INV
00000000004908e4 D INIT_TARGET_ZM_CLOSE_IN
00000000004908e8 D INIT_TARGET_ZM_GRND_ONE
00000000004908ec D INIT_TARGET_ZM_GRND_TWO
00000000004908f0 D INIT_TARGET_ZM_GRND_THREE
00000000004908f4 D TiltTopSpeed
0000000000490908 D TiltSpeedStep
000000000049091c D TiltOverShoot
0000000000490930 D ZOOM_ONE_DISTANCE
0000000000490944 D ZOOM_TWO_DISTANCE
0000000000490958 D ZOOM_THREE_DISTANCE
000000000049096c D ZmOneAlphaOffset
0000000000490980 D ZmTwoAlphaOffset
0000000000490994 D ZmThreeAlphaOffset
00000000004909a8 D INIT_RC_HELI_HORI_EXTRA
00000000004909ac D INIT_RC_PLANE_HORI_EXTRA
00000000004909b0 D INIT_RC_HELI_ALPHA_EXTRA
00000000004909b4 D INIT_RC_PLANE_ALPHA_EXTRA
00000000004909b8 D INIT_SYPHON_GROUND_DIST
00000000004909bc D INIT_SYPHON_ALPHA_OFFSET
00000000004909c0 D INIT_SYPHON_DEGREE_OFFSET
00000000004909c4 D FrontOffsetSyphon
00000000004909c8 D INIT_SYPHON_Z_OFFSET
00000000004909cc D PrintDebugCode
00000000004909d0 D BOAT_1STPERSON_LR_OFFSETZ
00000000004909d4 D BOAT_1STPERSON_L_OFFSETX
00000000004909d8 D BOAT_1STPERSON_R_OFFSETX
00000000004909dc D MaxRotationUp
00000000004909e0 D MaxRotationDown
00000000004909e4 D BOAT_UNDERWATER_CAM_BLUR
00000000004909e8 D BOAT_UNDERWATER_CAM_COLORMAG_LIMIT
00000000004909ec D fBike1stPersonOffsetZ
00000000004909f0 D fDuckingRightOffset
00000000004909f4 D fDuckingBackOffset
00000000004909f8 D MAX_HEIGHT_UP
00000000004909fc D WATER_Z_ADDITION
0000000000490a00 D WATER_Z_ADDITION_MIN
0000000000490a04 D SMALLBOAT_CLOSE_ALPHA_MINUS
0000000000490a08 D afBoatBetaDiffMult
0000000000490a14 D afBoatBetaSpeedDiffMult
0000000000490a20 D fTestShiftHeliCamTarget
0000000000490a24 D FIRETRUCK_TRACKING_MULT
0000000000490a28 D FIGHT_HORIZ_DIST
0000000000490a2c D FIGHT_VERT_DIST
0000000000490a30 D FIGHT_BETA_ANGLE
0000000000490a34 D fAvoidGeomThreshhold
0000000000490a38 D fDefaultSpeedStep
0000000000490a3c D fDefaultSpeedMultiplier
0000000000490a40 D fDefaultSpeedLimit
0000000000490a44 D fDefaultSpeedStep4Avoid
0000000000490a48 D fDefaultSpeedMultiplier4Avoid
0000000000490a4c D fDefaultSpeedLimit4Avoid
0000000000490a50 D fAvoidGeomReturnRate
0000000000490a54 D fMiniGunBetaOffset
0000000000490a58 D fBaseDist
0000000000490a5c D fAngleDist
0000000000490a60 D fFalloff
0000000000490a64 D fStickSens
0000000000490a68 D fTweakFOV
0000000000490a6c D fTranslateCamUp
0000000000490a70 D nFadeControlThreshhold
0000000000490a74 D fDefaultAlphaOrient
0000000000490a78 D fMouseAvoidGeomReturnRate
0000000000490a7c D fCameraNearClipMult
0000000000490a80 D fWheelCamCarXOffset
0000000000490a84 D fWheelCamBikeXOffset
0000000000490a88 D ARRESTCAM_ROTATION_SPEED
0000000000490a8c D ARRESTCAM_ROTATION_UP
0000000000490a90 D ARRESTCAM_S_ROTATION_UP
0000000000490a94 D ARRESTDIST_ALONG_GROUND
0000000000490a98 D ARRESTDIST_SIDE_GROUND
0000000000490a9c D ARRESTDIST_ABOVE_GROUND
0000000000490aa0 D ARRESTCAM_LAMPPOST_ROTATEDIST
0000000000490aa4 D ARRESTCAM_LAMPPOST_TRANSLATE
0000000000490aa8 D DEADCAM_HEIGHT_START
0000000000490aac D DEADCAM_HEIGHT_RATE
0000000000490ab0 D DEADCAM_WAFT_AMPLITUDE
0000000000490ab4 D DEADCAM_WAFT_RATE
0000000000490ab8 D DEADCAM_WAFT_TILT_AMP
0000000000490abc D fSpeedJumpTiltUp
0000000000490ac0 D fSpeedJumpTiltDown
0000000000490ac4 D fAvoidProbTimerDamp
0000000000490ac8 D fAvoidTweakFOV
0000000000490acc D SequenceOfCarCams
0000000000490b08 D SequenceOfHeliCams
0000000000490b20 D SequenceOfPedCams
0000000000490b40 D fHeliMinHeightAboveWater
0000000000490b44 D fSeaplaneMinHeightAboveWater
0000000000490b48 D ARRESTDIST_BEHIND_COP
0000000000490b4c D ARRESTDIST_RIGHTOF_COP
0000000000490b50 D ARRESTDIST_ABOVE_COP
0000000000490b54 D ARRESTDIST_MINFROM_PLAYER
0000000000490b58 D ARRESTCAM_LAMP_BEST_DIST
0000000000490b5c D isNative
0000000000490b60 D KoreanArchives
0000000000490bb0 D _ZN5CGame9bDemoModeE
0000000000490bb1 D _ZN5CGame9nastyGameE
0000000000490bb4 D gAaronsLODMultiplier
0000000000490bb8 D gfTommyFatness
0000000000490bbc D gnPotionPickupID
0000000000490bc0 D _ZN4CHID22bAllowKeyboardInstanceE
0000000000490bc4 D _ZN8CIniFile19PedNumberMultiplierE
0000000000490bc8 D _ZN8CIniFile19CarNumberMultiplierE
0000000000490bcc D ZonePrint
0000000000490e4c D splashTxdId
0000000000490e58 D VerticalLineHeight
0000000000490e5c D shadowSize
0000000000490e60 D _ZN12CMenuManager16m_PrefsSfxVolumeE
0000000000490e64 D _ZN12CMenuManager18m_PrefsMusicVolumeE
0000000000490e68 D _ZN12CMenuManager17m_PrefsBrightnessE
0000000000490e6c D _ZN12CMenuManager20m_PrefsShowSubtitlesE
0000000000490e6d D _ZN12CMenuManager12m_PrefsVsyncE
0000000000490e6e D _ZN12CMenuManager16m_PrefsVsyncDispE
0000000000490e6f D _ZN12CMenuManager19m_PrefsFrameLimiterE
0000000000490e70 D _ZN12CMenuManager21m_PrefsAllowNastyGameE
0000000000490e71 D _ZN12CMenuManager16m_PrefsPlayerRedE
0000000000490e72 D _ZN12CMenuManager18m_PrefsPlayerGreenE
0000000000490e74 D _ZN12CMenuManager15m_ControlMethodE
0000000000490e78 D _ZN12CMenuManager16m_KeyPressedCodeE
0000000000490e7c D _ZN12CMenuManager23m_PrefsMobileResolutionE
0000000000490e80 D _ZN12CMenuManager21m_PrefsDynamicShadowsE
0000000000490e81 D _ZN12CMenuManager14m_PrefsHapticsE
0000000000490e84 D _ZN12CMenuManager20m_PrefsMobileEffectsE
0000000000490e88 D _ZN12CMenuManager18m_PrefsCameraAngleE
0000000000490e8c D _ZN12CMenuManager19m_PrefsDrawDistanceE
0000000000490e90 D _ZN12CMenuManager22m_PrefsSimulationSpeedE
0000000000490e94 D _ZN12CMenuManager20m_PrefsEnemyAccuracyE
0000000000490e98 D _ZN12CMenuManager22m_PrefsLookSensitivityE
0000000000490e9c D _ZN12CMenuManager20m_PrefsAutoAimSniperE
0000000000490e9d D _ZN12CMenuManager21m_PrefsHighpolyModelsE
0000000000490e9e D _ZN12CMenuManager18m_InGameCheatSwipeE
0000000000490ea0 D _ZN12CMenuManager17m_CheatsAvailableE
0000000000490ea4 D _ZN12CMenuManager15m_PrefsSkinFileE
0000000000490fa4 D _ZN12CMenuManager10m_PrefsDMAE
0000000000490fa8 D mouseAlphaForSlider
0000000000490fac D PixelsScrolled
0000000000490fb0 D gErrorSampleTriggered
0000000000490fb8 D sprite
0000000000490fe8 D ScrollTarget
0000000000490ffc D CurrentReleaseY
0000000000491008 D VersionString
0000000000491048 D FrontEndRadarFilenames
00000000004910d8 D RadarFirstTime
00000000004910dc D aScreens
00000000004b670c D MI_TRAFFICLIGHTS
00000000004b670e D MI_TRAFFICLIGHTS_VERTICAL
00000000004b6710 D MI_TRAFFICLIGHTS_MIAMI
00000000004b6712 D MI_TRAFFICLIGHTS_TWOVERTICAL
00000000004b6714 D MI_SINGLESTREETLIGHTS1
00000000004b6716 D MI_SINGLESTREETLIGHTS2
00000000004b6718 D MI_SINGLESTREETLIGHTS3
00000000004b671a D MI_DOUBLESTREETLIGHTS
00000000004b671c D MI_STREETLAMP1
00000000004b671e D MI_STREETLAMP2
00000000004b6720 D MI_TREE2
00000000004b6722 D MI_TREE3
00000000004b6724 D MI_TREE6
00000000004b6726 D MI_TREE8
00000000004b6728 D MODELID_CRANE_1
00000000004b672a D MODELID_CRANE_2
00000000004b672c D MODELID_CRANE_3
00000000004b672e D MODELID_CRANE_4
00000000004b6730 D MODELID_CRANE_5
00000000004b6732 D MODELID_CRANE_6
00000000004b6734 D MI_PARKINGMETER
00000000004b6736 D MI_PARKINGMETER2
00000000004b6738 D MI_MALLFAN
00000000004b673a D MI_HOTELFAN_NIGHT
00000000004b673c D MI_HOTELFAN_DAY
00000000004b673e D MI_HOTROOMFAN
00000000004b6740 D MI_PHONEBOOTH1
00000000004b6742 D MI_WASTEBIN
00000000004b6744 D MI_BIN
00000000004b6746 D MI_POSTBOX1
00000000004b6748 D MI_NEWSSTAND
00000000004b674a D MI_TRAFFICCONE
00000000004b674c D MI_DUMP1
00000000004b674e D MI_ROADWORKBARRIER1
00000000004b6750 D MI_BUSSIGN1
00000000004b6752 D MI_NOPARKINGSIGN1
00000000004b6754 D MI_PHONESIGN
00000000004b6756 D MI_FIRE_HYDRANT
00000000004b6758 D MI_COLLECTABLE1
00000000004b675a D MI_MONEY
00000000004b675c D MI_CARMINE
00000000004b675e D MI_GARAGEDOOR2
00000000004b6760 D MI_GARAGEDOOR3
00000000004b6762 D MI_GARAGEDOOR4
00000000004b6764 D MI_GARAGEDOOR5
00000000004b6766 D MI_GARAGEDOOR6
00000000004b6768 D MI_GARAGEDOOR7
00000000004b676a D MI_GARAGEDOOR9
00000000004b676c D MI_GARAGEDOOR10
00000000004b676e D MI_GARAGEDOOR11
00000000004b6770 D MI_GARAGEDOOR12
00000000004b6772 D MI_GARAGEDOOR13
00000000004b6774 D MI_GARAGEDOOR14
00000000004b6776 D MI_GARAGEDOOR15
00000000004b6778 D MI_GARAGEDOOR16
00000000004b677a D MI_GARAGEDOOR18
00000000004b677c D MI_GARAGEDOOR19
00000000004b677e D MI_GARAGEDOOR20
00000000004b6780 D MI_GARAGEDOOR21
00000000004b6782 D MI_GARAGEDOOR22
00000000004b6784 D MI_GARAGEDOOR23
00000000004b6786 D MI_GARAGEDOOR24
00000000004b6788 D MI_GARAGEDOOR25
00000000004b678a D MI_GARAGEDOOR26
00000000004b678c D MI_NAUTICALMINE
00000000004b678e D MI_BRIEFCASE
00000000004b6790 D MI_GLASS1
00000000004b6792 D MI_GLASS8
00000000004b6794 D MI_EXPLODINGBARREL
00000000004b6796 D MI_PICKUP_ADRENALINE
00000000004b6798 D MI_PICKUP_BODYARMOUR
00000000004b679a D MI_PICKUP_INFO
00000000004b679c D MI_PICKUP_HEALTH
00000000004b679e D MI_PICKUP_BONUS
00000000004b67a0 D MI_PICKUP_BRIBE
00000000004b67a2 D MI_PICKUP_KILLFRENZY
00000000004b67a4 D MI_PICKUP_CAMERA
00000000004b67a6 D MI_PICKUP_REVENUE
00000000004b67a8 D MI_PICKUP_SAVEGAME
00000000004b67aa D MI_PICKUP_PROPERTY
00000000004b67ac D MI_PICKUP_PROPERTY_FORSALE
00000000004b67ae D MI_PICKUP_CLOTHES
00000000004b67b0 D MI_BOLLARDLIGHT
00000000004b67b2 D MI_FENCE
00000000004b67b4 D MI_FENCE2
00000000004b67b6 D MI_PETROLPUMP
00000000004b67b8 D MI_PETROLPUMP2
00000000004b67ba D MI_BUOY
00000000004b67bc D MI_PARKTABLE
00000000004b67be D MI_LAMPPOST1
00000000004b67c0 D MI_VEG_PALM01
00000000004b67c2 D MI_VEG_PALM02
00000000004b67c4 D MI_VEG_PALM03
00000000004b67c6 D MI_VEG_PALM04
00000000004b67c8 D MI_VEG_PALM05
00000000004b67ca D MI_VEG_PALM06
00000000004b67cc D MI_VEG_PALM07
00000000004b67ce D MI_VEG_PALM08
00000000004b67d0 D MI_MLAMPPOST
00000000004b67d2 D MI_BARRIER1
00000000004b67d4 D MI_LITTLEHA_POLICE
00000000004b67d6 D MI_TELPOLE02
00000000004b67d8 D MI_TRAFFICLIGHT01
00000000004b67da D MI_PARKBENCH
00000000004b67dc D MI_PLC_STINGER
00000000004b67de D MI_LIGHTBEAM
00000000004b67e0 D MI_AIRPORTRADAR
00000000004b67e2 D MI_RCBOMB
00000000004b67e4 D MI_BEACHBALL
00000000004b67e6 D MI_SANDCASTLE1
00000000004b67e8 D MI_SANDCASTLE2
00000000004b67ea D MI_JELLYFISH
00000000004b67ec D MI_JELLYFISH01
00000000004b67ee D MI_FISH1SINGLE
00000000004b67f0 D MI_FISH1S
00000000004b67f2 D MI_FISH2SINGLE
00000000004b67f4 D MI_FISH2S
00000000004b67f6 D MI_FISH3SINGLE
00000000004b67f8 D MI_FISH3S
00000000004b67fa D MI_TURTLE
00000000004b67fc D MI_DOLPHIN
00000000004b67fe D MI_SHARK
00000000004b6800 D MI_SUBMARINE
00000000004b6802 D MI_ESCALATORSTEP
00000000004b6804 D MI_LOUNGE_WOOD_UP
00000000004b6806 D MI_LOUNGE_TOWEL_UP
00000000004b6808 D MI_LOUNGE_WOOD_DN
00000000004b680a D MI_LOTION
00000000004b680c D MI_BEACHTOWEL01
00000000004b680e D MI_BEACHTOWEL02
00000000004b6810 D MI_BEACHTOWEL03
00000000004b6812 D MI_BEACHTOWEL04
00000000004b6814 D MI_BLIMP_NIGHT
00000000004b6816 D MI_BLIMP_DAY
00000000004b6818 D MI_YT_MAIN_BODY
00000000004b681a D MI_YT_MAIN_BODY2
00000000004b681c D g_nCreateVehicleModel
00000000004b6820 D curModel
00000000004b6824 D ReplaceMyCar
00000000004b6825 D PCCheatString51
00000000004b682f D PCCheatString52
00000000004b6837 D PCCheatString53
00000000004b684b D PCCheatString54
00000000004b6857 D PCCheatString55
00000000004b686d D PCCheatString56
00000000004b687a D PCCheatString57
00000000004b688c D PCCheatString58
00000000004b6898 D HIGHSPEED_ELASTICITY_MULT_PED
00000000004b689c D HIGHSPEED_ELASTICITY_MULT_COPCAR
00000000004b68a0 D PHYSICAL_SHIFT_SPEED_DAMP
00000000004b68a8 D pRadarSprites
00000000004b69e8 D magicRadarx
00000000004b69ec D magicRadary
00000000004b69f0 D _ZN9CRenderer15ms_lodDistScaleE
00000000004b69f4 D RopeIndices
00000000004b6a78 D _ZN6CTimer31m_snTimeInMillisecondsPauseModeE
00000000004b6a7c D _ZN6CTimer12ms_fTimeStepE
00000000004b6a80 D _ZN9CTimeStep12ms_fTimeStepE
00000000004b6a84 D _ZN9CTimeStep19ms_fFramesPerUpdateE
00000000004b6a88 D _ZN9CTimeStep13ms_fTimeScaleE
00000000004b6a8c D _ZN7CWanted18MaximumWantedLevelE
00000000004b6a90 D _ZN7CWanted19nMaximumWantedLevelE
00000000004b6a94 D WORLD_PLAYER_SHIFT_DAMPING
00000000004b6a98 D CBArray
00000000004b6bb0 D _ZN7CObject15nBodyCastHealthE
00000000004b6bb4 D _ZN7CObject18fDistToNearestTreeE
00000000004b6bb8 D fShootingRange
00000000004b6bc8 D _ZN4CPed24nCloseBlockedLosWaitTimeE
00000000004b6bcc D _ZN4CPed22nFarBlockedLosWaitTimeE
00000000004b6bd0 D fTempBikeY
00000000004b6bd4 D fTempBikeZ
00000000004b6bd8 D nEnterCarRangeMultiplier
00000000004b6bda D nThreatReactionRangeMultiplier
00000000004b6bdc D fGetOutZBlendStart
00000000004b6be0 D fJackedZBlendStart
00000000004b6be4 D fGetInZBlendEnd
00000000004b6be8 D fTestArriveRange
00000000004b6bec D ObjectiveText
00000000004b71f0 D StateText
00000000004b7670 D PersonalityTypeText
00000000004b78b0 D WaitStateText
00000000004b7af0 D tFightMoves
00000000004b7e70 D _ZN6CPedIK11ms_headInfoE
00000000004b7e88 D _ZN6CPedIK18ms_headRestoreInfoE
00000000004b7ea0 D _ZN6CPedIK12ms_torsoInfoE
00000000004b7eb8 D _ZN6CPedIK15ms_upperArmInfoE
00000000004b7ed0 D _ZN6CPedIK15ms_lowerArmInfoE
00000000004b7ee8 D fRotateUpperArm
00000000004b7eec D fRotateWrist
00000000004b7ef0 D fRotateUpperArmScale
00000000004b7ef4 D fYawLowerArmScale
00000000004b7ef8 D fLowerUpperArmForLowerArm
00000000004b7efc D fRestoreArmYaw
00000000004b7f00 D fRestoreArmPitch
00000000004b7f04 D fTempTestTorsoRoll
00000000004b7f08 D nMouseMoveLimb
00000000004b7f10 D nTestPlayerWeaponAccuracy
00000000004b7f14 D fTestPlayerWeaponReAimRate
00000000004b7f18 D _ZN11CPopulation20PedDensityMultiplierE
00000000004b7f1c D _ZN11CPopulation23m_AllRandomPedsThisTypeE
00000000004b7f20 D _ZN11CPopulation20MaxNumberOfPedsInUseE
00000000004b7f24 D _ZN11CPopulation28MaxNumberOfPedsInUseInteriorE
00000000004b7f28 D PCCheatString25
00000000004b7f32 D PCCheatString26
00000000004b7f41 D PCCheatString27
00000000004b7f54 D PCCheatString28
00000000004b7f5f D PCCheatString29
00000000004b7f6c D PCCheatString30
00000000004b7f7d D PCCheatString31
00000000004b7f91 D PCCheatString18
00000000004b7fac D PCCheatString19
00000000004b7fb4 D PCCheatString20
00000000004b7fc0 D PCCheatString21
00000000004b7fd2 D PCCheatString22
00000000004b7fe0 D PCCheatString23
00000000004b7ff4 D _ZN8CCoronas10LightsMultE
00000000004b7ff8 D _ZN8CCoronas8MoonSizeE
00000000004b7ffc D SunFlareDef
00000000004b809c D HeadLightsFlareDef
00000000004b8284 D RandomWindowVals
00000000004b8304 D _ZN5CDraw7ms_fFOVE
00000000004b8308 D ScrollCharSet
00000000004b85e0 D TrailIndices
00000000004b8620 D SmokeTrailIndices
00000000004b8660 D RandomSmoke
00000000004b86a0 D JPNUnicodePunct
00000000004b86b4 D iconScaleX
00000000004b86b8 D iconScaleY
00000000004b86bc D extraY
00000000004b86c0 D GLOBAL_FONT_SCALE
00000000004b86c4 D _ZN5CFont4SizeE
00000000004b8d54 D foreign_table
00000000004b8e54 D russian_table
00000000004b8f54 D russian_unicode_table
00000000004b9054 D ForiegnCharFontStart
00000000004b9058 D aspectRatio
00000000004b905c D aspectXChange
00000000004b9060 D UseIcons
00000000004b9064 D IconOffsetY
00000000004b9068 D IconSize
00000000004b9070 D WeaponFilenames
00000000004b9334 D _ZN6CMBlur6BlurOnE
00000000004b934d D PCCheatString47
00000000004b9364 D PCCheatString48
00000000004b9374 D PCCheatString49
00000000004b9382 D PCCheatString50
00000000004b938a D _ZN10COcclusion11FarAwayListE
00000000004b938c D _ZN10COcclusion10NearbyListE
00000000004b938e D _ZN10COcclusion17ListWalkThroughFAE
00000000004b9390 D _ZN10COcclusion25PreviousListWalkThroughFAE
00000000004b95a4 D nParticleCreationInterval
00000000004b95a8 D PARTICLE_WIND_TEST_SCALE
00000000004b95ac D fParticleScaleLimit
00000000004b95b0 D ParticleFilename
00000000004b95b8 D _ZN13CPedModelInfo9m_pPedIdsE
00000000004b9688 D _ZN13CPedModelInfo15m_pColNodeInfosE
00000000004b97c8 D Colours
00000000004b97e8 V _ZZN8CShadows19CastShadowEntityXYZEP7CEntityP7CVectorffffshhhffPP10CPolyBunchP15CCutsceneShadowE6scaleX
00000000004b97ec V _ZZN8CShadows19CastShadowEntityXYZEP7CEntityP7CVectorffffshhhffPP10CPolyBunchP15CCutsceneShadowE6scaleY
00000000004b97f0 V _ZZN8CShadows19CastShadowEntityXYZEP7CEntityP7CVectorffffshhhffPP10CPolyBunchP15CCutsceneShadowE6scaleZ
00000000004b9854 D TrafficLightsSide
00000000004b986c D TrafficLightsUp
00000000004b9884 D TrafficLightIndices
00000000004b989c D LongCarHeadLightsSide
00000000004b98bc D LongCarHeadLightsFront
00000000004b98dc D LongCarHeadLightsUp
00000000004b98fc D SmallCarHeadLightsSide
00000000004b991c D SmallCarHeadLightsFront
00000000004b993c D SmallCarHeadLightsUp
00000000004b995c D BigCarHeadLightsSide
00000000004b997c D BigCarHeadLightsFront
00000000004b999c D BigCarHeadLightsUp
00000000004b99bc D TallCarHeadLightsSide
00000000004b99dc D TallCarHeadLightsFront
00000000004b99fc D TallCarHeadLightsUp
00000000004b9a1c D CubeIndices
00000000004b9a64 D SirenLightsSide
00000000004b9a7c D SirenLightsUp
00000000004b9a98 D _ZN17CVehicleModelInfo13ms_compsToUseE
00000000004b9aa0 D carIds
00000000004b9c90 D boatIds
00000000004b9d20 D trainIds
00000000004b9da0 D heliIds
00000000004b9e20 D planeIds
00000000004b9e80 D bikeIds
00000000004b9fb0 D _ZN17CVehicleModelInfo15ms_vehicleDescsE
00000000004b9fe0 D wheelIds
00000000004b9ff0 D RwHackNoCompressedTexCoords
00000000004b9ff4 D Windyness
00000000004ba010 D _ZN8CWeather11SoundHandleE
00000000004ba014 D _ZN8CWeather20StreamAfterRainTimerE
00000000004ba018 D WeatherTypesList
00000000004ba098 D WeatherTypesList_WithHurricanes
00000000004ba120 D FullLight
00000000004ba130 D IndicateR
00000000004ba137 D IndicateG
00000000004ba13e D IndicateB
00000000004ba14c D _ZN18CVisibilityPlugins21ms_atomicPluginOffsetE
00000000004ba150 D _ZN18CVisibilityPlugins20ms_framePluginOffsetE
00000000004ba154 D _ZN18CVisibilityPlugins20ms_clumpPluginOffsetE
00000000004ba158 D preAlloc
00000000004ba15c D SaveVersionNumber
00000000004ba160 D TimeToStayFadedBeforeFadeOut
00000000004ba164 D PCCheatString1a
00000000004ba16f D PCCheatString1b
00000000004ba181 D PCCheatString1c
00000000004ba18d D PCCheatString3
00000000004ba1a0 D PCCheatString4
00000000004ba1a9 D TopLineEmptyFile
00000000004ba1c8 D MovieFilename
00000000004ba1f8 D DeviceDefaultsVersion
00000000004ba1fc D TabletDefaults
00000000004ba560 D PhoneDefaults
00000000004ba8c4 D PAUSE_SAVE_SLOT
00000000004ba8c8 D VehButtonType
00000000004ba8d0 D ButtonDefaultsTablet
00000000004baf90 D fMobileCarChaseDistance
00000000004baf94 D fMobilePedChaseDistance
00000000004baf9c D TextColourTable
00000000004bafb8 D BrightTextColourTable
00000000004bafd4 D HELI_ROTOR_DOTPROD_LIMIT
00000000004bafd8 D CAR_BALANCE_MULT
00000000004bafdc D _ZN11CAutomobile15vecHunterGunPosE
00000000004bafe8 D vecHunterRocketPos
00000000004baff4 D vecSeaSparrowGunPos
00000000004bb004 D fSpeedMult
00000000004bb01c D fDamagePosSpeedShift
00000000004bb020 D fMouseSteerSens
00000000004bb024 D fMouseCentreRange
00000000004bb028 D fMouseCentreMult
00000000004bb02c D fBurstForceMult
00000000004bb030 D fFlySpeedMult
00000000004bb034 D vecTestResistance
00000000004bb040 D fDAxisX
00000000004bb044 D fDAxisXExtra
00000000004bb048 D fInAirXRes
00000000004bb04c D fDAxisY
00000000004bb050 D bTestDbg
00000000004bb054 D fSteerAng1
00000000004bb058 D fSteerAng2
00000000004bb05c D fSteerAng3
00000000004bb060 D fBikeBurstForceMult
00000000004bb064 D fBikeBurstFallSpeed
00000000004bb068 D fBikeBurstFallSpeedPlayer
00000000004bb06c D _ZN5CBoat15MAX_WAKE_LENGTHE
00000000004bb070 D _ZN5CBoat17MIN_WAKE_INTERVALE
00000000004bb074 D _ZN5CBoat13WAKE_LIFETIMEE
00000000004bb078 D fSeaPlaneWaterResistance
00000000004bb07c D fShapeLength
00000000004bb080 D fShapeTime
00000000004bb084 D fRangeMult
00000000004bb088 D fTimeMult
00000000004bb08c D PCCheatString32
00000000004bb09a D PCCheatString33
00000000004bb0a6 D PCCheatString34
00000000004bb0b5 D PCCheatString35
00000000004bb0c0 D PCCheatString36
00000000004bb0d0 D G_aComponentDamage
00000000004bb0ec D fTweakLimitMaxY
00000000004bb0f0 D fTweakLimitMinY
00000000004bb0f4 D fTweakLimitMinZ
00000000004bb0f8 D fVolMultiplier
00000000004bb0fc D fBoatVolumeDistribution
00000000004bb120 D fBoatVolumeDistributionCat
00000000004bb144 D fBoatVolumeDistributionSail
00000000004bb168 D fBoatVolumeDistributionDinghy
00000000004bb18c D fBoatVolumeDistributionSpeed
00000000004bb1b0 D BOAT_BUOYANCY_DAMPING
00000000004bb1b8 D HandlingFilename
00000000004bb1c0 D VehicleNames
00000000004bb78c D nHeliOption2NumParticles
00000000004bb78d D nNumNewDustParticles
00000000004bb790 D fRotRamp
00000000004bb794 D PCCheatString37
00000000004bb7a6 D PCCheatString38
00000000004bb7b6 D PCCheatString39
00000000004bb7cd D PCCheatString40
00000000004bb7e3 D PCCheatString41
00000000004bb7f1 D _ZN8CVehicle23m_bDisableMouseSteeringE
00000000004bb7f4 D fBurstTyreMod
00000000004bb7f8 D fBurstSpeedMax
00000000004bb7fc D fBurstBikeTyreMod
00000000004bb800 D fBurstBikeSpeedMax
00000000004bb804 D fTweakBikeWheelTurnForce
00000000004bb808 D ROTOR_SEMI_THICKNESS
00000000004bb80c D ROTOR_TURN_SPEED
00000000004bb810 D ROTOR_DISGUARD_MULT
00000000004bb814 D ROTOR_COL_ELASTICITY
00000000004bb818 D ROTOR_COL_TURNMULT
00000000004bb81c D ROTOR_DEFAULT_DAMAGE
00000000004bb820 D fEnvScale
00000000004bb824 D fWave2InvLength
00000000004bb828 D fWave2NormScale
00000000004bb82c D fWave2Ampl
00000000004bb830 D nWaterAlpha
00000000004bb831 D nWakeAlpha
00000000004bb834 D fUnder1
00000000004bb838 D fUnder2
00000000004bb83c D fUnder3
00000000004bb844 D nMaskAlpha
00000000004bb848 D fAdd1
00000000004bb84c D fAdd2
00000000004bb850 D fRedMult
00000000004bb854 D fGreenMult
00000000004bb858 D fBlueMult
00000000004bb85c D fAlphaMult
00000000004bb860 D fAlphaBase
00000000004bb864 D fRandomMoveDiv
00000000004bb868 D fRandomDamp
00000000004bb86c D fNormMult
00000000004bb870 D fNormMultB
00000000004bb874 D fBumpScale
00000000004bb878 D fBumpTexRepeat
00000000004bb87c D fNormalDirectionScalar1
00000000004bb880 D fNormalDirectionScalar2
00000000004bb884 D bTestDoNormals
00000000004bb888 D fSeaBedZ
00000000004bb88c D aAlphaFade
00000000004bb8a0 D fFlatWaterBlendRange
00000000004bb8a4 D fStartBlendDistanceAdd
00000000004bb8a8 D fMinWaterAlphaMult
00000000004bb8b0 D pTempStrings
00000000004bb8ec D fPlayerAimScale
00000000004bb8f0 D fPlayerAimScaleDist
00000000004bb8f4 D fHunterAimingAngle
00000000004bb8f8 D fSeaSparrowAimingAngle
00000000004bb8fc D fReloadAnimSampleFraction
00000000004bb910 D _ZN11CWeaponInfo15ms_aWeaponNamesE
00000000004bba38 D _ZN11CWeaponInfo20ms_aMaxAmmoForWeaponE
00000000004bbacc D _ZN11CWeaponInfo20ms_aReloadSampleTimeE
00000000004bbb18 D mat_myx
00000000004bbb1c D mat_mzx
00000000004bbb20 D mat_mxy
00000000004bbb24 D mat_myy
00000000004bbb28 D mat_mzy
00000000004bbb2c D mat_mxz
00000000004bbb30 D mat_myz
00000000004bbb34 D mat_mzz
00000000004bbb38 D mat_mwz
00000000004bbb3c D mat_mwy
00000000004bbb40 D mat_mwx
00000000004bbb44 D _rwV2d_nY
00000000004bbb48 D sizeof_rwV2d
00000000004bbb4c D _rwV3d_nY
00000000004bbb50 D _rwV3d_nZ
00000000004bbb54 D sizeof_rwV3d
00000000004bbb58 D _rwRaster_cpPixels
00000000004bbb5c D _rwRaster_nWidth
00000000004bbb60 D _rwRaster_nHeight
00000000004bbb64 D _rwRaster_nDepth
00000000004bbb68 D _rwRaster_nStride
00000000004bbb6c D _rwRaster_cType
00000000004bbb70 D _rwRaster_cFlags
00000000004bbb74 D sizeof_rwRaster
00000000004bbb78 D _rwOpenGLRenderPrimitiveFuncs
00000000004bbb98 D _rwOpenGLRenderIndexedPrimitiveFuncs
00000000004bbc60 D es2TextureType
00000000004bbc64 D UncompressedRead
00000000004bbc68 D ClearAfterSwap
00000000004bbc6c D NativeFormat
00000000004bbc70 D waterVars
00000000004bbc80 D debug_DrawCalls
00000000004bbc81 D debug_Lighting
00000000004bbc82 D debug_Texturing
00000000004bbc83 D debug_AlphaTest
00000000004bbc84 D debug_BlendDrawing
00000000004bbc88 D GlobalColor
00000000004bbc98 D GlobalColorDirty
00000000004bbc99 D AmbientLightDirty
00000000004bbc9c D curAlphaModulate
00000000004bbca0 D ModelViewStack
00000000004bbec4 D ProjectionStack
00000000004bc0e8 D TextureStack
00000000004bc310 D curStack
00000000004bc318 D contrastMult
00000000004bc328 D contrastVShader
00000000004bc330 D contrastPShader
00000000004bc34c D emu_TrilinearEnabled
00000000004bc34d D emu_4444Conversion
00000000004bc350 D detailTilingFactor
00000000004bc354 D envMapCoefficient
00000000004bc358 D emu_cameraPositionDirty
00000000004bc35c D emu_fogdistances
00000000004bc368 D emu_fogcolor
00000000004bc374 D emu_fogdirty
00000000004bc388 D UseGpuSkinning
00000000004bc39c D _ZN10ES2Texture16curActiveTextureE
00000000004bc3a0 D _ZN10ES2Texture13boundTexturesE
00000000004bc3c0 D formatTable
00000000004bc4f0 D _ZN15ES2RenderTarget10backBufferE
00000000004bc50c D bufferChanged
00000000004bc510 D _ZN8RQMatrix8IdentityE
00000000004bc558 D cameraTKList
00000000004c4580 D _rwMsbBit
00000000004c46a0 D frameTKList
00000000004c4720 D textureTKList
00000000004c4740 D texDictTKList
00000000004c4890 D _rxHeapInitialSize
00000000004c4894 D _rxPipelineMaxNodes
00000000004c48c0 D RxClObjSpace3DVertices
00000000004c48f8 D RxClCamSpace3DVertices
00000000004c4930 D RxClScrSpace2DVertices
00000000004c4960 D RxClInterpolants
00000000004c4988 D RxClMeshState
00000000004c49b0 D RxClRenderState
00000000004c49d8 D RxClIndices
00000000004c4a00 D RxClScatter
00000000004c4a28 D RxClUVs
00000000004c4a50 D RxClVSteps
00000000004c4a78 D RxClRGBAs
00000000004c4aa0 D RxClCamNorms
00000000004c4ac8 D RxClTriPlanes
00000000004c4ae0 D rw_errcomstr
00000000004c4bd8 D rw_errcomcstr
00000000004c4df8 D sectorTKList
00000000004c4e18 D worldTKList
00000000004c4f78 D MaxAsyncReadMultiply
00000000004c4ff0 D testIndex
00000000004c5000 D _ZN2SC16utilScErrorTableE
00000000004c5240 B gbInAnimCallback
00000000004c5250 B _ZN12CAnimManager14ms_aAnimationsE
00000000004ca6b0 B _ZN12CAnimManager14ms_aAnimBlocksE
00000000004cab10 B _ZN12CAnimManager16ms_numAnimationsE
00000000004cab14 B _ZN12CAnimManager16ms_numAnimBlocksE
00000000004cab18 B _ZN12CAnimManager19ms_aAnimAssocGroupsE
00000000004cab20 B _ZN12CAnimManager12ms_animCacheE
00000000004cbc18 B _ZN12CCutsceneMgr15ms_cutsceneNameE
00000000004cbc20 B _ZN12CCutsceneMgr23ms_cutsceneAssociationsE
00000000004cbc40 B _ZN12CCutsceneMgr9ms_loadedE
00000000004cbc41 B _ZN12CCutsceneMgr13ms_animLoadedE
00000000004cbc42 B _ZN12CCutsceneMgr10ms_runningE
00000000004cbc43 B _ZN12CCutsceneMgr21ms_cutsceneProcessingE
00000000004cbc44 B _ZN12CCutsceneMgr19ms_useLodMultiplierE
00000000004cbc45 B _ZN12CCutsceneMgr21ms_useCutsceneShadowsE
00000000004cbc46 B _ZN12CCutsceneMgr21ms_wasCutsceneSkippedE
00000000004cbc48 B _ZN12CCutsceneMgr21ms_cutsceneLoadStatusE
00000000004cbc4c B _ZN12CCutsceneMgr16ms_cutsceneTimerE
00000000004cbc50 B _ZN12CCutsceneMgr17ms_cutsceneOffsetE
00000000004cbc5c B _ZN12CCutsceneMgr18ms_numCutsceneObjsE
00000000004cbc60 B _ZN12CCutsceneMgr19ms_pCutsceneObjectsE
00000000004cbdf0 B _ZN12CCutsceneMgr15ms_pCutsceneDirE
00000000004cbf58 B ClumpOffset
00000000004cc020 B g_bMissionAudioLoadFailed
00000000004cc028 B AudioManager
00000000004d1618 B BankStartOffset
00000000004d1624 B DMAudio
00000000004d1628 B MusicManager
00000000004d5008 B g_bAnnouncementReadPosAlready
00000000004d5039 B CDStreamPath
00000000004d5139 B bUsingHDVersion
00000000004d5140 B SampleManager
0000000000505d00 B ALStreamSources
0000000000505d0c B ALStreamBuffers
0000000000505d48 B fpSampleDescHandle
0000000000505d50 B fpSampleDataHandle
0000000000505d58 B mp3Stream
0000000000505d70 B nStreamVolume
0000000000505d73 B nStreamPan
0000000000505d78 B nStreamLength
0000000000507098 B alChannels
0000000000507300 B bank0Buffers
0000000000507b30 B ALBuffers
0000000000508b90 B nSampleBankDiscStartOffset
0000000000508b98 B nSampleBankSize
0000000000508ba0 B nSampleBankMemoryStartAddress
0000000000508bb0 B nPedSlotSfx
0000000000508bc4 B nPedSlotSfxAddr
0000000000508bd8 B pedBuffers
0000000000508bec B nCurrentPedSlot
0000000000508bed B bSampleBankLoaded
0000000000508bf0 B nNumMP3s
0000000000508bf8 B ZoneSfx
0000000000508cd8 B gSpecialSuspectLastSeenReport
0000000000508cdc B gMinTimeToNextReport
0000000000508d38 B _ZN10CCollision16ms_colModelCacheE
0000000000508da0 B _ZN10CCollision20ms_collisionInMemoryE
000000000050a978 B _ZN9CColStore11ms_pColPoolE
000000000050a980 B _ZN9CColStore8m_onlyBBE
000000000050a990 B numTris
000000000050a998 B _ZN14CTempColModels15ms_colModelBBoxE
000000000050aa00 B _ZN14CTempColModels17ms_colModelCutObjE
000000000050ac08 B _ZN14CTempColModels15ms_colModelPed1E
000000000050ac70 B _ZN14CTempColModels15ms_colModelPed2E
000000000050acd8 B _ZN14CTempColModels23ms_colModelPedGroundHitE
000000000050ad40 B _ZN14CTempColModels16ms_colModelDoor1E
000000000050ada8 B _ZN14CTempColModels18ms_colModelBumper1E
000000000050ae10 B _ZN14CTempColModels17ms_colModelPanel1E
000000000050ae78 B _ZN14CTempColModels18ms_colModelBonnet1E
000000000050aee0 B _ZN14CTempColModels16ms_colModelBoot1E
000000000050af48 B _ZN14CTempColModels17ms_colModelWheel1E
000000000050afb0 B _ZN14CTempColModels20ms_colModelBodyPart1E
000000000050b018 B _ZN14CTempColModels20ms_colModelBodyPart2E
000000000050b080 B _ZN14CTempColModels17ms_colModelWeaponE
000000000050b460 B _ZN7CBridge31TimeOfBridgeBecomingOperationalE
000000000050b464 B _ZN7CBridge5StateE
000000000050b468 B _ZN7CBridge8OldStateE
000000000050b46c B _ZN7CBridge7OldLiftE
000000000050b470 B _ZN7CBridge9pLiftPartE
000000000050b478 B _ZN7CBridge9pLiftRoadE
000000000050b480 B _ZN7CBridge7pWeightE
000000000050b488 B _ZN7CBridge16DefaultZLiftPartE
000000000050b48c B _ZN7CBridge16DefaultZLiftRoadE
000000000050b490 B _ZN7CBridge18DefaultZLiftWeightE
000000000050b498 B gpTestCar
000000000050b4a0 B gpPhysicsCar
000000000050b4a8 B _ZN8CCarCtrl13NumRandomCarsE
000000000050b4ac B _ZN8CCarCtrl18NumLawEnforcerCarsE
000000000050b4b0 B _ZN8CCarCtrl14NumMissionCarsE
000000000050b4b4 B _ZN8CCarCtrl13NumParkedCarsE
000000000050b4b8 B _ZN8CCarCtrl20NumPermanentVehiclesE
000000000050b4bc B _ZN8CCarCtrl19NumAmbulancesOnDutyE
000000000050b4c0 B _ZN8CCarCtrl19NumFireTrucksOnDutyE
000000000050b4c4 B _ZN8CCarCtrl24LastTimeAmbulanceCreatedE
000000000050b4c8 B _ZN8CCarCtrl24LastTimeFireTruckCreatedE
000000000050b4cc B _ZN8CCarCtrl26LastTimeLawEnforcerCreatedE
000000000050b4d0 B _ZN8CCarCtrl22CountDownToCarsAtStartE
000000000050b4d4 B _ZN8CCarCtrl9CarArraysE
000000000050b920 B _ZN8CCarCtrl15LoadedCarArraysE
000000000050bd6c B _ZN8CCarCtrl13CarFreqArraysE
000000000050c1b8 B _ZN8CCarCtrl22TotalNumOfCarsOfRatingE
000000000050c1e4 B _ZN8CCarCtrl23NumOfLoadedCarsOfRatingE
000000000050c210 B _ZN8CCarCtrl22NumRequestsOfCarRatingE
000000000050c23c B _ZN8CCarCtrl26bCarsGeneratedAroundCameraE
000000000050c240 B _ZN8CCarCtrl14MiamiViceCycleE
000000000050c244 B _ZN8CCarCtrl26LastTimeMiamiViceGeneratedE
000000000050c248 B _ZN8CCarCtrl16bMadDriversCheatE
000000000050c250 B apCarsToKeep
000000000050c260 B aCarsToKeepTime
000000000050c268 B _ZN7CDarkel6StatusE
000000000050c26c B _ZN7CDarkel10WeaponTypeE
000000000050c270 B _ZN7CDarkel11ModelToKillE
000000000050c274 B _ZN7CDarkel12ModelToKill2E
000000000050c278 B _ZN7CDarkel12ModelToKill3E
000000000050c27c B _ZN7CDarkel12ModelToKill4E
000000000050c280 B _ZN7CDarkel11KillsNeededE
000000000050c284 B _ZN7CDarkel9TimeLimitE
000000000050c288 B _ZN7CDarkel12PreviousTimeE
000000000050c28c B _ZN7CDarkel17TimeOfFrenzyStartE
000000000050c290 B _ZN7CDarkel29InterruptedWeaponTypeSelectedE
000000000050c294 B _ZN7CDarkel21InterruptedWeaponTypeE
000000000050c298 B _ZN7CDarkel21AmmoInterruptedWeaponE
000000000050c2a0 B _ZN7CDarkel13pStartMessageE
000000000050c2a8 B _ZN7CDarkel15RegisteredKillsE
000000000050c488 B _ZN7CDarkel25bStandardSoundAndMessagesE
000000000050c489 B _ZN7CDarkel13bNeedHeadShotE
000000000050c48a B _ZN7CDarkel17bProperKillFrenzyE
000000000050c48b B _ZN10CGameLogic13ActivePlayersE
000000000050c48c B _ZN10CGameLogic13ShortCutStateE
000000000050c490 B _ZN10CGameLogic13ShortCutStartE
000000000050c49c B _ZN10CGameLogic24ShortCutStartOrientationE
000000000050c4a0 B _ZN10CGameLogic19ShortCutDestinationE
000000000050c4ac B _ZN10CGameLogic30ShortCutDestinationOrientationE
000000000050c4b0 B _ZN10CGameLogic13pShortCutTaxiE
000000000050c4b8 B _ZN10CGameLogic13ShortCutTimerE
000000000050c4bc B _ZN10CGameLogic24NumAfterDeathStartPointsE
000000000050c4c0 B _ZN10CGameLogic21AfterDeathStartPointsE
000000000050c580 B _ZN10CGameLogic32AfterDeathStartPointOrientationsE
000000000050c5c0 B _ZN10CGameLogic25ShortCutDropOffForMissionE
000000000050c5cc B _ZN10CGameLogic36ShortCutDropOffOrientationForMissionE
000000000050c5d0 B _ZN10CGameLogic27MissionDropOffReadyToBeUsedE
000000000050c5d4 B _ZN8CGarages8aGaragesE
000000000050dc54 B _ZN8CGarages10NumGaragesE
000000000050dc58 B _ZN8CGarages16MessageStartTimeE
000000000050dc5c B _ZN8CGarages14MessageEndTimeE
000000000050dc60 B _ZN8CGarages15MessageIDStringE
000000000050dc68 B _ZN8CGarages21MessageNumberInStringE
000000000050dc6c B _ZN8CGarages22MessageNumberInString2E
000000000050dc70 B _ZN8CGarages14PlayerInGarageE
000000000050dc71 B _ZN8CGarages12BombsAreFreeE
000000000050dc72 B _ZN8CGarages15RespraysAreFreeE
000000000050dc74 B _ZN8CGarages13CarsCollectedE
000000000050dc78 B _ZN8CGarages17BankVansCollectedE
000000000050dc7c B _ZN8CGarages19PoliceCarsCollectedE
000000000050dc80 B _ZN8CGarages17CarTypesCollectedE
000000000050dc90 B _ZN8CGarages12CrushedCarIdE
000000000050dc94 B _ZN8CGarages19bCamShouldBeOutsideE
000000000050dc98 B _ZN8CGarages19LastTimeHelpMessageE
000000000050dca0 B pOldToGarageWeAreIn
000000000050dca8 B _ZN8CGarages16aCarsInSafeHouseE
000000000050e430 B ThePaths
00000000005657c8 B InfoForTileCars
00000000005657d0 B InfoForTilePeds
00000000005657d8 B DetachedInfoForTileCars
00000000005657e0 B DetachedInfoForTilePeds
00000000005657e8 B TempExternalNodes
00000000005657f0 B NumDetachedPedNodeGroups
00000000005657f4 B NumDetachedCarNodeGroups
00000000005657f8 B NumTempExternalNodes
00000000005785ac B DummyResult
00000000005785ae B DummyResult2
00000000005785b0 B pNodeList
00000000005786d0 B gPhoneInfo
0000000000579678 B _ZN8CPickups8aPickUpsE
000000000057e538 B _ZN8CPickups9aMessagesE
000000000057e6f8 B _ZN8CPickups11NumMessagesE
000000000057e6fc B _ZN8CPickups17aPickUpsCollectedE
000000000057e74c B _ZN8CPickups20CollectedPickUpIndexE
000000000057e74e B _ZN8CPickups19bPickUpcamActivatedE
000000000057e750 B _ZN8CPickups14pPlayerVehicleE
000000000057e758 B _ZN8CPickups14StaticCamCoorsE
000000000057e764 B _ZN8CPickups18StaticCamStartTimeE
000000000057e768 B _ZN8CPickups20PlayerOnWeaponPickupE
000000000057e76c B CollectPickupBuffer
000000000057e770 B _ZN14CPacManPickups9bPMActiveE
000000000057e774 B _ZN14CPacManPickups16PillsEatenInRaceE
000000000057e778 B _ZN14CPacManPickups15LastPickUpCoorsE
000000000057e784 B CollectGameState
000000000057e786 B ThingsToCollect
000000000057e788 B TimeStarted
000000000057e78c B LastPickUpCoors
000000000057e798 B _ZN18CRecordDataForGame14RecordingStateE
000000000057e79c B _ZN18CRecordDataForGame3FIdE
000000000057e7a0 B _ZN18CRecordDataForGame11pDataBufferE
000000000057e7a8 B _ZN18CRecordDataForGame18pDataBufferPointerE
000000000057e7b0 B _ZN19CRecordDataForChase6StatusE
000000000057e7b1 B _ZN19CRecordDataForChase10CurrentCarE
000000000057e7b4 B _ZN19CRecordDataForChase13AnimStartTimeE
000000000057e7b8 B _ZN19CRecordDataForChase8AnimTimeE
000000000057e7bc B _ZN19CRecordDataForChase15PositionChangesE
000000000057e7c0 B _ZN19CRecordDataForChase14TimeMultiplierE
000000000057e7c8 B _ZN19CRecordDataForChase10pChaseCarsE
000000000057e868 B _ZN19CRecordDataForChase14pBaseMemForCarE
000000000057e908 B _ZN19CRecordDataForChase4FId2E
000000000057e90c B BufferDataToBeSaved
000000000057e98c B NewCoorsForRecordedCars
000000000057e9fc B TempState
000000000057ea18 B _ZN7CReplay7BuffersE
0000000000641f18 B _ZN7CReplay12BufferStatusE
0000000000641f20 B _ZN7CReplay6RecordE
0000000000641f38 B _ZN7CReplay8PlaybackE
0000000000641f50 B _ZN7CReplay5Time1E
0000000000641f54 B _ZN7CReplay5Time2E
0000000000641f58 B _ZN7CReplay5Time3E
0000000000641f5c B _ZN7CReplay5Time4E
0000000000641f60 B _ZN7CReplay5FrameE
0000000000641f64 B _ZN7CReplay9TimeScaleE
0000000000641f68 B _ZN7CReplay8TimeStepE
0000000000641f6c B _ZN7CReplay18TimeStepNonClippedE
0000000000641f70 B _ZN7CReplay4ModeE
0000000000641f71 B _ZN7CReplay10CameraModeE
0000000000641f74 B _ZN7CReplay12CameraFixedXE
0000000000641f78 B _ZN7CReplay12CameraFixedYE
0000000000641f7c B _ZN7CReplay12CameraFixedZE
0000000000641f80 B _ZN7CReplay5pBuf0E
0000000000641f88 B _ZN7CReplay5pBuf1E
0000000000641f90 B _ZN7CReplay5pBuf2E
0000000000641f98 B _ZN7CReplay5pBuf3E
0000000000641fa0 B _ZN7CReplay5pBuf4E
0000000000641fa8 B _ZN7CReplay5pBuf5E
0000000000641fb0 B _ZN7CReplay5pBuf6E
0000000000641fb8 B _ZN7CReplay5pBuf7E
0000000000641fc0 B _ZN7CReplay5pBuf8E
0000000000641fc8 B _ZN7CReplay5pBuf9E
0000000000641fd0 B _ZN7CReplay6pBuf10E
0000000000641fd8 B _ZN7CReplay6pBuf11E
0000000000641fe0 B _ZN7CReplay11pReferencesE
0000000000641fe8 B _ZN7CReplay8pPickupsE
0000000000641ff0 B _ZN7CReplay9pPedAnimsE
0000000000641ff8 B _ZN7CReplay16pEmptyReferencesE
0000000000642000 B _ZN7CReplay12PlayerWantedE
0000000000642238 B _ZN7CReplay10PlayerInfoE
00000000006423e0 B _ZN7CReplay7pWorld1E
00000000006423e8 B _ZN7CReplay12WorldPtrListE
00000000006423f0 B _ZN7CReplay18BigBuildingPtrListE
00000000006423f8 B _ZN7CReplay10pStoredCamE
0000000000642400 B _ZN7CReplay11pRadarBlipsE
0000000000642408 B _ZN7CReplay8pGaragesE
0000000000642410 B _ZN7CReplay10ClockHoursE
0000000000642411 B _ZN7CReplay12ClockMinutesE
0000000000642412 B _ZN7CReplay14OldWeatherTypeE
0000000000642414 B _ZN7CReplay14NewWeatherTypeE
0000000000642418 B _ZN7CReplay25WeatherInterpolationValueE
000000000064241c B _ZN7CReplay20bPlayingBackFromFileE
000000000064241d B _ZN7CReplay19bAllowLookAroundCamE
0000000000642420 B _ZN7CReplay23fBetaAngleLookAroundCamE
0000000000642424 B _ZN7CReplay24fAlphaAngleLookAroundCamE
0000000000642428 B _ZN7CReplay22fDistanceLookAroundCamE
000000000064242c B _ZN7CReplay25FramesActiveLookAroundCamE
0000000000642430 B _ZN7CReplay10SlowMotionE
0000000000642434 B _ZN7CReplay20bDoLoadSceneWhenDoneE
0000000000642438 B _ZN7CReplay10LoadSceneXE
000000000064243c B _ZN7CReplay10LoadSceneYE
0000000000642440 B _ZN7CReplay10LoadSceneZE
0000000000642444 B _ZN7CReplay15OldRadioStationE
0000000000642448 B _ZN7CReplay8CurrAreaE
000000000064244c B _ZN7CReplay10NumOfFiresE
0000000000642450 B _ZN7CReplay9FireArrayE
0000000000642458 B _ZN7CReplay16paProjectileInfoE
0000000000642460 B _ZN7CReplay13paProjectilesE
0000000000642468 B _ZN7CReplay21ms_nNumCivMale_StoredE
000000000064246c B _ZN7CReplay23ms_nNumCivFemale_StoredE
0000000000642470 B _ZN7CReplay17ms_nNumCop_StoredE
0000000000642474 B _ZN7CReplay23ms_nNumEmergency_StoredE
0000000000642478 B _ZN7CReplay19ms_nNumGang1_StoredE
000000000064247c B _ZN7CReplay19ms_nNumGang2_StoredE
0000000000642480 B _ZN7CReplay19ms_nNumGang3_StoredE
0000000000642484 B _ZN7CReplay19ms_nNumGang4_StoredE
0000000000642488 B _ZN7CReplay19ms_nNumGang5_StoredE
000000000064248c B _ZN7CReplay19ms_nNumGang6_StoredE
0000000000642490 B _ZN7CReplay19ms_nNumGang7_StoredE
0000000000642494 B _ZN7CReplay19ms_nNumGang8_StoredE
0000000000642498 B _ZN7CReplay19ms_nNumGang9_StoredE
000000000064249c B _ZN7CReplay19ms_nNumDummy_StoredE
00000000006424a0 B _ZN7CReplay32ms_nTotalCarPassengerPeds_StoredE
00000000006424a4 B _ZN7CReplay23ms_nTotalCivPeds_StoredE
00000000006424a8 B _ZN7CReplay24ms_nTotalGangPeds_StoredE
00000000006424ac B _ZN7CReplay20ms_nTotalPeds_StoredE
00000000006424b0 B _ZN7CReplay27ms_nTotalMissionPeds_StoredE
00000000006424b4 B CameraFocusX
00000000006424b8 B CameraFocusY
00000000006424bc B CameraFocusZ
00000000006424c0 B bPlayerInRCBuggy
00000000006424c1 B bTestScriptGoing
00000000006424c4 B TestScriptIndex
00000000006424d0 B _ZN8CRestart21HospitalRestartPointsE
0000000000642530 B _ZN8CRestart23HospitalRestartHeadingsE
0000000000642550 B _ZN8CRestart19PoliceRestartPointsE
00000000006425b0 B _ZN8CRestart21PoliceRestartHeadingsE
00000000006425d0 B _ZN8CRestart24NumberOfHospitalRestartsE
00000000006425d2 B _ZN8CRestart22NumberOfPoliceRestartsE
00000000006425d4 B _ZN8CRestart16bOverrideRestartE
00000000006425d8 B _ZN8CRestart16OverridePositionE
00000000006425e4 B _ZN8CRestart15OverrideHeadingE
00000000006425e8 B _ZN8CRestart21bFadeInAfterNextDeathE
00000000006425e9 B _ZN8CRestart22bFadeInAfterNextArrestE
00000000006425ea B _ZN8CRestart21OverrideHospitalLevelE
00000000006425eb B _ZN8CRestart26OverridePoliceStationLevelE
00000000006425ec B _ZN11CRoadBlocks13NumRoadBlocksE
00000000006425ee B _ZN11CRoadBlocks14RoadBlockNodesE
0000000000642846 B _ZN11CRoadBlocks7InOrOutE
0000000000642974 B _ZN11CRoadBlocks17aScriptRoadBlocksE
0000000000642b34 B missionRetryScriptIndex
0000000000642b38 B _ZN11CTheScripts12ScriptsArrayE
0000000000647338 B _ZN11CTheScripts14pActiveScriptsE
0000000000647340 B _ZN11CTheScripts12pIdleScriptsE
0000000000647348 B _ZN11CTheScripts11ScriptSpaceE
0000000000686ce8 B _ZN11CTheScripts14MissionCleanUpE
0000000000686e7c B _ZN11CTheScripts14UpsideDownCarsE
0000000000686eac B _ZN11CTheScripts9StuckCarsE
00000000006870ac B _ZN11CTheScripts14OnAMissionFlagE
00000000006870b0 B _ZN11CTheScripts21LastMissionPassedTimeE
00000000006870b4 B _ZN11CTheScripts15LastRandomPedIdE
00000000006870b8 B _ZN11CTheScripts15UsedObjectArrayE
00000000006888c8 B _ZN11CTheScripts19NumberOfUsedObjectsE
00000000006888cc B _ZN11CTheScripts17ScriptSphereArrayE
0000000000688a4c B _ZN11CTheScripts14IntroTextLinesE
000000000068b80c B _ZN11CTheScripts31NumberOfIntroTextLinesThisFrameE
000000000068b80e B _ZN11CTheScripts15UseTextCommandsE
000000000068b810 B _ZN11CTheScripts15IntroRectanglesE
000000000068b990 B _ZN11CTheScripts32NumberOfIntroRectanglesThisFrameE
000000000068b998 B _ZN11CTheScripts13ScriptSpritesE
000000000068ba18 B _ZN11CTheScripts17BuildingSwapArrayE
000000000068bba8 B _ZN11CTheScripts24InvisibilitySettingArrayE
000000000068bc48 B _ZN11CTheScripts14ScriptsUpdatedE
000000000068bc4a B _ZN11CTheScripts16CommandsExecutedE
000000000068bc4c B _ZN11CTheScripts19NumScriptDebugLinesE
000000000068bc50 B _ZN11CTheScripts12aStoredLinesE
0000000000693c50 B _ZN11CTheScripts7DbgFlagE
0000000000693c51 B _ZN11CTheScripts21StoreVehicleWasRandomE
0000000000693c54 B _ZN11CTheScripts17StoreVehicleIndexE
0000000000693c58 B _ZN11CTheScripts22bUsingAMultiScriptFileE
0000000000693c5c B _ZN11CTheScripts16MultiScriptArrayE
0000000000693e3c B _ZN11CTheScripts14MainScriptSizeE
0000000000693e40 B _ZN11CTheScripts24LargestMissionScriptSizeE
0000000000693e44 B _ZN11CTheScripts22NumberOfMissionScriptsE
0000000000693e46 B _ZN11CTheScripts31NumberOfExclusiveMissionScriptsE
0000000000693e48 B _ZN11CTheScripts29bAlreadyRunningAMissionScriptE
0000000000693e49 B _ZN11CTheScripts18FailCurrentMissionE
0000000000693e4c B _ZN11CTheScripts22ScriptPickupCycleIndexE
0000000000693e50 B _ZN11CTheScripts24bPlayerHasMetDebbieHarryE
0000000000693e51 B _ZN11CTheScripts13RiotIntensityE
0000000000693e52 B _ZN11CTheScripts21bPlayerIsInTheStadiumE
0000000000693e54 B _ZN11CTheScripts9CardStackE
00000000006940c4 B _ZN11CTheScripts17CardStackPositionE
00000000006940c8 B ScriptParams
0000000000694148 B sideMissionCount
000000000069414c B MissionCount
0000000000694158 B NextMissionDelay
000000000069415c B oldTargetX
0000000000694160 B oldTargetY
00000000006948fc B _ZN10CSetPieces12NumSetPiecesE
0000000000694900 B _ZN10CSetPieces6bDebugE
0000000000694904 B _ZN10CSetPieces10aSetPiecesE
0000000000695e04 B _ZN14CTrafficLights17bGreenLightsCheatE
0000000000695e08 B gAccidentManager
0000000000695f60 B bDidWeProcessAnyCinemaCam
0000000000695f61 B _ZN7CCamera20m_bUseMouse3rdPersonE
0000000000695f62 B DebugCamMode
0000000000695f68 B TheCamera
0000000000696938 B _ZN7CCamera20m_fMouseAccelHorzntlE
000000000069693c B _ZN7CCamera21m_fMouseAccelVerticalE
0000000000696940 B _ZN7CCamera22m_f3rdPersonCHairMultXE
0000000000696944 B _ZN7CCamera22m_f3rdPersonCHairMultYE
0000000000696ac0 B vecWheelCamBoatOffset
0000000000696acc B vecWheelCamBoatOffsetAlt
0000000000696ad8 B nUsingWhichCamera
0000000000696ae0 B pStoredCopPed
0000000000696ae8 B bForceOldWaft
0000000000696af4 B bAvoidTest1
0000000000696af5 B bAvoidTest2
0000000000696af6 B bAvoidTest3
0000000000696b18 B MarketingCamMatrix
0000000000696b80 B gImgFiles
0000000000696c00 B channelFile
0000000000696c10 B gpReadInfo
0000000000696c18 B lastPosnRead
0000000000696e20 B _ZN6CClock29ms_nMillisecondsPerGameMinuteE
0000000000696e24 B _ZN6CClock17ms_nLastClockTickE
0000000000696e28 B _ZN6CClock18ms_nGameClockHoursE
0000000000696e29 B _ZN6CClock20ms_nGameClockMinutesE
0000000000696e2a B _ZN6CClock20ms_nGameClockSecondsE
0000000000696e2c B _ZN6CClock25ms_Stored_nGameClockHoursE
0000000000696e2d B _ZN6CClock27ms_Stored_nGameClockMinutesE
0000000000696e2e B _ZN6CClock27ms_Stored_nGameClockSecondsE
0000000000696e30 B _ZN6CClock19bClockHasBeenStoredE
0000000000696e34 B ControlsManager
000000000069829c B UseDebugLog
00000000006982a0 B gString
00000000006983a0 B gString2
00000000006984a0 B gUString
00000000006986a0 B gUString2
00000000006988a0 B _ZN6CDebug19ms_nCurrentTextLineE
00000000006988a4 B gBuildings
00000000006988a8 B gaEvent
00000000006994a8 B _ZN10CEventList22ms_nFirstFreeSlotIndexE
00000000006994ac B _ZN11CFileLoader7ms_lineE
00000000006995b0 B blackMeshes
00000000006995b8 B backFaceMeshes
00000000006995c0 B shadedMeshes
00000000006995c8 B whiteMeshes
00000000006995d8 B number
00000000006995dc B _ZN8CFileMgr14ms_rootDirNameE
000000000069965c B _ZN8CFileMgr10ms_dirNameE
00000000006996dc B _ZN8CFileMgr11ms_fileNameE
0000000000699760 B gFireManager
000000000069a028 B textureDBinitted
000000000069a02c B _ZN5CGame9currLevelE
000000000069a030 B _ZN5CGame8currAreaE
000000000069a034 B _ZN5CGame10germanGameE
000000000069a035 B _ZN5CGame13lessNastyGameE
000000000069a036 B _ZN5CGame10frenchGameE
000000000069a037 B _ZN5CGame13noProstitutesE
000000000069a038 B _ZN5CGame12playingIntroE
000000000069a039 B _ZN5CGame8aDatFileE
000000000069a060 B gpCar
000000000069a068 B gpBoat
000000000069a070 B gPerfCounter1
000000000069a074 B gPerfCounter2
000000000069a078 B gPerfCounter3
000000000069a07c B gPerfCounter4
000000000069a080 B gPrintStuff
000000000069a088 B gpTraceObject
